Archive member included because of file (symbol)

/home/reymondo/CodeSourcery/Sourcery_G++_Lite/bin/../lib/gcc/arm-none-eabi/4.5.2/../../../../arm-none-eabi/lib/thumb2/libstdc++.a(del_op.o)
                              out/main.o (_ZdlPv)
/home/reymondo/CodeSourcery/Sourcery_G++_Lite/bin/../lib/gcc/arm-none-eabi/4.5.2/../../../../arm-none-eabi/lib/thumb2/libstdc++.a(new_op.o)
                              out/main.o (_Znwj)
/home/reymondo/CodeSourcery/Sourcery_G++_Lite/bin/../lib/gcc/arm-none-eabi/4.5.2/../../../../arm-none-eabi/lib/thumb2/libstdc++.a(eh_personality.o)
                              /home/reymondo/CodeSourcery/Sourcery_G++_Lite/bin/../lib/gcc/arm-none-eabi/4.5.2/../../../../arm-none-eabi/lib/thumb2/libstdc++.a(new_op.o) (__gxx_personality_v0)
/home/reymondo/CodeSourcery/Sourcery_G++_Lite/bin/../lib/gcc/arm-none-eabi/4.5.2/../../../../arm-none-eabi/lib/thumb2/libstdc++.a(eh_throw.o)
                              /home/reymondo/CodeSourcery/Sourcery_G++_Lite/bin/../lib/gcc/arm-none-eabi/4.5.2/../../../../arm-none-eabi/lib/thumb2/libstdc++.a(new_op.o) (__cxa_throw)
/home/reymondo/CodeSourcery/Sourcery_G++_Lite/bin/../lib/gcc/arm-none-eabi/4.5.2/../../../../arm-none-eabi/lib/thumb2/libstdc++.a(pure.o)
                              out/main.o (__cxa_pure_virtual)
/home/reymondo/CodeSourcery/Sourcery_G++_Lite/bin/../lib/gcc/arm-none-eabi/4.5.2/../../../../arm-none-eabi/lib/thumb2/libstdc++.a(eh_unex_handler.o)
                              /home/reymondo/CodeSourcery/Sourcery_G++_Lite/bin/../lib/gcc/arm-none-eabi/4.5.2/../../../../arm-none-eabi/lib/thumb2/libstdc++.a(eh_throw.o) (_ZN10__cxxabiv120__unexpected_handlerE)
/home/reymondo/CodeSourcery/Sourcery_G++_Lite/bin/../lib/gcc/arm-none-eabi/4.5.2/../../../../arm-none-eabi/lib/thumb2/libstdc++.a(eh_globals.o)
                              /home/reymondo/CodeSourcery/Sourcery_G++_Lite/bin/../lib/gcc/arm-none-eabi/4.5.2/../../../../arm-none-eabi/lib/thumb2/libstdc++.a(eh_throw.o) (__cxa_get_globals)
/home/reymondo/CodeSourcery/Sourcery_G++_Lite/bin/../lib/gcc/arm-none-eabi/4.5.2/../../../../arm-none-eabi/lib/thumb2/libstdc++.a(eh_catch.o)
                              /home/reymondo/CodeSourcery/Sourcery_G++_Lite/bin/../lib/gcc/arm-none-eabi/4.5.2/../../../../arm-none-eabi/lib/thumb2/libstdc++.a(eh_personality.o) (__cxa_begin_catch)
/home/reymondo/CodeSourcery/Sourcery_G++_Lite/bin/../lib/gcc/arm-none-eabi/4.5.2/../../../../arm-none-eabi/lib/thumb2/libstdc++.a(eh_arm.o)
                              /home/reymondo/CodeSourcery/Sourcery_G++_Lite/bin/../lib/gcc/arm-none-eabi/4.5.2/../../../../arm-none-eabi/lib/thumb2/libstdc++.a(new_op.o) (__cxa_end_cleanup)
/home/reymondo/CodeSourcery/Sourcery_G++_Lite/bin/../lib/gcc/arm-none-eabi/4.5.2/../../../../arm-none-eabi/lib/thumb2/libstdc++.a(eh_terminate.o)
                              /home/reymondo/CodeSourcery/Sourcery_G++_Lite/bin/../lib/gcc/arm-none-eabi/4.5.2/../../../../arm-none-eabi/lib/thumb2/libstdc++.a(eh_throw.o) (_ZN10__cxxabiv111__terminateEPFvvE)
/home/reymondo/CodeSourcery/Sourcery_G++_Lite/bin/../lib/gcc/arm-none-eabi/4.5.2/../../../../arm-none-eabi/lib/thumb2/libstdc++.a(eh_alloc.o)
                              /home/reymondo/CodeSourcery/Sourcery_G++_Lite/bin/../lib/gcc/arm-none-eabi/4.5.2/../../../../arm-none-eabi/lib/thumb2/libstdc++.a(new_op.o) (__cxa_allocate_exception)
/home/reymondo/CodeSourcery/Sourcery_G++_Lite/bin/../lib/gcc/arm-none-eabi/4.5.2/../../../../arm-none-eabi/lib/thumb2/libstdc++.a(eh_call.o)
                              /home/reymondo/CodeSourcery/Sourcery_G++_Lite/bin/../lib/gcc/arm-none-eabi/4.5.2/../../../../arm-none-eabi/lib/thumb2/libstdc++.a(eh_personality.o) (__cxa_call_terminate)
/home/reymondo/CodeSourcery/Sourcery_G++_Lite/bin/../lib/gcc/arm-none-eabi/4.5.2/../../../../arm-none-eabi/lib/thumb2/libstdc++.a(new_handler.o)
                              /home/reymondo/CodeSourcery/Sourcery_G++_Lite/bin/../lib/gcc/arm-none-eabi/4.5.2/../../../../arm-none-eabi/lib/thumb2/libstdc++.a(new_op.o) (_ZNSt9bad_allocD1Ev)
/home/reymondo/CodeSourcery/Sourcery_G++_Lite/bin/../lib/gcc/arm-none-eabi/4.5.2/../../../../arm-none-eabi/lib/thumb2/libstdc++.a(eh_term_handler.o)
                              /home/reymondo/CodeSourcery/Sourcery_G++_Lite/bin/../lib/gcc/arm-none-eabi/4.5.2/../../../../arm-none-eabi/lib/thumb2/libstdc++.a(eh_throw.o) (_ZN10__cxxabiv119__terminate_handlerE)
/home/reymondo/CodeSourcery/Sourcery_G++_Lite/bin/../lib/gcc/arm-none-eabi/4.5.2/../../../../arm-none-eabi/lib/thumb2/libstdc++.a(vterminate.o)
                              /home/reymondo/CodeSourcery/Sourcery_G++_Lite/bin/../lib/gcc/arm-none-eabi/4.5.2/../../../../arm-none-eabi/lib/thumb2/libstdc++.a(eh_term_handler.o) (_ZN9__gnu_cxx27__verbose_terminate_handlerEv)
/home/reymondo/CodeSourcery/Sourcery_G++_Lite/bin/../lib/gcc/arm-none-eabi/4.5.2/../../../../arm-none-eabi/lib/thumb2/libstdc++.a(eh_exception.o)
                              /home/reymondo/CodeSourcery/Sourcery_G++_Lite/bin/../lib/gcc/arm-none-eabi/4.5.2/../../../../arm-none-eabi/lib/thumb2/libstdc++.a(new_handler.o) (_ZNSt9exceptionD2Ev)
/home/reymondo/CodeSourcery/Sourcery_G++_Lite/bin/../lib/gcc/arm-none-eabi/4.5.2/../../../../arm-none-eabi/lib/thumb2/libstdc++.a(eh_type.o)
                              /home/reymondo/CodeSourcery/Sourcery_G++_Lite/bin/../lib/gcc/arm-none-eabi/4.5.2/../../../../arm-none-eabi/lib/thumb2/libstdc++.a(vterminate.o) (__cxa_current_exception_type)
/home/reymondo/CodeSourcery/Sourcery_G++_Lite/bin/../lib/gcc/arm-none-eabi/4.5.2/../../../../arm-none-eabi/lib/thumb2/libstdc++.a(si_class_type_info.o)
                              /home/reymondo/CodeSourcery/Sourcery_G++_Lite/bin/../lib/gcc/arm-none-eabi/4.5.2/../../../../arm-none-eabi/lib/thumb2/libstdc++.a(new_handler.o) (_ZTVN10__cxxabiv120__si_class_type_infoE)
/home/reymondo/CodeSourcery/Sourcery_G++_Lite/bin/../lib/gcc/arm-none-eabi/4.5.2/../../../../arm-none-eabi/lib/thumb2/libstdc++.a(class_type_info.o)
                              /home/reymondo/CodeSourcery/Sourcery_G++_Lite/bin/../lib/gcc/arm-none-eabi/4.5.2/../../../../arm-none-eabi/lib/thumb2/libstdc++.a(si_class_type_info.o) (_ZNK10__cxxabiv117__class_type_info11__do_upcastEPKS0_PPv)
/home/reymondo/CodeSourcery/Sourcery_G++_Lite/bin/../lib/gcc/arm-none-eabi/4.5.2/../../../../arm-none-eabi/lib/thumb2/libstdc++.a(cp-demangle.o)
                              /home/reymondo/CodeSourcery/Sourcery_G++_Lite/bin/../lib/gcc/arm-none-eabi/4.5.2/../../../../arm-none-eabi/lib/thumb2/libstdc++.a(vterminate.o) (__cxa_demangle)
/home/reymondo/CodeSourcery/Sourcery_G++_Lite/bin/../lib/gcc/arm-none-eabi/4.5.2/../../../../arm-none-eabi/lib/thumb2/libstdc++.a(tinfo.o)
                              /home/reymondo/CodeSourcery/Sourcery_G++_Lite/bin/../lib/gcc/arm-none-eabi/4.5.2/../../../../arm-none-eabi/lib/thumb2/libstdc++.a(class_type_info.o) (_ZNSt9type_infoD2Ev)
/home/reymondo/CodeSourcery/Sourcery_G++_Lite/bin/../lib/gcc/arm-none-eabi/4.5.2/thumb2/libgcc.a(unwind-arm.o)
                              /home/reymondo/CodeSourcery/Sourcery_G++_Lite/bin/../lib/gcc/arm-none-eabi/4.5.2/../../../../arm-none-eabi/lib/thumb2/libstdc++.a(eh_personality.o) (__aeabi_unwind_cpp_pr0)
/home/reymondo/CodeSourcery/Sourcery_G++_Lite/bin/../lib/gcc/arm-none-eabi/4.5.2/thumb2/libgcc.a(libunwind.o)
                              /home/reymondo/CodeSourcery/Sourcery_G++_Lite/bin/../lib/gcc/arm-none-eabi/4.5.2/thumb2/libgcc.a(unwind-arm.o) (restore_core_regs)
/home/reymondo/CodeSourcery/Sourcery_G++_Lite/bin/../lib/gcc/arm-none-eabi/4.5.2/thumb2/libgcc.a(pr-support.o)
                              /home/reymondo/CodeSourcery/Sourcery_G++_Lite/bin/../lib/gcc/arm-none-eabi/4.5.2/thumb2/libgcc.a(unwind-arm.o) (__gnu_unwind_execute)
/home/reymondo/CodeSourcery/Sourcery_G++_Lite/bin/../lib/gcc/arm-none-eabi/4.5.2/../../../../arm-none-eabi/lib/thumb2/libc.a(lib_a-abort.o)
                              /home/reymondo/CodeSourcery/Sourcery_G++_Lite/bin/../lib/gcc/arm-none-eabi/4.5.2/../../../../arm-none-eabi/lib/thumb2/libstdc++.a(eh_personality.o) (abort)
/home/reymondo/CodeSourcery/Sourcery_G++_Lite/bin/../lib/gcc/arm-none-eabi/4.5.2/../../../../arm-none-eabi/lib/thumb2/libc.a(lib_a-fputc.o)
                              /home/reymondo/CodeSourcery/Sourcery_G++_Lite/bin/../lib/gcc/arm-none-eabi/4.5.2/../../../../arm-none-eabi/lib/thumb2/libstdc++.a(vterminate.o) (fputc)
/home/reymondo/CodeSourcery/Sourcery_G++_Lite/bin/../lib/gcc/arm-none-eabi/4.5.2/../../../../arm-none-eabi/lib/thumb2/libc.a(lib_a-fputs.o)
                              /home/reymondo/CodeSourcery/Sourcery_G++_Lite/bin/../lib/gcc/arm-none-eabi/4.5.2/../../../../arm-none-eabi/lib/thumb2/libstdc++.a(vterminate.o) (fputs)
/home/reymondo/CodeSourcery/Sourcery_G++_Lite/bin/../lib/gcc/arm-none-eabi/4.5.2/../../../../arm-none-eabi/lib/thumb2/libc.a(lib_a-fvwrite.o)
                              /home/reymondo/CodeSourcery/Sourcery_G++_Lite/bin/../lib/gcc/arm-none-eabi/4.5.2/../../../../arm-none-eabi/lib/thumb2/libc.a(lib_a-fputs.o) (__sfvwrite_r)
/home/reymondo/CodeSourcery/Sourcery_G++_Lite/bin/../lib/gcc/arm-none-eabi/4.5.2/../../../../arm-none-eabi/lib/thumb2/libc.a(lib_a-fwrite.o)
                              /home/reymondo/CodeSourcery/Sourcery_G++_Lite/bin/../lib/gcc/arm-none-eabi/4.5.2/../../../../arm-none-eabi/lib/thumb2/libstdc++.a(vterminate.o) (fwrite)
/home/reymondo/CodeSourcery/Sourcery_G++_Lite/bin/../lib/gcc/arm-none-eabi/4.5.2/../../../../arm-none-eabi/lib/thumb2/libc.a(lib_a-impure.o)
                              /home/reymondo/CodeSourcery/Sourcery_G++_Lite/bin/../lib/gcc/arm-none-eabi/4.5.2/../../../../arm-none-eabi/lib/thumb2/libstdc++.a(vterminate.o) (_impure_ptr)
/home/reymondo/CodeSourcery/Sourcery_G++_Lite/bin/../lib/gcc/arm-none-eabi/4.5.2/../../../../arm-none-eabi/lib/thumb2/libc.a(lib_a-malloc.o)
                              /home/reymondo/CodeSourcery/Sourcery_G++_Lite/bin/../lib/gcc/arm-none-eabi/4.5.2/../../../../arm-none-eabi/lib/thumb2/libstdc++.a(new_op.o) (malloc)
/home/reymondo/CodeSourcery/Sourcery_G++_Lite/bin/../lib/gcc/arm-none-eabi/4.5.2/../../../../arm-none-eabi/lib/thumb2/libc.a(lib_a-mallocr.o)
                              /home/reymondo/CodeSourcery/Sourcery_G++_Lite/bin/../lib/gcc/arm-none-eabi/4.5.2/../../../../arm-none-eabi/lib/thumb2/libc.a(lib_a-fvwrite.o) (_malloc_r)
/home/reymondo/CodeSourcery/Sourcery_G++_Lite/bin/../lib/gcc/arm-none-eabi/4.5.2/../../../../arm-none-eabi/lib/thumb2/libc.a(lib_a-memchr.o)
                              /home/reymondo/CodeSourcery/Sourcery_G++_Lite/bin/../lib/gcc/arm-none-eabi/4.5.2/../../../../arm-none-eabi/lib/thumb2/libc.a(lib_a-fvwrite.o) (memchr)
/home/reymondo/CodeSourcery/Sourcery_G++_Lite/bin/../lib/gcc/arm-none-eabi/4.5.2/../../../../arm-none-eabi/lib/thumb2/libc.a(lib_a-memcmp.o)
                              /home/reymondo/CodeSourcery/Sourcery_G++_Lite/bin/../lib/gcc/arm-none-eabi/4.5.2/../../../../arm-none-eabi/lib/thumb2/libstdc++.a(cp-demangle.o) (memcmp)
/home/reymondo/CodeSourcery/Sourcery_G++_Lite/bin/../lib/gcc/arm-none-eabi/4.5.2/../../../../arm-none-eabi/lib/thumb2/libc.a(lib_a-memcpy.o)
                              /home/reymondo/CodeSourcery/Sourcery_G++_Lite/bin/../lib/gcc/arm-none-eabi/4.5.2/../../../../arm-none-eabi/lib/thumb2/libstdc++.a(cp-demangle.o) (memcpy)
/home/reymondo/CodeSourcery/Sourcery_G++_Lite/bin/../lib/gcc/arm-none-eabi/4.5.2/../../../../arm-none-eabi/lib/thumb2/libc.a(lib_a-memmove.o)
                              /home/reymondo/CodeSourcery/Sourcery_G++_Lite/bin/../lib/gcc/arm-none-eabi/4.5.2/../../../../arm-none-eabi/lib/thumb2/libc.a(lib_a-fvwrite.o) (memmove)
/home/reymondo/CodeSourcery/Sourcery_G++_Lite/bin/../lib/gcc/arm-none-eabi/4.5.2/../../../../arm-none-eabi/lib/thumb2/libc.a(lib_a-memset.o)
                              /home/reymondo/CodeSourcery/Sourcery_G++_Lite/bin/../lib/gcc/arm-none-eabi/4.5.2/../../../../arm-none-eabi/lib/thumb2/libstdc++.a(eh_alloc.o) (memset)
/home/reymondo/CodeSourcery/Sourcery_G++_Lite/bin/../lib/gcc/arm-none-eabi/4.5.2/../../../../arm-none-eabi/lib/thumb2/libc.a(lib_a-mlock.o)
                              /home/reymondo/CodeSourcery/Sourcery_G++_Lite/bin/../lib/gcc/arm-none-eabi/4.5.2/../../../../arm-none-eabi/lib/thumb2/libc.a(lib_a-mallocr.o) (__malloc_lock)
/home/reymondo/CodeSourcery/Sourcery_G++_Lite/bin/../lib/gcc/arm-none-eabi/4.5.2/../../../../arm-none-eabi/lib/thumb2/libc.a(lib_a-putc.o)
                              /home/reymondo/CodeSourcery/Sourcery_G++_Lite/bin/../lib/gcc/arm-none-eabi/4.5.2/../../../../arm-none-eabi/lib/thumb2/libc.a(lib_a-fputc.o) (_putc_r)
/home/reymondo/CodeSourcery/Sourcery_G++_Lite/bin/../lib/gcc/arm-none-eabi/4.5.2/../../../../arm-none-eabi/lib/thumb2/libc.a(lib_a-realloc.o)
                              /home/reymondo/CodeSourcery/Sourcery_G++_Lite/bin/../lib/gcc/arm-none-eabi/4.5.2/../../../../arm-none-eabi/lib/thumb2/libstdc++.a(cp-demangle.o) (realloc)
/home/reymondo/CodeSourcery/Sourcery_G++_Lite/bin/../lib/gcc/arm-none-eabi/4.5.2/../../../../arm-none-eabi/lib/thumb2/libc.a(lib_a-reallocr.o)
                              /home/reymondo/CodeSourcery/Sourcery_G++_Lite/bin/../lib/gcc/arm-none-eabi/4.5.2/../../../../arm-none-eabi/lib/thumb2/libc.a(lib_a-fvwrite.o) (_realloc_r)
/home/reymondo/CodeSourcery/Sourcery_G++_Lite/bin/../lib/gcc/arm-none-eabi/4.5.2/../../../../arm-none-eabi/lib/thumb2/libc.a(lib_a-reent.o)
                              out/syscalls.o (errno)
/home/reymondo/CodeSourcery/Sourcery_G++_Lite/bin/../lib/gcc/arm-none-eabi/4.5.2/../../../../arm-none-eabi/lib/thumb2/libc.a(lib_a-signal.o)
                              /home/reymondo/CodeSourcery/Sourcery_G++_Lite/bin/../lib/gcc/arm-none-eabi/4.5.2/../../../../arm-none-eabi/lib/thumb2/libc.a(lib_a-abort.o) (raise)
/home/reymondo/CodeSourcery/Sourcery_G++_Lite/bin/../lib/gcc/arm-none-eabi/4.5.2/../../../../arm-none-eabi/lib/thumb2/libc.a(lib_a-sprintf.o)
                              /home/reymondo/CodeSourcery/Sourcery_G++_Lite/bin/../lib/gcc/arm-none-eabi/4.5.2/../../../../arm-none-eabi/lib/thumb2/libstdc++.a(cp-demangle.o) (sprintf)
/home/reymondo/CodeSourcery/Sourcery_G++_Lite/bin/../lib/gcc/arm-none-eabi/4.5.2/../../../../arm-none-eabi/lib/thumb2/libc.a(lib_a-strcmp.o)
                              /home/reymondo/CodeSourcery/Sourcery_G++_Lite/bin/../lib/gcc/arm-none-eabi/4.5.2/../../../../arm-none-eabi/lib/thumb2/libstdc++.a(cp-demangle.o) (strcmp)
/home/reymondo/CodeSourcery/Sourcery_G++_Lite/bin/../lib/gcc/arm-none-eabi/4.5.2/../../../../arm-none-eabi/lib/thumb2/libc.a(lib_a-strcpy.o)
                              /home/reymondo/CodeSourcery/Sourcery_G++_Lite/bin/../lib/gcc/arm-none-eabi/4.5.2/../../../../arm-none-eabi/lib/thumb2/libstdc++.a(cp-demangle.o) (strcpy)
/home/reymondo/CodeSourcery/Sourcery_G++_Lite/bin/../lib/gcc/arm-none-eabi/4.5.2/../../../../arm-none-eabi/lib/thumb2/libc.a(lib_a-strlen.o)
                              /home/reymondo/CodeSourcery/Sourcery_G++_Lite/bin/../lib/gcc/arm-none-eabi/4.5.2/../../../../arm-none-eabi/lib/thumb2/libstdc++.a(cp-demangle.o) (strlen)
/home/reymondo/CodeSourcery/Sourcery_G++_Lite/bin/../lib/gcc/arm-none-eabi/4.5.2/../../../../arm-none-eabi/lib/thumb2/libc.a(lib_a-strncmp.o)
                              /home/reymondo/CodeSourcery/Sourcery_G++_Lite/bin/../lib/gcc/arm-none-eabi/4.5.2/../../../../arm-none-eabi/lib/thumb2/libstdc++.a(cp-demangle.o) (strncmp)
/home/reymondo/CodeSourcery/Sourcery_G++_Lite/bin/../lib/gcc/arm-none-eabi/4.5.2/../../../../arm-none-eabi/lib/thumb2/libc.a(lib_a-svfprintf.o)
                              /home/reymondo/CodeSourcery/Sourcery_G++_Lite/bin/../lib/gcc/arm-none-eabi/4.5.2/../../../../arm-none-eabi/lib/thumb2/libc.a(lib_a-sprintf.o) (_svfprintf_r)
/home/reymondo/CodeSourcery/Sourcery_G++_Lite/bin/../lib/gcc/arm-none-eabi/4.5.2/../../../../arm-none-eabi/lib/thumb2/libc.a(lib_a-syswrite.o)
                              /home/reymondo/CodeSourcery/Sourcery_G++_Lite/bin/../lib/gcc/arm-none-eabi/4.5.2/../../../../arm-none-eabi/lib/thumb2/libstdc++.a(pure.o) (write)
/home/reymondo/CodeSourcery/Sourcery_G++_Lite/bin/../lib/gcc/arm-none-eabi/4.5.2/../../../../arm-none-eabi/lib/thumb2/libc.a(lib_a-wbuf.o)
                              /home/reymondo/CodeSourcery/Sourcery_G++_Lite/bin/../lib/gcc/arm-none-eabi/4.5.2/../../../../arm-none-eabi/lib/thumb2/libc.a(lib_a-putc.o) (__swbuf_r)
/home/reymondo/CodeSourcery/Sourcery_G++_Lite/bin/../lib/gcc/arm-none-eabi/4.5.2/../../../../arm-none-eabi/lib/thumb2/libc.a(lib_a-wsetup.o)
                              /home/reymondo/CodeSourcery/Sourcery_G++_Lite/bin/../lib/gcc/arm-none-eabi/4.5.2/../../../../arm-none-eabi/lib/thumb2/libc.a(lib_a-fvwrite.o) (__swsetup_r)
/home/reymondo/CodeSourcery/Sourcery_G++_Lite/bin/../lib/gcc/arm-none-eabi/4.5.2/../../../../arm-none-eabi/lib/thumb2/libc.a(lib_a-dtoa.o)
                              /home/reymondo/CodeSourcery/Sourcery_G++_Lite/bin/../lib/gcc/arm-none-eabi/4.5.2/../../../../arm-none-eabi/lib/thumb2/libc.a(lib_a-svfprintf.o) (_dtoa_r)
/home/reymondo/CodeSourcery/Sourcery_G++_Lite/bin/../lib/gcc/arm-none-eabi/4.5.2/../../../../arm-none-eabi/lib/thumb2/libc.a(lib_a-fflush.o)
                              /home/reymondo/CodeSourcery/Sourcery_G++_Lite/bin/../lib/gcc/arm-none-eabi/4.5.2/../../../../arm-none-eabi/lib/thumb2/libc.a(lib_a-fvwrite.o) (_fflush_r)
/home/reymondo/CodeSourcery/Sourcery_G++_Lite/bin/../lib/gcc/arm-none-eabi/4.5.2/../../../../arm-none-eabi/lib/thumb2/libc.a(lib_a-findfp.o)
                              /home/reymondo/CodeSourcery/Sourcery_G++_Lite/bin/../lib/gcc/arm-none-eabi/4.5.2/../../../../arm-none-eabi/lib/thumb2/libc.a(lib_a-fputc.o) (__sinit)
/home/reymondo/CodeSourcery/Sourcery_G++_Lite/bin/../lib/gcc/arm-none-eabi/4.5.2/../../../../arm-none-eabi/lib/thumb2/libc.a(lib_a-freer.o)
                              /home/reymondo/CodeSourcery/Sourcery_G++_Lite/bin/../lib/gcc/arm-none-eabi/4.5.2/../../../../arm-none-eabi/lib/thumb2/libc.a(lib_a-fvwrite.o) (_free_r)
/home/reymondo/CodeSourcery/Sourcery_G++_Lite/bin/../lib/gcc/arm-none-eabi/4.5.2/../../../../arm-none-eabi/lib/thumb2/libc.a(lib_a-fwalk.o)
                              /home/reymondo/CodeSourcery/Sourcery_G++_Lite/bin/../lib/gcc/arm-none-eabi/4.5.2/../../../../arm-none-eabi/lib/thumb2/libc.a(lib_a-findfp.o) (_fwalk)
/home/reymondo/CodeSourcery/Sourcery_G++_Lite/bin/../lib/gcc/arm-none-eabi/4.5.2/../../../../arm-none-eabi/lib/thumb2/libc.a(lib_a-locale.o)
                              /home/reymondo/CodeSourcery/Sourcery_G++_Lite/bin/../lib/gcc/arm-none-eabi/4.5.2/../../../../arm-none-eabi/lib/thumb2/libc.a(lib_a-svfprintf.o) (_localeconv_r)
/home/reymondo/CodeSourcery/Sourcery_G++_Lite/bin/../lib/gcc/arm-none-eabi/4.5.2/../../../../arm-none-eabi/lib/thumb2/libc.a(lib_a-makebuf.o)
                              /home/reymondo/CodeSourcery/Sourcery_G++_Lite/bin/../lib/gcc/arm-none-eabi/4.5.2/../../../../arm-none-eabi/lib/thumb2/libc.a(lib_a-wsetup.o) (__smakebuf_r)
/home/reymondo/CodeSourcery/Sourcery_G++_Lite/bin/../lib/gcc/arm-none-eabi/4.5.2/../../../../arm-none-eabi/lib/thumb2/libc.a(lib_a-mprec.o)
                              /home/reymondo/CodeSourcery/Sourcery_G++_Lite/bin/../lib/gcc/arm-none-eabi/4.5.2/../../../../arm-none-eabi/lib/thumb2/libc.a(lib_a-dtoa.o) (_Balloc)
/home/reymondo/CodeSourcery/Sourcery_G++_Lite/bin/../lib/gcc/arm-none-eabi/4.5.2/../../../../arm-none-eabi/lib/thumb2/libc.a(lib_a-s_fpclassify.o)
                              /home/reymondo/CodeSourcery/Sourcery_G++_Lite/bin/../lib/gcc/arm-none-eabi/4.5.2/../../../../arm-none-eabi/lib/thumb2/libc.a(lib_a-svfprintf.o) (__fpclassifyd)
/home/reymondo/CodeSourcery/Sourcery_G++_Lite/bin/../lib/gcc/arm-none-eabi/4.5.2/../../../../arm-none-eabi/lib/thumb2/libc.a(lib_a-stdio.o)
                              /home/reymondo/CodeSourcery/Sourcery_G++_Lite/bin/../lib/gcc/arm-none-eabi/4.5.2/../../../../arm-none-eabi/lib/thumb2/libc.a(lib_a-findfp.o) (__sread)
/home/reymondo/CodeSourcery/Sourcery_G++_Lite/bin/../lib/gcc/arm-none-eabi/4.5.2/../../../../arm-none-eabi/lib/thumb2/libc.a(lib_a-svfiprintf.o)
                              /home/reymondo/CodeSourcery/Sourcery_G++_Lite/bin/../lib/gcc/arm-none-eabi/4.5.2/../../../../arm-none-eabi/lib/thumb2/libc.a(lib_a-svfprintf.o) (__ssprint_r)
/home/reymondo/CodeSourcery/Sourcery_G++_Lite/bin/../lib/gcc/arm-none-eabi/4.5.2/../../../../arm-none-eabi/lib/thumb2/libc.a(lib_a-callocr.o)
                              /home/reymondo/CodeSourcery/Sourcery_G++_Lite/bin/../lib/gcc/arm-none-eabi/4.5.2/../../../../arm-none-eabi/lib/thumb2/libc.a(lib_a-mprec.o) (_calloc_r)
/home/reymondo/CodeSourcery/Sourcery_G++_Lite/bin/../lib/gcc/arm-none-eabi/4.5.2/../../../../arm-none-eabi/lib/thumb2/libc.a(lib_a-fclose.o)
                              /home/reymondo/CodeSourcery/Sourcery_G++_Lite/bin/../lib/gcc/arm-none-eabi/4.5.2/../../../../arm-none-eabi/lib/thumb2/libc.a(lib_a-findfp.o) (fclose)
/home/reymondo/CodeSourcery/Sourcery_G++_Lite/bin/../lib/gcc/arm-none-eabi/4.5.2/thumb2/libgcc.a(_udivsi3.o)
                              /home/reymondo/CodeSourcery/Sourcery_G++_Lite/bin/../lib/gcc/arm-none-eabi/4.5.2/../../../../arm-none-eabi/lib/thumb2/libc.a(lib_a-fwrite.o) (__aeabi_uidiv)
/home/reymondo/CodeSourcery/Sourcery_G++_Lite/bin/../lib/gcc/arm-none-eabi/4.5.2/thumb2/libgcc.a(_dvmd_tls.o)
                              /home/reymondo/CodeSourcery/Sourcery_G++_Lite/bin/../lib/gcc/arm-none-eabi/4.5.2/thumb2/libgcc.a(_udivsi3.o) (__aeabi_idiv0)
/home/reymondo/CodeSourcery/Sourcery_G++_Lite/bin/../lib/gcc/arm-none-eabi/4.5.2/thumb2/libgcc.a(_arm_addsubdf3.o)
                              /home/reymondo/CodeSourcery/Sourcery_G++_Lite/bin/../lib/gcc/arm-none-eabi/4.5.2/../../../../arm-none-eabi/lib/thumb2/libc.a(lib_a-dtoa.o) (__aeabi_dsub)
/home/reymondo/CodeSourcery/Sourcery_G++_Lite/bin/../lib/gcc/arm-none-eabi/4.5.2/thumb2/libgcc.a(_arm_muldivdf3.o)
                              /home/reymondo/CodeSourcery/Sourcery_G++_Lite/bin/../lib/gcc/arm-none-eabi/4.5.2/../../../../arm-none-eabi/lib/thumb2/libc.a(lib_a-dtoa.o) (__aeabi_dmul)
/home/reymondo/CodeSourcery/Sourcery_G++_Lite/bin/../lib/gcc/arm-none-eabi/4.5.2/thumb2/libgcc.a(_arm_cmpdf2.o)
                              /home/reymondo/CodeSourcery/Sourcery_G++_Lite/bin/../lib/gcc/arm-none-eabi/4.5.2/../../../../arm-none-eabi/lib/thumb2/libc.a(lib_a-svfprintf.o) (__aeabi_dcmpeq)
/home/reymondo/CodeSourcery/Sourcery_G++_Lite/bin/../lib/gcc/arm-none-eabi/4.5.2/thumb2/libgcc.a(_arm_fixdfsi.o)
                              /home/reymondo/CodeSourcery/Sourcery_G++_Lite/bin/../lib/gcc/arm-none-eabi/4.5.2/../../../../arm-none-eabi/lib/thumb2/libc.a(lib_a-dtoa.o) (__aeabi_d2iz)
/home/reymondo/CodeSourcery/Sourcery_G++_Lite/bin/../lib/gcc/arm-none-eabi/4.5.2/thumb2/libgcc.a(_aeabi_uldivmod.o)
                              /home/reymondo/CodeSourcery/Sourcery_G++_Lite/bin/../lib/gcc/arm-none-eabi/4.5.2/../../../../arm-none-eabi/lib/thumb2/libc.a(lib_a-svfprintf.o) (__aeabi_uldivmod)
/home/reymondo/CodeSourcery/Sourcery_G++_Lite/bin/../lib/gcc/arm-none-eabi/4.5.2/thumb2/libgcc.a(bpabi.o)
                              /home/reymondo/CodeSourcery/Sourcery_G++_Lite/bin/../lib/gcc/arm-none-eabi/4.5.2/thumb2/libgcc.a(_aeabi_uldivmod.o) (__gnu_uldivmod_helper)
/home/reymondo/CodeSourcery/Sourcery_G++_Lite/bin/../lib/gcc/arm-none-eabi/4.5.2/thumb2/libgcc.a(_divdi3.o)
                              /home/reymondo/CodeSourcery/Sourcery_G++_Lite/bin/../lib/gcc/arm-none-eabi/4.5.2/thumb2/libgcc.a(bpabi.o) (__divdi3)
/home/reymondo/CodeSourcery/Sourcery_G++_Lite/bin/../lib/gcc/arm-none-eabi/4.5.2/thumb2/libgcc.a(_udivdi3.o)
                              /home/reymondo/CodeSourcery/Sourcery_G++_Lite/bin/../lib/gcc/arm-none-eabi/4.5.2/thumb2/libgcc.a(bpabi.o) (__udivdi3)

Allocating common symbols
Common symbol       size              file

j                   0x4               out/stm32f10x_it.o
errno               0x4               /home/reymondo/CodeSourcery/Sourcery_G++_Lite/bin/../lib/gcc/arm-none-eabi/4.5.2/../../../../arm-none-eabi/lib/thumb2/libc.a(lib_a-reent.o)
i                   0x4               out/stm32f10x_it.o

Discarded input sections

 .text          0x00000000        0x0 /home/reymondo/CodeSourcery/Sourcery_G++_Lite/bin/../lib/gcc/arm-none-eabi/4.5.2/thumb2/crti.o
 .data          0x00000000        0x0 /home/reymondo/CodeSourcery/Sourcery_G++_Lite/bin/../lib/gcc/arm-none-eabi/4.5.2/thumb2/crti.o
 .bss           0x00000000        0x0 /home/reymondo/CodeSourcery/Sourcery_G++_Lite/bin/../lib/gcc/arm-none-eabi/4.5.2/thumb2/crti.o
 .init          0x00000000        0x4 /home/reymondo/CodeSourcery/Sourcery_G++_Lite/bin/../lib/gcc/arm-none-eabi/4.5.2/thumb2/crti.o
 .fini          0x00000000        0x4 /home/reymondo/CodeSourcery/Sourcery_G++_Lite/bin/../lib/gcc/arm-none-eabi/4.5.2/thumb2/crti.o
 .text          0x00000000       0x30 /home/reymondo/CodeSourcery/Sourcery_G++_Lite/bin/../lib/gcc/arm-none-eabi/4.5.2/thumb2/crtbegin.o
 .data          0x00000000        0x4 /home/reymondo/CodeSourcery/Sourcery_G++_Lite/bin/../lib/gcc/arm-none-eabi/4.5.2/thumb2/crtbegin.o
 .bss           0x00000000        0x1 /home/reymondo/CodeSourcery/Sourcery_G++_Lite/bin/../lib/gcc/arm-none-eabi/4.5.2/thumb2/crtbegin.o
 .init_array    0x00000000        0x4 /home/reymondo/CodeSourcery/Sourcery_G++_Lite/bin/../lib/gcc/arm-none-eabi/4.5.2/thumb2/crtbegin.o
 .fini_array    0x00000000        0x4 /home/reymondo/CodeSourcery/Sourcery_G++_Lite/bin/../lib/gcc/arm-none-eabi/4.5.2/thumb2/crtbegin.o
 .jcr           0x00000000        0x0 /home/reymondo/CodeSourcery/Sourcery_G++_Lite/bin/../lib/gcc/arm-none-eabi/4.5.2/thumb2/crtbegin.o
 .text          0x00000000       0x14 out/startup_stm32f10x_cl.o
 .data          0x00000000        0x0 out/startup_stm32f10x_cl.o
 .bss           0x00000000        0x0 out/startup_stm32f10x_cl.o
 .text          0x00000000        0x0 out/stm32f10x_it.o
 .data          0x00000000        0x0 out/stm32f10x_it.o
 .bss           0x00000000        0x0 out/stm32f10x_it.o
 .data.del_count
                0x00000000        0x4 out/stm32f10x_it.o
 .bss.SysTickCnt
                0x00000000        0x4 out/stm32f10x_it.o
 .bss.Tim2Cnt   0x00000000        0x4 out/stm32f10x_it.o
 COMMON         0x00000000        0x8 out/stm32f10x_it.o
 .text          0x00000000        0x0 out/syscalls.o
 .data          0x00000000        0x0 out/syscalls.o
 .bss           0x00000000        0x0 out/syscalls.o
 .bss.environ_initial
                0x00000000        0x4 out/syscalls.o
 .data.environ  0x00000000        0x4 out/syscalls.o
 .text._execve_r
                0x00000000       0x2c out/syscalls.o
 .text._fork_r  0x00000000       0x24 out/syscalls.o
 .text._link_r  0x00000000       0x28 out/syscalls.o
 .text._open_r  0x00000000       0x20 out/syscalls.o
 .text._stat_r  0x00000000       0x24 out/syscalls.o
 .text._times_r
                0x00000000       0x1c out/syscalls.o
 .text._unlink_r
                0x00000000       0x28 out/syscalls.o
 .text._wait_r  0x00000000       0x28 out/syscalls.o
 .text          0x00000000        0x0 out/vectors.o
 .data          0x00000000        0x0 out/vectors.o
 .bss           0x00000000        0x0 out/vectors.o
 .text.__Default_Handler
                0x00000000       0x10 out/vectors.o
 .vectors       0x00000000      0x130 out/vectors.o
 .text          0x00000000        0x0 out/core_cm3.o
 .data          0x00000000        0x0 out/core_cm3.o
 .bss           0x00000000        0x0 out/core_cm3.o
 .text.__get_PSP
                0x00000000       0x10 out/core_cm3.o
 .text.__set_PSP
                0x00000000        0x8 out/core_cm3.o
 .text.__get_MSP
                0x00000000       0x10 out/core_cm3.o
 .text.__set_MSP
                0x00000000        0x8 out/core_cm3.o
 .text.__get_BASEPRI
                0x00000000       0x20 out/core_cm3.o
 .text.__set_BASEPRI
                0x00000000       0x18 out/core_cm3.o
 .text.__get_PRIMASK
                0x00000000       0x20 out/core_cm3.o
 .text.__set_PRIMASK
                0x00000000       0x18 out/core_cm3.o
 .text.__get_FAULTMASK
                0x00000000       0x20 out/core_cm3.o
 .text.__set_FAULTMASK
                0x00000000       0x18 out/core_cm3.o
 .text.__get_CONTROL
                0x00000000       0x20 out/core_cm3.o
 .text.__set_CONTROL
                0x00000000       0x18 out/core_cm3.o
 .text.__REV    0x00000000       0x24 out/core_cm3.o
 .text.__REV16  0x00000000       0x24 out/core_cm3.o
 .text.__REVSH  0x00000000       0x24 out/core_cm3.o
 .text.__RBIT   0x00000000       0x24 out/core_cm3.o
 .text.__LDREXB
                0x00000000       0x24 out/core_cm3.o
 .text.__LDREXH
                0x00000000       0x24 out/core_cm3.o
 .text.__LDREXW
                0x00000000       0x24 out/core_cm3.o
 .text.__STREXB
                0x00000000       0x2c out/core_cm3.o
 .text.__STREXH
                0x00000000       0x2c out/core_cm3.o
 .text.__STREXW
                0x00000000       0x28 out/core_cm3.o
 .text          0x00000000        0x0 out/system_stm32f10x.o
 .data          0x00000000        0x0 out/system_stm32f10x.o
 .bss           0x00000000        0x0 out/system_stm32f10x.o
 .data.SystemCoreClock
                0x00000000        0x4 out/system_stm32f10x.o
 .data.AHBPrescTable
                0x00000000       0x10 out/system_stm32f10x.o
 .text.SystemCoreClockUpdate
                0x00000000      0x160 out/system_stm32f10x.o
 .text          0x00000000        0x0 out/misc.o
 .data          0x00000000        0x0 out/misc.o
 .bss           0x00000000        0x0 out/misc.o
 .text.NVIC_PriorityGroupConfig
                0x00000000       0x24 out/misc.o
 .text.NVIC_SetVectorTable
                0x00000000       0x2c out/misc.o
 .text.NVIC_SystemLPConfig
                0x00000000       0x44 out/misc.o
 .text.SysTick_CLKSourceConfig
                0x00000000       0x38 out/misc.o
 .text          0x00000000        0x0 out/stm32f10x_adc.o
 .data          0x00000000        0x0 out/stm32f10x_adc.o
 .bss           0x00000000        0x0 out/stm32f10x_adc.o
 .text.ADC_DeInit
                0x00000000       0x80 out/stm32f10x_adc.o
 .text.ADC_Init
                0x00000000       0xbc out/stm32f10x_adc.o
 .text.ADC_StructInit
                0x00000000       0x44 out/stm32f10x_adc.o
 .text.ADC_Cmd  0x00000000       0x38 out/stm32f10x_adc.o
 .text.ADC_DMACmd
                0x00000000       0x38 out/stm32f10x_adc.o
 .text.ADC_ITConfig
                0x00000000       0x48 out/stm32f10x_adc.o
 .text.ADC_ResetCalibration
                0x00000000       0x20 out/stm32f10x_adc.o
 .text.ADC_GetResetCalibrationStatus
                0x00000000       0x38 out/stm32f10x_adc.o
 .text.ADC_StartCalibration
                0x00000000       0x20 out/stm32f10x_adc.o
 .text.ADC_GetCalibrationStatus
                0x00000000       0x38 out/stm32f10x_adc.o
 .text.ADC_SoftwareStartConvCmd
                0x00000000       0x38 out/stm32f10x_adc.o
 .text.ADC_GetSoftwareStartConvStatus
                0x00000000       0x38 out/stm32f10x_adc.o
 .text.ADC_DiscModeChannelCountConfig
                0x00000000       0x4c out/stm32f10x_adc.o
 .text.ADC_DiscModeCmd
                0x00000000       0x38 out/stm32f10x_adc.o
 .text.ADC_RegularChannelConfig
                0x00000000      0x1d0 out/stm32f10x_adc.o
 .text.ADC_ExternalTrigConvCmd
                0x00000000       0x38 out/stm32f10x_adc.o
 .text.ADC_GetConversionValue
                0x00000000       0x1c out/stm32f10x_adc.o
 .text.ADC_GetDualModeConversionValue
                0x00000000       0x14 out/stm32f10x_adc.o
 .text.ADC_AutoInjectedConvCmd
                0x00000000       0x38 out/stm32f10x_adc.o
 .text.ADC_InjectedDiscModeCmd
                0x00000000       0x38 out/stm32f10x_adc.o
 .text.ADC_ExternalTrigInjectedConvConfig
                0x00000000       0x38 out/stm32f10x_adc.o
 .text.ADC_ExternalTrigInjectedConvCmd
                0x00000000       0x38 out/stm32f10x_adc.o
 .text.ADC_SoftwareStartInjectedConvCmd
                0x00000000       0x38 out/stm32f10x_adc.o
 .text.ADC_GetSoftwareStartInjectedConvCmdStatus
                0x00000000       0x38 out/stm32f10x_adc.o
 .text.ADC_InjectedChannelConfig
                0x00000000      0x150 out/stm32f10x_adc.o
 .text.ADC_InjectedSequencerLengthConfig
                0x00000000       0x4c out/stm32f10x_adc.o
 .text.ADC_SetInjectedOffset
                0x00000000       0x34 out/stm32f10x_adc.o
 .text.ADC_GetInjectedConversionValue
                0x00000000       0x34 out/stm32f10x_adc.o
 .text.ADC_AnalogWatchdogCmd
                0x00000000       0x3c out/stm32f10x_adc.o
 .text.ADC_AnalogWatchdogThresholdsConfig
                0x00000000       0x28 out/stm32f10x_adc.o
 .text.ADC_AnalogWatchdogSingleChannelConfig
                0x00000000       0x3c out/stm32f10x_adc.o
 .text.ADC_TempSensorVrefintCmd
                0x00000000       0x38 out/stm32f10x_adc.o
 .text.ADC_GetFlagStatus
                0x00000000       0x3c out/stm32f10x_adc.o
 .text.ADC_ClearFlag
                0x00000000       0x20 out/stm32f10x_adc.o
 .text.ADC_GetITStatus
                0x00000000       0x68 out/stm32f10x_adc.o
 .text.ADC_ClearITPendingBit
                0x00000000       0x30 out/stm32f10x_adc.o
 .text          0x00000000        0x0 out/stm32f10x_bkp.o
 .data          0x00000000        0x0 out/stm32f10x_bkp.o
 .bss           0x00000000        0x0 out/stm32f10x_bkp.o
 .text.BKP_DeInit
                0x00000000       0x18 out/stm32f10x_bkp.o
 .text.BKP_TamperPinLevelConfig
                0x00000000       0x20 out/stm32f10x_bkp.o
 .text.BKP_TamperPinCmd
                0x00000000       0x20 out/stm32f10x_bkp.o
 .text.BKP_ITConfig
                0x00000000       0x20 out/stm32f10x_bkp.o
 .text.BKP_RTCOutputConfig
                0x00000000       0x3c out/stm32f10x_bkp.o
 .text.BKP_SetRTCCalibrationValue
                0x00000000       0x40 out/stm32f10x_bkp.o
 .text.BKP_WriteBackupRegister
                0x00000000       0x34 out/stm32f10x_bkp.o
 .text.BKP_ReadBackupRegister
                0x00000000       0x34 out/stm32f10x_bkp.o
 .text.BKP_GetFlagStatus
                0x00000000       0x18 out/stm32f10x_bkp.o
 .text.BKP_ClearFlag
                0x00000000       0x20 out/stm32f10x_bkp.o
 .text.BKP_GetITStatus
                0x00000000       0x18 out/stm32f10x_bkp.o
 .text.BKP_ClearITPendingBit
                0x00000000       0x20 out/stm32f10x_bkp.o
 .text          0x00000000        0x0 out/stm32f10x_can.o
 .data          0x00000000        0x0 out/stm32f10x_can.o
 .bss           0x00000000        0x0 out/stm32f10x_can.o
 .text.CAN_DeInit
                0x00000000       0x50 out/stm32f10x_can.o
 .text.CAN_Init
                0x00000000      0x1c0 out/stm32f10x_can.o
 .text.CAN_FilterInit
                0x00000000      0x19c out/stm32f10x_can.o
 .text.CAN_StructInit
                0x00000000       0x6c out/stm32f10x_can.o
 .text.CAN_SlaveStartBank
                0x00000000       0x64 out/stm32f10x_can.o
 .text.CAN_DBGFreeze
                0x00000000       0x38 out/stm32f10x_can.o
 .text.CAN_TTComModeCmd
                0x00000000       0x98 out/stm32f10x_can.o
 .text.CAN_Transmit
                0x00000000      0x1ec out/stm32f10x_can.o
 .text.CAN_TransmitStatus
                0x00000000       0xf0 out/stm32f10x_can.o
 .text.CAN_CancelTransmit
                0x00000000       0x54 out/stm32f10x_can.o
 .text.CAN_Receive
                0x00000000      0x1a8 out/stm32f10x_can.o
 .text.CAN_FIFORelease
                0x00000000       0x38 out/stm32f10x_can.o
 .text.CAN_MessagePending
                0x00000000       0x50 out/stm32f10x_can.o
 .text.CAN_OperatingModeRequest
                0x00000000      0x114 out/stm32f10x_can.o
 .text.CAN_Sleep
                0x00000000       0x40 out/stm32f10x_can.o
 .text.CAN_WakeUp
                0x00000000       0x5c out/stm32f10x_can.o
 .text.CAN_GetLastErrorCode
                0x00000000       0x28 out/stm32f10x_can.o
 .text.CAN_GetReceiveErrorCounter
                0x00000000       0x28 out/stm32f10x_can.o
 .text.CAN_GetLSBTransmitErrorCounter
                0x00000000       0x2c out/stm32f10x_can.o
 .text.CAN_ITConfig
                0x00000000       0x3c out/stm32f10x_can.o
 .text.CAN_GetFlagStatus
                0x00000000      0x104 out/stm32f10x_can.o
 .text.CAN_ClearFlag
                0x00000000       0x78 out/stm32f10x_can.o
 .text.CAN_GetITStatus
                0x00000000      0x1b8 out/stm32f10x_can.o
 .text.CAN_ClearITPendingBit
                0x00000000       0xf8 out/stm32f10x_can.o
 .text.CheckITStatus
                0x00000000       0x38 out/stm32f10x_can.o
 .text          0x00000000        0x0 out/stm32f10x_cec.o
 .data          0x00000000        0x0 out/stm32f10x_cec.o
 .bss           0x00000000        0x0 out/stm32f10x_cec.o
 .text.CEC_DeInit
                0x00000000       0x20 out/stm32f10x_cec.o
 .text.CEC_Init
                0x00000000       0x48 out/stm32f10x_cec.o
 .text.CEC_Cmd  0x00000000       0x38 out/stm32f10x_cec.o
 .text.CEC_ITConfig
                0x00000000       0x20 out/stm32f10x_cec.o
 .text.CEC_OwnAddressConfig
                0x00000000       0x20 out/stm32f10x_cec.o
 .text.CEC_SetPrescaler
                0x00000000       0x20 out/stm32f10x_cec.o
 .text.CEC_SendDataByte
                0x00000000       0x20 out/stm32f10x_cec.o
 .text.CEC_ReceiveDataByte
                0x00000000       0x18 out/stm32f10x_cec.o
 .text.CEC_StartOfMessage
                0x00000000       0x18 out/stm32f10x_cec.o
 .text.CEC_EndOfMessageCmd
                0x00000000       0x20 out/stm32f10x_cec.o
 .text.CEC_GetFlagStatus
                0x00000000       0x7c out/stm32f10x_cec.o
 .text.CEC_ClearFlag
                0x00000000       0x44 out/stm32f10x_cec.o
 .text.CEC_GetITStatus
                0x00000000       0x54 out/stm32f10x_cec.o
 .text.CEC_ClearITPendingBit
                0x00000000       0x44 out/stm32f10x_cec.o
 .text          0x00000000        0x0 out/stm32f10x_crc.o
 .data          0x00000000        0x0 out/stm32f10x_crc.o
 .bss           0x00000000        0x0 out/stm32f10x_crc.o
 .text.CRC_ResetDR
                0x00000000       0x18 out/stm32f10x_crc.o
 .text.CRC_CalcCRC
                0x00000000       0x24 out/stm32f10x_crc.o
 .text.CRC_CalcBlockCRC
                0x00000000       0x4c out/stm32f10x_crc.o
 .text.CRC_GetCRC
                0x00000000       0x14 out/stm32f10x_crc.o
 .text.CRC_SetIDRegister
                0x00000000       0x20 out/stm32f10x_crc.o
 .text.CRC_GetIDRegister
                0x00000000       0x18 out/stm32f10x_crc.o
 .text          0x00000000        0x0 out/stm32f10x_dac.o
 .data          0x00000000        0x0 out/stm32f10x_dac.o
 .bss           0x00000000        0x0 out/stm32f10x_dac.o
 .text.DAC_DeInit
                0x00000000       0x20 out/stm32f10x_dac.o
 .text.DAC_Init
                0x00000000       0x70 out/stm32f10x_dac.o
 .text.DAC_StructInit
                0x00000000       0x34 out/stm32f10x_dac.o
 .text.DAC_Cmd  0x00000000       0x54 out/stm32f10x_dac.o
 .text.DAC_DMACmd
                0x00000000       0x54 out/stm32f10x_dac.o
 .text.DAC_SoftwareTriggerCmd
                0x00000000       0x5c out/stm32f10x_dac.o
 .text.DAC_DualSoftwareTriggerCmd
                0x00000000       0x38 out/stm32f10x_dac.o
 .text.DAC_WaveGenerationCmd
                0x00000000       0x50 out/stm32f10x_dac.o
 .text.DAC_SetChannel1Data
                0x00000000       0x38 out/stm32f10x_dac.o
 .text.DAC_SetChannel2Data
                0x00000000       0x38 out/stm32f10x_dac.o
 .text.DAC_SetDualChannelData
                0x00000000       0x64 out/stm32f10x_dac.o
 .text.DAC_GetDataOutputValue
                0x00000000       0x38 out/stm32f10x_dac.o
 .text          0x00000000        0x0 out/stm32f10x_dbgmcu.o
 .data          0x00000000        0x0 out/stm32f10x_dbgmcu.o
 .bss           0x00000000        0x0 out/stm32f10x_dbgmcu.o
 .text.DBGMCU_GetREVID
                0x00000000       0x18 out/stm32f10x_dbgmcu.o
 .text.DBGMCU_GetDEVID
                0x00000000       0x1c out/stm32f10x_dbgmcu.o
 .text.DBGMCU_Config
                0x00000000       0x44 out/stm32f10x_dbgmcu.o
 .text          0x00000000        0x0 out/stm32f10x_dma.o
 .data          0x00000000        0x0 out/stm32f10x_dma.o
 .bss           0x00000000        0x0 out/stm32f10x_dma.o
 .text.DMA_DeInit
                0x00000000      0x180 out/stm32f10x_dma.o
 .text.DMA_Init
                0x00000000       0x84 out/stm32f10x_dma.o
 .text.DMA_StructInit
                0x00000000       0x6c out/stm32f10x_dma.o
 .text.DMA_Cmd  0x00000000       0x3c out/stm32f10x_dma.o
 .text.DMA_ITConfig
                0x00000000       0x3c out/stm32f10x_dma.o
 .text.DMA_SetCurrDataCounter
                0x00000000       0x1c out/stm32f10x_dma.o
 .text.DMA_GetCurrDataCounter
                0x00000000       0x1c out/stm32f10x_dma.o
 .text.DMA_GetFlagStatus
                0x00000000       0x5c out/stm32f10x_dma.o
 .text.DMA_ClearFlag
                0x00000000       0x34 out/stm32f10x_dma.o
 .text.DMA_GetITStatus
                0x00000000       0x5c out/stm32f10x_dma.o
 .text.DMA_ClearITPendingBit
                0x00000000       0x34 out/stm32f10x_dma.o
 .text          0x00000000        0x0 out/stm32f10x_exti.o
 .data          0x00000000        0x0 out/stm32f10x_exti.o
 .bss           0x00000000        0x0 out/stm32f10x_exti.o
 .text.EXTI_DeInit
                0x00000000       0x38 out/stm32f10x_exti.o
 .text.EXTI_Init
                0x00000000       0xfc out/stm32f10x_exti.o
 .text.EXTI_StructInit
                0x00000000       0x34 out/stm32f10x_exti.o
 .text.EXTI_GenerateSWInterrupt
                0x00000000       0x24 out/stm32f10x_exti.o
 .text.EXTI_GetFlagStatus
                0x00000000       0x3c out/stm32f10x_exti.o
 .text.EXTI_ClearFlag
                0x00000000       0x1c out/stm32f10x_exti.o
 .text.EXTI_GetITStatus
                0x00000000       0x54 out/stm32f10x_exti.o
 .text.EXTI_ClearITPendingBit
                0x00000000       0x1c out/stm32f10x_exti.o
 .text          0x00000000        0x0 out/stm32f10x_flash.o
 .data          0x00000000        0x0 out/stm32f10x_flash.o
 .bss           0x00000000        0x0 out/stm32f10x_flash.o
 .text.FLASH_SetLatency
                0x00000000       0x3c out/stm32f10x_flash.o
 .text.FLASH_HalfCycleAccessCmd
                0x00000000       0x30 out/stm32f10x_flash.o
 .text.FLASH_PrefetchBufferCmd
                0x00000000       0x30 out/stm32f10x_flash.o
 .text.FLASH_Unlock
                0x00000000       0x24 out/stm32f10x_flash.o
 .text.FLASH_UnlockBank1
                0x00000000       0x24 out/stm32f10x_flash.o
 .text.FLASH_Lock
                0x00000000       0x1c out/stm32f10x_flash.o
 .text.FLASH_LockBank1
                0x00000000       0x1c out/stm32f10x_flash.o
 .text.FLASH_ErasePage
                0x00000000       0x6c out/stm32f10x_flash.o
 .text.FLASH_EraseAllPages
                0x00000000       0x64 out/stm32f10x_flash.o
 .text.FLASH_EraseAllBank1Pages
                0x00000000       0x64 out/stm32f10x_flash.o
 .text.FLASH_EraseOptionBytes
                0x00000000       0xe4 out/stm32f10x_flash.o
 .text.FLASH_ProgramWord
                0x00000000       0xa0 out/stm32f10x_flash.o
 .text.FLASH_ProgramHalfWord
                0x00000000       0x64 out/stm32f10x_flash.o
 .text.FLASH_ProgramOptionByteData
                0x00000000       0x80 out/stm32f10x_flash.o
 .text.FLASH_EnableWriteProtection
                0x00000000      0x128 out/stm32f10x_flash.o
 .text.FLASH_ReadOutProtection
                0x00000000       0xe4 out/stm32f10x_flash.o
 .text.FLASH_UserOptionByteConfig
                0x00000000       0x9c out/stm32f10x_flash.o
 .text.FLASH_GetUserOptionByte
                0x00000000       0x18 out/stm32f10x_flash.o
 .text.FLASH_GetWriteProtectionOptionByte
                0x00000000       0x14 out/stm32f10x_flash.o
 .text.FLASH_GetReadOutProtectionStatus
                0x00000000       0x38 out/stm32f10x_flash.o
 .text.FLASH_GetPrefetchBufferStatus
                0x00000000       0x38 out/stm32f10x_flash.o
 .text.FLASH_ITConfig
                0x00000000       0x44 out/stm32f10x_flash.o
 .text.FLASH_GetFlagStatus
                0x00000000       0x60 out/stm32f10x_flash.o
 .text.FLASH_ClearFlag
                0x00000000       0x1c out/stm32f10x_flash.o
 .text.FLASH_GetStatus
                0x00000000       0x64 out/stm32f10x_flash.o
 .text.FLASH_GetBank1Status
                0x00000000       0x64 out/stm32f10x_flash.o
 .text.FLASH_WaitForLastOperation
                0x00000000       0x4c out/stm32f10x_flash.o
 .text.FLASH_WaitForLastBank1Operation
                0x00000000       0x4c out/stm32f10x_flash.o
 .text          0x00000000        0x0 out/stm32f10x_fsmc.o
 .data          0x00000000        0x0 out/stm32f10x_fsmc.o
 .bss           0x00000000        0x0 out/stm32f10x_fsmc.o
 .text.FSMC_NORSRAMDeInit
                0x00000000       0x58 out/stm32f10x_fsmc.o
 .text.FSMC_NANDDeInit
                0x00000000       0x64 out/stm32f10x_fsmc.o
 .text.FSMC_PCCARDDeInit
                0x00000000       0x38 out/stm32f10x_fsmc.o
 .text.FSMC_NORSRAMInit
                0x00000000      0x150 out/stm32f10x_fsmc.o
 .text.FSMC_NANDInit
                0x00000000       0xe8 out/stm32f10x_fsmc.o
 .text.FSMC_PCCARDInit
                0x00000000       0xc8 out/stm32f10x_fsmc.o
 .text.FSMC_NORSRAMStructInit
                0x00000000      0x108 out/stm32f10x_fsmc.o
 .text.FSMC_NANDStructInit
                0x00000000       0x9c out/stm32f10x_fsmc.o
 .text.FSMC_PCCARDStructInit
                0x00000000       0xa4 out/stm32f10x_fsmc.o
 .text.FSMC_NORSRAMCmd
                0x00000000       0x54 out/stm32f10x_fsmc.o
 .text.FSMC_NANDCmd
                0x00000000       0x70 out/stm32f10x_fsmc.o
 .text.FSMC_PCCARDCmd
                0x00000000       0x40 out/stm32f10x_fsmc.o
 .text.FSMC_NANDECCCmd
                0x00000000       0x70 out/stm32f10x_fsmc.o
 .text.FSMC_GetECC
                0x00000000       0x38 out/stm32f10x_fsmc.o
 .text.FSMC_ITConfig
                0x00000000       0xb0 out/stm32f10x_fsmc.o
 .text.FSMC_GetFlagStatus
                0x00000000       0x70 out/stm32f10x_fsmc.o
 .text.FSMC_ClearFlag
                0x00000000       0x68 out/stm32f10x_fsmc.o
 .text.FSMC_GetITStatus
                0x00000000       0x94 out/stm32f10x_fsmc.o
 .text.FSMC_ClearITPendingBit
                0x00000000       0x74 out/stm32f10x_fsmc.o
 .text          0x00000000        0x0 out/stm32f10x_gpio.o
 .data          0x00000000        0x0 out/stm32f10x_gpio.o
 .bss           0x00000000        0x0 out/stm32f10x_gpio.o
 .text.GPIO_DeInit
                0x00000000      0x118 out/stm32f10x_gpio.o
 .text.GPIO_AFIODeInit
                0x00000000       0x20 out/stm32f10x_gpio.o
 .text.GPIO_StructInit
                0x00000000       0x2c out/stm32f10x_gpio.o
 .text.GPIO_ReadInputDataBit
                0x00000000       0x3c out/stm32f10x_gpio.o
 .text.GPIO_ReadInputData
                0x00000000       0x1c out/stm32f10x_gpio.o
 .text.GPIO_ReadOutputDataBit
                0x00000000       0x3c out/stm32f10x_gpio.o
 .text.GPIO_ReadOutputData
                0x00000000       0x1c out/stm32f10x_gpio.o
 .text.GPIO_SetBits
                0x00000000       0x1c out/stm32f10x_gpio.o
 .text.GPIO_ResetBits
                0x00000000       0x1c out/stm32f10x_gpio.o
 .text.GPIO_WriteBit
                0x00000000       0x30 out/stm32f10x_gpio.o
 .text.GPIO_Write
                0x00000000       0x1c out/stm32f10x_gpio.o
 .text.GPIO_PinLockConfig
                0x00000000       0x44 out/stm32f10x_gpio.o
 .text.GPIO_EventOutputConfig
                0x00000000       0x54 out/stm32f10x_gpio.o
 .text.GPIO_EventOutputCmd
                0x00000000       0x20 out/stm32f10x_gpio.o
 .text.GPIO_EXTILineConfig
                0x00000000       0x9c out/stm32f10x_gpio.o
 .text.GPIO_ETH_MediaInterfaceConfig
                0x00000000       0x1c out/stm32f10x_gpio.o
 .text          0x00000000        0x0 out/stm32f10x_i2c.o
 .data          0x00000000        0x0 out/stm32f10x_i2c.o
 .bss           0x00000000        0x0 out/stm32f10x_i2c.o
 .text.I2C_DeInit
                0x00000000       0x50 out/stm32f10x_i2c.o
 .text.I2C_Init
                0x00000000      0x1b0 out/stm32f10x_i2c.o
 .text.I2C_StructInit
                0x00000000       0x44 out/stm32f10x_i2c.o
 .text.I2C_Cmd  0x00000000       0x40 out/stm32f10x_i2c.o
 .text.I2C_DMACmd
                0x00000000       0x40 out/stm32f10x_i2c.o
 .text.I2C_DMALastTransferCmd
                0x00000000       0x40 out/stm32f10x_i2c.o
 .text.I2C_GenerateSTART
                0x00000000       0x40 out/stm32f10x_i2c.o
 .text.I2C_GenerateSTOP
                0x00000000       0x40 out/stm32f10x_i2c.o
 .text.I2C_AcknowledgeConfig
                0x00000000       0x40 out/stm32f10x_i2c.o
 .text.I2C_OwnAddress2Config
                0x00000000       0x44 out/stm32f10x_i2c.o
 .text.I2C_DualAddressCmd
                0x00000000       0x40 out/stm32f10x_i2c.o
 .text.I2C_GeneralCallCmd
                0x00000000       0x40 out/stm32f10x_i2c.o
 .text.I2C_ITConfig
                0x00000000       0x4c out/stm32f10x_i2c.o
 .text.I2C_SendData
                0x00000000       0x20 out/stm32f10x_i2c.o
 .text.I2C_ReceiveData
                0x00000000       0x1c out/stm32f10x_i2c.o
 .text.I2C_Send7bitAddress
                0x00000000       0x3c out/stm32f10x_i2c.o
 .text.I2C_ReadRegister
                0x00000000       0x30 out/stm32f10x_i2c.o
 .text.I2C_SoftwareResetCmd
                0x00000000       0x48 out/stm32f10x_i2c.o
 .text.I2C_NACKPositionConfig
                0x00000000       0x40 out/stm32f10x_i2c.o
 .text.I2C_SMBusAlertConfig
                0x00000000       0x40 out/stm32f10x_i2c.o
 .text.I2C_TransmitPEC
                0x00000000       0x40 out/stm32f10x_i2c.o
 .text.I2C_PECPositionConfig
                0x00000000       0x40 out/stm32f10x_i2c.o
 .text.I2C_CalculatePEC
                0x00000000       0x40 out/stm32f10x_i2c.o
 .text.I2C_GetPEC
                0x00000000       0x24 out/stm32f10x_i2c.o
 .text.I2C_ARPCmd
                0x00000000       0x40 out/stm32f10x_i2c.o
 .text.I2C_StretchClockCmd
                0x00000000       0x40 out/stm32f10x_i2c.o
 .text.I2C_FastModeDutyCycleConfig
                0x00000000       0x40 out/stm32f10x_i2c.o
 .text.I2C_CheckEvent
                0x00000000       0x70 out/stm32f10x_i2c.o
 .text.I2C_GetLastEvent
                0x00000000       0x50 out/stm32f10x_i2c.o
 .text.I2C_GetFlagStatus
                0x00000000       0x7c out/stm32f10x_i2c.o
 .text.I2C_ClearFlag
                0x00000000       0x30 out/stm32f10x_i2c.o
 .text.I2C_GetITStatus
                0x00000000       0x68 out/stm32f10x_i2c.o
 .text.I2C_ClearITPendingBit
                0x00000000       0x30 out/stm32f10x_i2c.o
 .text          0x00000000        0x0 out/stm32f10x_iwdg.o
 .data          0x00000000        0x0 out/stm32f10x_iwdg.o
 .bss           0x00000000        0x0 out/stm32f10x_iwdg.o
 .text.IWDG_WriteAccessCmd
                0x00000000       0x20 out/stm32f10x_iwdg.o
 .text.IWDG_SetPrescaler
                0x00000000       0x20 out/stm32f10x_iwdg.o
 .text.IWDG_SetReload
                0x00000000       0x20 out/stm32f10x_iwdg.o
 .text.IWDG_ReloadCounter
                0x00000000       0x18 out/stm32f10x_iwdg.o
 .text.IWDG_Enable
                0x00000000       0x18 out/stm32f10x_iwdg.o
 .text.IWDG_GetFlagStatus
                0x00000000       0x40 out/stm32f10x_iwdg.o
 .text          0x00000000        0x0 out/stm32f10x_pwr.o
 .data          0x00000000        0x0 out/stm32f10x_pwr.o
 .bss           0x00000000        0x0 out/stm32f10x_pwr.o
 .text.__WFI    0x00000000        0xc out/stm32f10x_pwr.o
 .text.__WFE    0x00000000        0xc out/stm32f10x_pwr.o
 .text.PWR_DeInit
                0x00000000       0x20 out/stm32f10x_pwr.o
 .text.PWR_BackupAccessCmd
                0x00000000       0x20 out/stm32f10x_pwr.o
 .text.PWR_PVDCmd
                0x00000000       0x20 out/stm32f10x_pwr.o
 .text.PWR_PVDLevelConfig
                0x00000000       0x3c out/stm32f10x_pwr.o
 .text.PWR_WakeUpPinCmd
                0x00000000       0x20 out/stm32f10x_pwr.o
 .text.PWR_EnterSTOPMode
                0x00000000       0x68 out/stm32f10x_pwr.o
 .text.PWR_EnterSTANDBYMode
                0x00000000       0x38 out/stm32f10x_pwr.o
 .text.PWR_GetFlagStatus
                0x00000000       0x3c out/stm32f10x_pwr.o
 .text.PWR_ClearFlag
                0x00000000       0x28 out/stm32f10x_pwr.o
 .text          0x00000000        0x0 out/stm32f10x_rcc.o
 .data          0x00000000        0x0 out/stm32f10x_rcc.o
 .bss           0x00000000        0x0 out/stm32f10x_rcc.o
 .text.RCC_DeInit
                0x00000000       0x70 out/stm32f10x_rcc.o
 .text.RCC_HSEConfig
                0x00000000       0x5c out/stm32f10x_rcc.o
 .text.RCC_WaitForHSEStartUp
                0x00000000       0x64 out/stm32f10x_rcc.o
 .text.RCC_AdjustHSICalibrationValue
                0x00000000       0x40 out/stm32f10x_rcc.o
 .text.RCC_HSICmd
                0x00000000       0x20 out/stm32f10x_rcc.o
 .text.RCC_PLLConfig
                0x00000000       0x44 out/stm32f10x_rcc.o
 .text.RCC_PLLCmd
                0x00000000       0x20 out/stm32f10x_rcc.o
 .text.RCC_PREDIV1Config
                0x00000000       0x48 out/stm32f10x_rcc.o
 .text.RCC_PREDIV2Config
                0x00000000       0x3c out/stm32f10x_rcc.o
 .text.RCC_PLL2Config
                0x00000000       0x3c out/stm32f10x_rcc.o
 .text.RCC_PLL2Cmd
                0x00000000       0x20 out/stm32f10x_rcc.o
 .text.RCC_PLL3Config
                0x00000000       0x3c out/stm32f10x_rcc.o
 .text.RCC_PLL3Cmd
                0x00000000       0x20 out/stm32f10x_rcc.o
 .text.RCC_SYSCLKConfig
                0x00000000       0x3c out/stm32f10x_rcc.o
 .text.RCC_GetSYSCLKSource
                0x00000000       0x1c out/stm32f10x_rcc.o
 .text.RCC_HCLKConfig
                0x00000000       0x3c out/stm32f10x_rcc.o
 .text.RCC_PCLK1Config
                0x00000000       0x3c out/stm32f10x_rcc.o
 .text.RCC_PCLK2Config
                0x00000000       0x40 out/stm32f10x_rcc.o
 .text.RCC_ITConfig
                0x00000000       0x50 out/stm32f10x_rcc.o
 .text.RCC_OTGFSCLKConfig
                0x00000000       0x1c out/stm32f10x_rcc.o
 .text.RCC_ADCCLKConfig
                0x00000000       0x3c out/stm32f10x_rcc.o
 .text.RCC_I2S2CLKConfig
                0x00000000       0x1c out/stm32f10x_rcc.o
 .text.RCC_I2S3CLKConfig
                0x00000000       0x1c out/stm32f10x_rcc.o
 .text.RCC_LSEConfig
                0x00000000       0x48 out/stm32f10x_rcc.o
 .text.RCC_LSICmd
                0x00000000       0x20 out/stm32f10x_rcc.o
 .text.RCC_RTCCLKConfig
                0x00000000       0x24 out/stm32f10x_rcc.o
 .text.RCC_RTCCLKCmd
                0x00000000       0x20 out/stm32f10x_rcc.o
 .text.RCC_AHBPeriphClockCmd
                0x00000000       0x44 out/stm32f10x_rcc.o
 .text.RCC_AHBPeriphResetCmd
                0x00000000       0x44 out/stm32f10x_rcc.o
 .text.RCC_APB2PeriphResetCmd
                0x00000000       0x44 out/stm32f10x_rcc.o
 .text.RCC_APB1PeriphResetCmd
                0x00000000       0x44 out/stm32f10x_rcc.o
 .text.RCC_BackupResetCmd
                0x00000000       0x20 out/stm32f10x_rcc.o
 .text.RCC_ClockSecuritySystemCmd
                0x00000000       0x20 out/stm32f10x_rcc.o
 .text.RCC_MCOConfig
                0x00000000       0x20 out/stm32f10x_rcc.o
 .text.RCC_GetFlagStatus
                0x00000000       0x84 out/stm32f10x_rcc.o
 .text.RCC_ClearFlag
                0x00000000       0x1c out/stm32f10x_rcc.o
 .text.RCC_GetITStatus
                0x00000000       0x40 out/stm32f10x_rcc.o
 .text.RCC_ClearITPendingBit
                0x00000000       0x20 out/stm32f10x_rcc.o
 .text          0x00000000        0x0 out/stm32f10x_rtc.o
 .data          0x00000000        0x0 out/stm32f10x_rtc.o
 .bss           0x00000000        0x0 out/stm32f10x_rtc.o
 .text.RTC_ITConfig
                0x00000000       0x50 out/stm32f10x_rtc.o
 .text.RTC_EnterConfigMode
                0x00000000       0x20 out/stm32f10x_rtc.o
 .text.RTC_ExitConfigMode
                0x00000000       0x20 out/stm32f10x_rtc.o
 .text.RTC_GetCounter
                0x00000000       0x34 out/stm32f10x_rtc.o
 .text.RTC_SetCounter
                0x00000000       0x30 out/stm32f10x_rtc.o
 .text.RTC_SetPrescaler
                0x00000000       0x34 out/stm32f10x_rtc.o
 .text.RTC_SetAlarm
                0x00000000       0x30 out/stm32f10x_rtc.o
 .text.RTC_GetDivider
                0x00000000       0x3c out/stm32f10x_rtc.o
 .text.RTC_WaitForLastTask
                0x00000000       0x20 out/stm32f10x_rtc.o
 .text.RTC_WaitForSynchro
                0x00000000       0x30 out/stm32f10x_rtc.o
 .text.RTC_GetFlagStatus
                0x00000000       0x44 out/stm32f10x_rtc.o
 .text.RTC_ClearFlag
                0x00000000       0x30 out/stm32f10x_rtc.o
 .text.RTC_GetITStatus
                0x00000000       0x5c out/stm32f10x_rtc.o
 .text.RTC_ClearITPendingBit
                0x00000000       0x30 out/stm32f10x_rtc.o
 .text          0x00000000        0x0 out/stm32f10x_sdio.o
 .data          0x00000000        0x0 out/stm32f10x_sdio.o
 .bss           0x00000000        0x0 out/stm32f10x_sdio.o
 .text.SDIO_DeInit
                0x00000000       0x58 out/stm32f10x_sdio.o
 .text.SDIO_Init
                0x00000000       0x64 out/stm32f10x_sdio.o
 .text.SDIO_StructInit
                0x00000000       0x44 out/stm32f10x_sdio.o
 .text.SDIO_ClockCmd
                0x00000000       0x20 out/stm32f10x_sdio.o
 .text.SDIO_SetPowerState
                0x00000000       0x30 out/stm32f10x_sdio.o
 .text.SDIO_GetPowerState
                0x00000000       0x18 out/stm32f10x_sdio.o
 .text.SDIO_ITConfig
                0x00000000       0x44 out/stm32f10x_sdio.o
 .text.SDIO_DMACmd
                0x00000000       0x20 out/stm32f10x_sdio.o
 .text.SDIO_SendCommand
                0x00000000       0x5c out/stm32f10x_sdio.o
 .text.SDIO_CmdStructInit
                0x00000000       0x3c out/stm32f10x_sdio.o
 .text.SDIO_GetCommandResponse
                0x00000000       0x18 out/stm32f10x_sdio.o
 .text.SDIO_GetResponse
                0x00000000       0x2c out/stm32f10x_sdio.o
 .text.SDIO_DataConfig
                0x00000000       0x60 out/stm32f10x_sdio.o
 .text.SDIO_DataStructInit
                0x00000000       0x44 out/stm32f10x_sdio.o
 .text.SDIO_GetDataCounter
                0x00000000       0x14 out/stm32f10x_sdio.o
 .text.SDIO_ReadData
                0x00000000       0x18 out/stm32f10x_sdio.o
 .text.SDIO_WriteData
                0x00000000       0x20 out/stm32f10x_sdio.o
 .text.SDIO_GetFIFOCount
                0x00000000       0x14 out/stm32f10x_sdio.o
 .text.SDIO_StartSDIOReadWait
                0x00000000       0x20 out/stm32f10x_sdio.o
 .text.SDIO_StopSDIOReadWait
                0x00000000       0x20 out/stm32f10x_sdio.o
 .text.SDIO_SetSDIOReadWaitMode
                0x00000000       0x1c out/stm32f10x_sdio.o
 .text.SDIO_SetSDIOOperation
                0x00000000       0x20 out/stm32f10x_sdio.o
 .text.SDIO_SendSDIOSuspendCmd
                0x00000000       0x20 out/stm32f10x_sdio.o
 .text.SDIO_CommandCompletionCmd
                0x00000000       0x20 out/stm32f10x_sdio.o
 .text.SDIO_CEATAITCmd
                0x00000000       0x2c out/stm32f10x_sdio.o
 .text.SDIO_SendCEATACmd
                0x00000000       0x20 out/stm32f10x_sdio.o
 .text.SDIO_GetFlagStatus
                0x00000000       0x3c out/stm32f10x_sdio.o
 .text.SDIO_ClearFlag
                0x00000000       0x1c out/stm32f10x_sdio.o
 .text.SDIO_GetITStatus
                0x00000000       0x3c out/stm32f10x_sdio.o
 .text.SDIO_ClearITPendingBit
                0x00000000       0x1c out/stm32f10x_sdio.o
 .text          0x00000000        0x0 out/stm32f10x_spi.o
 .data          0x00000000        0x0 out/stm32f10x_spi.o
 .bss           0x00000000        0x0 out/stm32f10x_spi.o
 .text.SPI_I2S_DeInit
                0x00000000       0x80 out/stm32f10x_spi.o
 .text.SPI_Init
                0x00000000       0x98 out/stm32f10x_spi.o
 .text.I2S_Init
                0x00000000      0x210 out/stm32f10x_spi.o
 .text.SPI_StructInit
                0x00000000       0x5c out/stm32f10x_spi.o
 .text.I2S_StructInit
                0x00000000       0x44 out/stm32f10x_spi.o
 .text.SPI_Cmd  0x00000000       0x40 out/stm32f10x_spi.o
 .text.I2S_Cmd  0x00000000       0x40 out/stm32f10x_spi.o
 .text.SPI_I2S_ITConfig
                0x00000000       0x70 out/stm32f10x_spi.o
 .text.SPI_I2S_DMACmd
                0x00000000       0x4c out/stm32f10x_spi.o
 .text.SPI_I2S_SendData
                0x00000000       0x1c out/stm32f10x_spi.o
 .text.SPI_I2S_ReceiveData
                0x00000000       0x1c out/stm32f10x_spi.o
 .text.SPI_NSSInternalSoftwareConfig
                0x00000000       0x44 out/stm32f10x_spi.o
 .text.SPI_SSOutputCmd
                0x00000000       0x40 out/stm32f10x_spi.o
 .text.SPI_DataSizeConfig
                0x00000000       0x38 out/stm32f10x_spi.o
 .text.SPI_TransmitCRC
                0x00000000       0x24 out/stm32f10x_spi.o
 .text.SPI_CalculateCRC
                0x00000000       0x40 out/stm32f10x_spi.o
 .text.SPI_GetCRC
                0x00000000       0x34 out/stm32f10x_spi.o
 .text.SPI_GetCRCPolynomial
                0x00000000       0x1c out/stm32f10x_spi.o
 .text.SPI_BiDirectionalLineConfig
                0x00000000       0x40 out/stm32f10x_spi.o
 .text.SPI_I2S_GetFlagStatus
                0x00000000       0x40 out/stm32f10x_spi.o
 .text.SPI_I2S_ClearFlag
                0x00000000       0x24 out/stm32f10x_spi.o
 .text.SPI_I2S_GetITStatus
                0x00000000       0x8c out/stm32f10x_spi.o
 .text.SPI_I2S_ClearITPendingBit
                0x00000000       0x38 out/stm32f10x_spi.o
 .text          0x00000000        0x0 out/stm32f10x_tim.o
 .data          0x00000000        0x0 out/stm32f10x_tim.o
 .bss           0x00000000        0x0 out/stm32f10x_tim.o
 .text.TIM_DeInit
                0x00000000      0x290 out/stm32f10x_tim.o
 .text.TIM_TimeBaseInit
                0x00000000      0x100 out/stm32f10x_tim.o
 .text.TIM_OC1Init
                0x00000000      0x12c out/stm32f10x_tim.o
 .text.TIM_OC2Init
                0x00000000      0x130 out/stm32f10x_tim.o
 .text.TIM_OC3Init
                0x00000000      0x12c out/stm32f10x_tim.o
 .text.TIM_OC4Init
                0x00000000       0xe4 out/stm32f10x_tim.o
 .text.TIM_ICInit
                0x00000000       0xa8 out/stm32f10x_tim.o
 .text.TIM_PWMIConfig
                0x00000000       0xc4 out/stm32f10x_tim.o
 .text.TIM_BDTRConfig
                0x00000000       0x5c out/stm32f10x_tim.o
 .text.TIM_TimeBaseStructInit
                0x00000000       0x3c out/stm32f10x_tim.o
 .text.TIM_OCStructInit
                0x00000000       0x54 out/stm32f10x_tim.o
 .text.TIM_ICStructInit
                0x00000000       0x3c out/stm32f10x_tim.o
 .text.TIM_BDTRStructInit
                0x00000000       0x4c out/stm32f10x_tim.o
 .text.TIM_Cmd  0x00000000       0x40 out/stm32f10x_tim.o
 .text.TIM_CtrlPWMOutputs
                0x00000000       0x50 out/stm32f10x_tim.o
 .text.TIM_ITConfig
                0x00000000       0x4c out/stm32f10x_tim.o
 .text.TIM_GenerateEvent
                0x00000000       0x1c out/stm32f10x_tim.o
 .text.TIM_DMAConfig
                0x00000000       0x2c out/stm32f10x_tim.o
 .text.TIM_DMACmd
                0x00000000       0x4c out/stm32f10x_tim.o
 .text.TIM_InternalClockConfig
                0x00000000       0x24 out/stm32f10x_tim.o
 .text.TIM_ITRxExternalClockConfig
                0x00000000       0x30 out/stm32f10x_tim.o
 .text.TIM_TIxExternalClockConfig
                0x00000000       0x58 out/stm32f10x_tim.o
 .text.TIM_ETRClockMode1Config
                0x00000000       0x54 out/stm32f10x_tim.o
 .text.TIM_ETRClockMode2Config
                0x00000000       0x34 out/stm32f10x_tim.o
 .text.TIM_ETRConfig
                0x00000000       0x54 out/stm32f10x_tim.o
 .text.TIM_PrescalerConfig
                0x00000000       0x28 out/stm32f10x_tim.o
 .text.TIM_CounterModeConfig
                0x00000000       0x3c out/stm32f10x_tim.o
 .text.TIM_SelectInputTrigger
                0x00000000       0x3c out/stm32f10x_tim.o
 .text.TIM_EncoderInterfaceConfig
                0x00000000       0x98 out/stm32f10x_tim.o
 .text.TIM_ForcedOC1Config
                0x00000000       0x3c out/stm32f10x_tim.o
 .text.TIM_ForcedOC2Config
                0x00000000       0x40 out/stm32f10x_tim.o
 .text.TIM_ForcedOC3Config
                0x00000000       0x3c out/stm32f10x_tim.o
 .text.TIM_ForcedOC4Config
                0x00000000       0x40 out/stm32f10x_tim.o
 .text.TIM_ARRPreloadConfig
                0x00000000       0x40 out/stm32f10x_tim.o
 .text.TIM_SelectCOM
                0x00000000       0x40 out/stm32f10x_tim.o
 .text.TIM_SelectCCDMA
                0x00000000       0x40 out/stm32f10x_tim.o
 .text.TIM_CCPreloadControl
                0x00000000       0x40 out/stm32f10x_tim.o
 .text.TIM_OC1PreloadConfig
                0x00000000       0x3c out/stm32f10x_tim.o
 .text.TIM_OC2PreloadConfig
                0x00000000       0x40 out/stm32f10x_tim.o
 .text.TIM_OC3PreloadConfig
                0x00000000       0x3c out/stm32f10x_tim.o
 .text.TIM_OC4PreloadConfig
                0x00000000       0x40 out/stm32f10x_tim.o
 .text.TIM_OC1FastConfig
                0x00000000       0x3c out/stm32f10x_tim.o
 .text.TIM_OC2FastConfig
                0x00000000       0x40 out/stm32f10x_tim.o
 .text.TIM_OC3FastConfig
                0x00000000       0x3c out/stm32f10x_tim.o
 .text.TIM_OC4FastConfig
                0x00000000       0x40 out/stm32f10x_tim.o
 .text.TIM_ClearOC1Ref
                0x00000000       0x3c out/stm32f10x_tim.o
 .text.TIM_ClearOC2Ref
                0x00000000       0x44 out/stm32f10x_tim.o
 .text.TIM_ClearOC3Ref
                0x00000000       0x3c out/stm32f10x_tim.o
 .text.TIM_ClearOC4Ref
                0x00000000       0x44 out/stm32f10x_tim.o
 .text.TIM_OC1PolarityConfig
                0x00000000       0x3c out/stm32f10x_tim.o
 .text.TIM_OC1NPolarityConfig
                0x00000000       0x3c out/stm32f10x_tim.o
 .text.TIM_OC2PolarityConfig
                0x00000000       0x40 out/stm32f10x_tim.o
 .text.TIM_OC2NPolarityConfig
                0x00000000       0x40 out/stm32f10x_tim.o
 .text.TIM_OC3PolarityConfig
                0x00000000       0x40 out/stm32f10x_tim.o
 .text.TIM_OC3NPolarityConfig
                0x00000000       0x40 out/stm32f10x_tim.o
 .text.TIM_OC4PolarityConfig
                0x00000000       0x40 out/stm32f10x_tim.o
 .text.TIM_CCxCmd
                0x00000000       0x60 out/stm32f10x_tim.o
 .text.TIM_CCxNCmd
                0x00000000       0x60 out/stm32f10x_tim.o
 .text.TIM_SelectOCxM
                0x00000000       0xc0 out/stm32f10x_tim.o
 .text.TIM_UpdateDisableConfig
                0x00000000       0x40 out/stm32f10x_tim.o
 .text.TIM_UpdateRequestConfig
                0x00000000       0x40 out/stm32f10x_tim.o
 .text.TIM_SelectHallSensor
                0x00000000       0x40 out/stm32f10x_tim.o
 .text.TIM_SelectOnePulseMode
                0x00000000       0x38 out/stm32f10x_tim.o
 .text.TIM_SelectOutputTrigger
                0x00000000       0x38 out/stm32f10x_tim.o
 .text.TIM_SelectSlaveMode
                0x00000000       0x38 out/stm32f10x_tim.o
 .text.TIM_SelectMasterSlaveMode
                0x00000000       0x38 out/stm32f10x_tim.o
 .text.TIM_SetCounter
                0x00000000       0x1c out/stm32f10x_tim.o
 .text.TIM_SetAutoreload
                0x00000000       0x1c out/stm32f10x_tim.o
 .text.TIM_SetCompare1
                0x00000000       0x1c out/stm32f10x_tim.o
 .text.TIM_SetCompare2
                0x00000000       0x1c out/stm32f10x_tim.o
 .text.TIM_SetCompare3
                0x00000000       0x1c out/stm32f10x_tim.o
 .text.TIM_SetCompare4
                0x00000000       0x20 out/stm32f10x_tim.o
 .text.TIM_SetIC1Prescaler
                0x00000000       0x38 out/stm32f10x_tim.o
 .text.TIM_SetIC2Prescaler
                0x00000000       0x40 out/stm32f10x_tim.o
 .text.TIM_SetIC3Prescaler
                0x00000000       0x38 out/stm32f10x_tim.o
 .text.TIM_SetIC4Prescaler
                0x00000000       0x40 out/stm32f10x_tim.o
 .text.TIM_SetClockDivision
                0x00000000       0x38 out/stm32f10x_tim.o
 .text.TIM_GetCapture1
                0x00000000       0x1c out/stm32f10x_tim.o
 .text.TIM_GetCapture2
                0x00000000       0x1c out/stm32f10x_tim.o
 .text.TIM_GetCapture3
                0x00000000       0x1c out/stm32f10x_tim.o
 .text.TIM_GetCapture4
                0x00000000       0x1c out/stm32f10x_tim.o
 .text.TIM_GetCounter
                0x00000000       0x1c out/stm32f10x_tim.o
 .text.TIM_GetPrescaler
                0x00000000       0x1c out/stm32f10x_tim.o
 .text.TIM_GetFlagStatus
                0x00000000       0x40 out/stm32f10x_tim.o
 .text.TIM_ClearFlag
                0x00000000       0x24 out/stm32f10x_tim.o
 .text.TIM_GetITStatus
                0x00000000       0x64 out/stm32f10x_tim.o
 .text.TIM_ClearITPendingBit
                0x00000000       0x24 out/stm32f10x_tim.o
 .text.TI1_Config
                0x00000000       0xe4 out/stm32f10x_tim.o
 .text.TI2_Config
                0x00000000      0x100 out/stm32f10x_tim.o
 .text.TI3_Config
                0x00000000       0xf0 out/stm32f10x_tim.o
 .text.TI4_Config
                0x00000000      0x108 out/stm32f10x_tim.o
 .text          0x00000000        0x0 out/stm32f10x_usart.o
 .data          0x00000000        0x0 out/stm32f10x_usart.o
 .bss           0x00000000        0x0 out/stm32f10x_usart.o
 .text.USART_DeInit
                0x00000000       0xcc out/stm32f10x_usart.o
 .text.USART_StructInit
                0x00000000       0x44 out/stm32f10x_usart.o
 .text.USART_DMACmd
                0x00000000       0x4c out/stm32f10x_usart.o
 .text.USART_SetAddress
                0x00000000       0x3c out/stm32f10x_usart.o
 .text.USART_WakeUpConfig
                0x00000000       0x38 out/stm32f10x_usart.o
 .text.USART_ReceiverWakeUpCmd
                0x00000000       0x40 out/stm32f10x_usart.o
 .text.USART_LINBreakDetectLengthConfig
                0x00000000       0x38 out/stm32f10x_usart.o
 .text.USART_LINCmd
                0x00000000       0x40 out/stm32f10x_usart.o
 .text.USART_SendBreak
                0x00000000       0x24 out/stm32f10x_usart.o
 .text.USART_SetGuardTime
                0x00000000       0x40 out/stm32f10x_usart.o
 .text.USART_SetPrescaler
                0x00000000       0x3c out/stm32f10x_usart.o
 .text.USART_SmartCardCmd
                0x00000000       0x40 out/stm32f10x_usart.o
 .text.USART_SmartCardNACKCmd
                0x00000000       0x40 out/stm32f10x_usart.o
 .text.USART_HalfDuplexCmd
                0x00000000       0x40 out/stm32f10x_usart.o
 .text.USART_OverSampling8Cmd
                0x00000000       0x48 out/stm32f10x_usart.o
 .text.USART_OneBitMethodCmd
                0x00000000       0x40 out/stm32f10x_usart.o
 .text.USART_IrDAConfig
                0x00000000       0x38 out/stm32f10x_usart.o
 .text.USART_IrDACmd
                0x00000000       0x40 out/stm32f10x_usart.o
 .text.USART_ClearFlag
                0x00000000       0x24 out/stm32f10x_usart.o
 .text.USART_ClearITPendingBit
                0x00000000       0x44 out/stm32f10x_usart.o
 .text          0x00000000        0x0 out/stm32f10x_wwdg.o
 .data          0x00000000        0x0 out/stm32f10x_wwdg.o
 .bss           0x00000000        0x0 out/stm32f10x_wwdg.o
 .text.WWDG_DeInit
                0x00000000       0x20 out/stm32f10x_wwdg.o
 .text.WWDG_SetPrescaler
                0x00000000       0x38 out/stm32f10x_wwdg.o
 .text.WWDG_SetWindowValue
                0x00000000       0x3c out/stm32f10x_wwdg.o
 .text.WWDG_EnableIT
                0x00000000       0x18 out/stm32f10x_wwdg.o
 .text.WWDG_SetCounter
                0x00000000       0x24 out/stm32f10x_wwdg.o
 .text.WWDG_Enable
                0x00000000       0x24 out/stm32f10x_wwdg.o
 .text.WWDG_GetFlagStatus
                0x00000000       0x18 out/stm32f10x_wwdg.o
 .text.WWDG_ClearFlag
                0x00000000       0x18 out/stm32f10x_wwdg.o
 .group         0x00000000        0xc out/main.o
 .group         0x00000000        0x8 out/main.o
 .group         0x00000000        0xc out/main.o
 .group         0x00000000        0x8 out/main.o
 .group         0x00000000        0x8 out/main.o
 .group         0x00000000        0x8 out/main.o
 .group         0x00000000        0xc out/main.o
 .group         0x00000000        0x8 out/main.o
 .group         0x00000000        0x8 out/main.o
 .group         0x00000000        0x8 out/main.o
 .group         0x00000000        0x8 out/main.o
 .group         0x00000000        0x8 out/main.o
 .group         0x00000000        0x8 out/main.o
 .group         0x00000000        0x8 out/main.o
 .group         0x00000000        0x8 out/main.o
 .group         0x00000000        0x8 out/main.o
 .group         0x00000000        0x8 out/main.o
 .group         0x00000000        0x8 out/main.o
 .group         0x00000000        0x8 out/main.o
 .group         0x00000000        0x8 out/main.o
 .group         0x00000000        0x8 out/main.o
 .text          0x00000000        0x0 out/main.o
 .data          0x00000000        0x0 out/main.o
 .bss           0x00000000        0x0 out/main.o
 .text._ZN6CUsartI7SUsart2E6setIdsEv
                0x00000000       0x28 out/main.o
 .text._ZN6CUsartI7SUsart3E6setIdsEv
                0x00000000       0x28 out/main.o
 .text._ZN6CUsartI7SUsart4E6setIdsEv
                0x00000000       0x28 out/main.o
 .text._ZN6CUsartI7SUsart5E6setIdsEv
                0x00000000       0x28 out/main.o
 .text._ZN6CUsartI7SUsart6E6setIdsEv
                0x00000000       0x28 out/main.o
 .text._ZN6CUsartI7SUsart7E6setIdsEv
                0x00000000       0x28 out/main.o
 .bss.g_usartReadBuffer
                0x00000000       0xc8 out/main.o
 .bss.g_usartWriteBuffer
                0x00000000       0xc8 out/main.o
 .text          0x00000000        0x0 out/CGpioManager.o
 .data          0x00000000        0x0 out/CGpioManager.o
 .bss           0x00000000        0x0 out/CGpioManager.o
 .text._ZN12CGpioManagerC2ERKS_
                0x00000000       0x20 out/CGpioManager.o
 .group         0x00000000        0x8 out/CRccManager.o
 .text          0x00000000        0x0 out/CRccManager.o
 .data          0x00000000        0x0 out/CRccManager.o
 .bss           0x00000000        0x0 out/CRccManager.o
 .text._ZN11CRccManagerC2ERKS_
                0x00000000       0x20 out/CRccManager.o
 .group         0x00000000        0x8 out/CUsartIrqHandler.o
 .group         0x00000000        0xc out/CUsartIrqHandler.o
 .text          0x00000000        0x0 out/CUsartIrqHandler.o
 .data          0x00000000        0x0 out/CUsartIrqHandler.o
 .bss           0x00000000        0x0 out/CUsartIrqHandler.o
 .text._ZN11IIrqHandlerC2Ev
                0x00000000       0x20 out/CUsartIrqHandler.o
 .text._ZN16CUsartIrqHandlerC2Ev
                0x00000000       0x58 out/CUsartIrqHandler.o
 .text._ZN16CUsartIrqHandlerC2EP11IPeripheral
                0x00000000       0x60 out/CUsartIrqHandler.o
 .text._ZN16CUsartIrqHandler18registerPeripheralEP11IPeripheral
                0x00000000       0x30 out/CUsartIrqHandler.o
 .text._ZN16CUsartIrqHandler20unregisterPeripheralEP11IPeripheral
                0x00000000       0x30 out/CUsartIrqHandler.o
 .rodata._ZTV16CUsartIrqHandler
                0x00000000       0x18 out/CUsartIrqHandler.o
 .text._ZN16CUsartIrqHandlerD2Ev
                0x00000000       0x3c out/CUsartIrqHandler.o
 .text._ZN16CUsartIrqHandlerD0Ev
                0x00000000       0x20 out/CUsartIrqHandler.o
 .group         0x00000000        0x8 out/CUsartStateRunning.o
 .group         0x00000000        0xc out/CUsartStateRunning.o
 .group         0x00000000        0x8 out/CUsartStateRunning.o
 .group         0x00000000        0x8 out/CUsartStateRunning.o
 .group         0x00000000        0x8 out/CUsartStateRunning.o
 .group         0x00000000        0x8 out/CUsartStateRunning.o
 .group         0x00000000        0x8 out/CUsartStateRunning.o
 .group         0x00000000        0xc out/CUsartStateRunning.o
 .group         0x00000000        0x8 out/CUsartStateRunning.o
 .group         0x00000000        0x8 out/CUsartStateRunning.o
 .text          0x00000000        0x0 out/CUsartStateRunning.o
 .data          0x00000000        0x0 out/CUsartStateRunning.o
 .bss           0x00000000        0x0 out/CUsartStateRunning.o
 .text._ZN11CUsartStateC2Ev
                0x00000000       0x20 out/CUsartStateRunning.o
 .text._ZN11CUsartStateD2Ev
                0x00000000       0x34 out/CUsartStateRunning.o
 .text._ZN11CUsartStateD0Ev
                0x00000000       0x20 out/CUsartStateRunning.o
 .rodata._ZTV11CUsartState
                0x00000000       0x38 out/CUsartStateRunning.o
 .group         0x00000000        0x8 out/CUsartStateUnusable.o
 .group         0x00000000        0xc out/CUsartStateUnusable.o
 .group         0x00000000        0x8 out/CUsartStateUnusable.o
 .group         0x00000000        0x8 out/CUsartStateUnusable.o
 .group         0x00000000        0x8 out/CUsartStateUnusable.o
 .group         0x00000000        0x8 out/CUsartStateUnusable.o
 .group         0x00000000        0x8 out/CUsartStateUnusable.o
 .group         0x00000000        0x8 out/CUsartStateUnusable.o
 .group         0x00000000        0x8 out/CUsartStateUnusable.o
 .group         0x00000000        0x8 out/CUsartStateUnusable.o
 .group         0x00000000        0xc out/CUsartStateUnusable.o
 .group         0x00000000        0x8 out/CUsartStateUnusable.o
 .group         0x00000000        0x8 out/CUsartStateUnusable.o
 .text          0x00000000        0x0 out/CUsartStateUnusable.o
 .data          0x00000000        0x0 out/CUsartStateUnusable.o
 .bss           0x00000000        0x0 out/CUsartStateUnusable.o
 .text._ZN11CUsartStateC2Ev
                0x00000000       0x20 out/CUsartStateUnusable.o
 .text._ZN11CUsartStateD2Ev
                0x00000000       0x34 out/CUsartStateUnusable.o
 .text._ZN11CUsartStateD0Ev
                0x00000000       0x20 out/CUsartStateUnusable.o
 .text._ZN17CUsartStateUsableC2EP12CGpioManagerP11CRccManager
                0x00000000       0x40 out/CUsartStateUnusable.o
 .rodata._ZTV11CUsartState
                0x00000000       0x38 out/CUsartStateUnusable.o
 .group         0x00000000        0x8 out/CUsartStateUsable.o
 .group         0x00000000        0xc out/CUsartStateUsable.o
 .group         0x00000000        0x8 out/CUsartStateUsable.o
 .group         0x00000000        0x8 out/CUsartStateUsable.o
 .group         0x00000000        0x8 out/CUsartStateUsable.o
 .group         0x00000000        0xc out/CUsartStateUsable.o
 .group         0x00000000        0x8 out/CUsartStateUsable.o
 .group         0x00000000        0x8 out/CUsartStateUsable.o
 .text          0x00000000        0x0 out/CUsartStateUsable.o
 .data          0x00000000        0x0 out/CUsartStateUsable.o
 .bss           0x00000000        0x0 out/CUsartStateUsable.o
 .text._ZN11CUsartStateC2Ev
                0x00000000       0x20 out/CUsartStateUsable.o
 .text._ZN11CUsartStateD2Ev
                0x00000000       0x34 out/CUsartStateUsable.o
 .text._ZN11CUsartStateD0Ev
                0x00000000       0x20 out/CUsartStateUsable.o
 .text._ZN19CUsartStateUnusableC2EP12CGpioManagerP11CRccManager
                0x00000000       0x40 out/CUsartStateUsable.o
 .rodata._ZTV11CUsartState
                0x00000000       0x38 out/CUsartStateUsable.o
 .text          0x00000000        0x0 /home/reymondo/CodeSourcery/Sourcery_G++_Lite/bin/../lib/gcc/arm-none-eabi/4.5.2/../../../../arm-none-eabi/lib/thumb2/libstdc++.a(del_op.o)
 .data          0x00000000        0x0 /home/reymondo/CodeSourcery/Sourcery_G++_Lite/bin/../lib/gcc/arm-none-eabi/4.5.2/../../../../arm-none-eabi/lib/thumb2/libstdc++.a(del_op.o)
 .bss           0x00000000        0x0 /home/reymondo/CodeSourcery/Sourcery_G++_Lite/bin/../lib/gcc/arm-none-eabi/4.5.2/../../../../arm-none-eabi/lib/thumb2/libstdc++.a(del_op.o)
 .ARM.extab.text._ZdlPv
                0x00000000        0x0 /home/reymondo/CodeSourcery/Sourcery_G++_Lite/bin/../lib/gcc/arm-none-eabi/4.5.2/../../../../arm-none-eabi/lib/thumb2/libstdc++.a(del_op.o)
 .text          0x00000000        0x0 /home/reymondo/CodeSourcery/Sourcery_G++_Lite/bin/../lib/gcc/arm-none-eabi/4.5.2/../../../../arm-none-eabi/lib/thumb2/libstdc++.a(new_op.o)
 .data          0x00000000        0x0 /home/reymondo/CodeSourcery/Sourcery_G++_Lite/bin/../lib/gcc/arm-none-eabi/4.5.2/../../../../arm-none-eabi/lib/thumb2/libstdc++.a(new_op.o)
 .bss           0x00000000        0x0 /home/reymondo/CodeSourcery/Sourcery_G++_Lite/bin/../lib/gcc/arm-none-eabi/4.5.2/../../../../arm-none-eabi/lib/thumb2/libstdc++.a(new_op.o)
 .text          0x00000000        0x0 /home/reymondo/CodeSourcery/Sourcery_G++_Lite/bin/../lib/gcc/arm-none-eabi/4.5.2/../../../../arm-none-eabi/lib/thumb2/libstdc++.a(eh_personality.o)
 .data          0x00000000        0x0 /home/reymondo/CodeSourcery/Sourcery_G++_Lite/bin/../lib/gcc/arm-none-eabi/4.5.2/../../../../arm-none-eabi/lib/thumb2/libstdc++.a(eh_personality.o)
 .bss           0x00000000        0x0 /home/reymondo/CodeSourcery/Sourcery_G++_Lite/bin/../lib/gcc/arm-none-eabi/4.5.2/../../../../arm-none-eabi/lib/thumb2/libstdc++.a(eh_personality.o)
 .ARM.extab.text._ZL12read_sleb128PKhPl
                0x00000000        0x0 /home/reymondo/CodeSourcery/Sourcery_G++_Lite/bin/../lib/gcc/arm-none-eabi/4.5.2/../../../../arm-none-eabi/lib/thumb2/libstdc++.a(eh_personality.o)
 .ARM.extab.text._ZL28read_encoded_value_with_basehjPKhPj
                0x00000000        0x0 /home/reymondo/CodeSourcery/Sourcery_G++_Lite/bin/../lib/gcc/arm-none-eabi/4.5.2/../../../../arm-none-eabi/lib/thumb2/libstdc++.a(eh_personality.o)
 .ARM.extab.text._ZL21base_of_encoded_valuehP15_Unwind_Context
                0x00000000        0x0 /home/reymondo/CodeSourcery/Sourcery_G++_Lite/bin/../lib/gcc/arm-none-eabi/4.5.2/../../../../arm-none-eabi/lib/thumb2/libstdc++.a(eh_personality.o)
 .ARM.extab.text._ZL17parse_lsda_headerP15_Unwind_ContextPKhP16lsda_header_info
                0x00000000        0x0 /home/reymondo/CodeSourcery/Sourcery_G++_Lite/bin/../lib/gcc/arm-none-eabi/4.5.2/../../../../arm-none-eabi/lib/thumb2/libstdc++.a(eh_personality.o)
 .text          0x00000000        0x0 /home/reymondo/CodeSourcery/Sourcery_G++_Lite/bin/../lib/gcc/arm-none-eabi/4.5.2/../../../../arm-none-eabi/lib/thumb2/libstdc++.a(eh_throw.o)
 .data          0x00000000        0x0 /home/reymondo/CodeSourcery/Sourcery_G++_Lite/bin/../lib/gcc/arm-none-eabi/4.5.2/../../../../arm-none-eabi/lib/thumb2/libstdc++.a(eh_throw.o)
 .bss           0x00000000        0x0 /home/reymondo/CodeSourcery/Sourcery_G++_Lite/bin/../lib/gcc/arm-none-eabi/4.5.2/../../../../arm-none-eabi/lib/thumb2/libstdc++.a(eh_throw.o)
 .ARM.extab.text._ZL23__gxx_exception_cleanup19_Unwind_Reason_CodeP21_Unwind_Control_Block
                0x00000000        0x0 /home/reymondo/CodeSourcery/Sourcery_G++_Lite/bin/../lib/gcc/arm-none-eabi/4.5.2/../../../../arm-none-eabi/lib/thumb2/libstdc++.a(eh_throw.o)
 .ARM.extab.text.__cxa_throw
                0x00000000        0x0 /home/reymondo/CodeSourcery/Sourcery_G++_Lite/bin/../lib/gcc/arm-none-eabi/4.5.2/../../../../arm-none-eabi/lib/thumb2/libstdc++.a(eh_throw.o)
 .ARM.extab.text.__cxa_rethrow
                0x00000000        0x0 /home/reymondo/CodeSourcery/Sourcery_G++_Lite/bin/../lib/gcc/arm-none-eabi/4.5.2/../../../../arm-none-eabi/lib/thumb2/libstdc++.a(eh_throw.o)
 .text          0x00000000        0x0 /home/reymondo/CodeSourcery/Sourcery_G++_Lite/bin/../lib/gcc/arm-none-eabi/4.5.2/../../../../arm-none-eabi/lib/thumb2/libstdc++.a(pure.o)
 .data          0x00000000        0x0 /home/reymondo/CodeSourcery/Sourcery_G++_Lite/bin/../lib/gcc/arm-none-eabi/4.5.2/../../../../arm-none-eabi/lib/thumb2/libstdc++.a(pure.o)
 .bss           0x00000000        0x0 /home/reymondo/CodeSourcery/Sourcery_G++_Lite/bin/../lib/gcc/arm-none-eabi/4.5.2/../../../../arm-none-eabi/lib/thumb2/libstdc++.a(pure.o)
 .text          0x00000000        0x0 /home/reymondo/CodeSourcery/Sourcery_G++_Lite/bin/../lib/gcc/arm-none-eabi/4.5.2/../../../../arm-none-eabi/lib/thumb2/libstdc++.a(eh_unex_handler.o)
 .data          0x00000000        0x0 /home/reymondo/CodeSourcery/Sourcery_G++_Lite/bin/../lib/gcc/arm-none-eabi/4.5.2/../../../../arm-none-eabi/lib/thumb2/libstdc++.a(eh_unex_handler.o)
 .bss           0x00000000        0x0 /home/reymondo/CodeSourcery/Sourcery_G++_Lite/bin/../lib/gcc/arm-none-eabi/4.5.2/../../../../arm-none-eabi/lib/thumb2/libstdc++.a(eh_unex_handler.o)
 .text          0x00000000        0x0 /home/reymondo/CodeSourcery/Sourcery_G++_Lite/bin/../lib/gcc/arm-none-eabi/4.5.2/../../../../arm-none-eabi/lib/thumb2/libstdc++.a(eh_globals.o)
 .data          0x00000000        0x0 /home/reymondo/CodeSourcery/Sourcery_G++_Lite/bin/../lib/gcc/arm-none-eabi/4.5.2/../../../../arm-none-eabi/lib/thumb2/libstdc++.a(eh_globals.o)
 .bss           0x00000000        0x0 /home/reymondo/CodeSourcery/Sourcery_G++_Lite/bin/../lib/gcc/arm-none-eabi/4.5.2/../../../../arm-none-eabi/lib/thumb2/libstdc++.a(eh_globals.o)
 .ARM.extab.text.__cxa_get_globals_fast
                0x00000000        0x0 /home/reymondo/CodeSourcery/Sourcery_G++_Lite/bin/../lib/gcc/arm-none-eabi/4.5.2/../../../../arm-none-eabi/lib/thumb2/libstdc++.a(eh_globals.o)
 .ARM.extab.text.__cxa_get_globals
                0x00000000        0x0 /home/reymondo/CodeSourcery/Sourcery_G++_Lite/bin/../lib/gcc/arm-none-eabi/4.5.2/../../../../arm-none-eabi/lib/thumb2/libstdc++.a(eh_globals.o)
 .text          0x00000000        0x0 /home/reymondo/CodeSourcery/Sourcery_G++_Lite/bin/../lib/gcc/arm-none-eabi/4.5.2/../../../../arm-none-eabi/lib/thumb2/libstdc++.a(eh_catch.o)
 .data          0x00000000        0x0 /home/reymondo/CodeSourcery/Sourcery_G++_Lite/bin/../lib/gcc/arm-none-eabi/4.5.2/../../../../arm-none-eabi/lib/thumb2/libstdc++.a(eh_catch.o)
 .bss           0x00000000        0x0 /home/reymondo/CodeSourcery/Sourcery_G++_Lite/bin/../lib/gcc/arm-none-eabi/4.5.2/../../../../arm-none-eabi/lib/thumb2/libstdc++.a(eh_catch.o)
 .text.__cxa_get_exception_ptr
                0x00000000        0x4 /home/reymondo/CodeSourcery/Sourcery_G++_Lite/bin/../lib/gcc/arm-none-eabi/4.5.2/../../../../arm-none-eabi/lib/thumb2/libstdc++.a(eh_catch.o)
 .ARM.extab.text.__cxa_get_exception_ptr
                0x00000000        0x0 /home/reymondo/CodeSourcery/Sourcery_G++_Lite/bin/../lib/gcc/arm-none-eabi/4.5.2/../../../../arm-none-eabi/lib/thumb2/libstdc++.a(eh_catch.o)
 .ARM.exidx.text.__cxa_get_exception_ptr
                0x00000000        0x8 /home/reymondo/CodeSourcery/Sourcery_G++_Lite/bin/../lib/gcc/arm-none-eabi/4.5.2/../../../../arm-none-eabi/lib/thumb2/libstdc++.a(eh_catch.o)
 .ARM.extab.text.__cxa_end_catch
                0x00000000        0x0 /home/reymondo/CodeSourcery/Sourcery_G++_Lite/bin/../lib/gcc/arm-none-eabi/4.5.2/../../../../arm-none-eabi/lib/thumb2/libstdc++.a(eh_catch.o)
 .text._ZSt18uncaught_exceptionv
                0x00000000       0x10 /home/reymondo/CodeSourcery/Sourcery_G++_Lite/bin/../lib/gcc/arm-none-eabi/4.5.2/../../../../arm-none-eabi/lib/thumb2/libstdc++.a(eh_catch.o)
 .ARM.extab.text._ZSt18uncaught_exceptionv
                0x00000000        0x0 /home/reymondo/CodeSourcery/Sourcery_G++_Lite/bin/../lib/gcc/arm-none-eabi/4.5.2/../../../../arm-none-eabi/lib/thumb2/libstdc++.a(eh_catch.o)
 .ARM.exidx.text._ZSt18uncaught_exceptionv
                0x00000000        0x8 /home/reymondo/CodeSourcery/Sourcery_G++_Lite/bin/../lib/gcc/arm-none-eabi/4.5.2/../../../../arm-none-eabi/lib/thumb2/libstdc++.a(eh_catch.o)
 .data          0x00000000        0x0 /home/reymondo/CodeSourcery/Sourcery_G++_Lite/bin/../lib/gcc/arm-none-eabi/4.5.2/../../../../arm-none-eabi/lib/thumb2/libstdc++.a(eh_arm.o)
 .bss           0x00000000        0x0 /home/reymondo/CodeSourcery/Sourcery_G++_Lite/bin/../lib/gcc/arm-none-eabi/4.5.2/../../../../arm-none-eabi/lib/thumb2/libstdc++.a(eh_arm.o)
 .ARM.extab.text.__cxa_type_match
                0x00000000        0x0 /home/reymondo/CodeSourcery/Sourcery_G++_Lite/bin/../lib/gcc/arm-none-eabi/4.5.2/../../../../arm-none-eabi/lib/thumb2/libstdc++.a(eh_arm.o)
 .ARM.extab.text.__cxa_begin_cleanup
                0x00000000        0x0 /home/reymondo/CodeSourcery/Sourcery_G++_Lite/bin/../lib/gcc/arm-none-eabi/4.5.2/../../../../arm-none-eabi/lib/thumb2/libstdc++.a(eh_arm.o)
 .ARM.extab.text.__gnu_end_cleanup
                0x00000000        0x0 /home/reymondo/CodeSourcery/Sourcery_G++_Lite/bin/../lib/gcc/arm-none-eabi/4.5.2/../../../../arm-none-eabi/lib/thumb2/libstdc++.a(eh_arm.o)
 .text          0x00000000        0x0 /home/reymondo/CodeSourcery/Sourcery_G++_Lite/bin/../lib/gcc/arm-none-eabi/4.5.2/../../../../arm-none-eabi/lib/thumb2/libstdc++.a(eh_terminate.o)
 .data          0x00000000        0x0 /home/reymondo/CodeSourcery/Sourcery_G++_Lite/bin/../lib/gcc/arm-none-eabi/4.5.2/../../../../arm-none-eabi/lib/thumb2/libstdc++.a(eh_terminate.o)
 .bss           0x00000000        0x0 /home/reymondo/CodeSourcery/Sourcery_G++_Lite/bin/../lib/gcc/arm-none-eabi/4.5.2/../../../../arm-none-eabi/lib/thumb2/libstdc++.a(eh_terminate.o)
 .ARM.extab.text._ZSt9terminatev
                0x00000000        0x0 /home/reymondo/CodeSourcery/Sourcery_G++_Lite/bin/../lib/gcc/arm-none-eabi/4.5.2/../../../../arm-none-eabi/lib/thumb2/libstdc++.a(eh_terminate.o)
 .text._ZSt13set_terminatePFvvE
                0x00000000       0x10 /home/reymondo/CodeSourcery/Sourcery_G++_Lite/bin/../lib/gcc/arm-none-eabi/4.5.2/../../../../arm-none-eabi/lib/thumb2/libstdc++.a(eh_terminate.o)
 .ARM.extab.text._ZSt13set_terminatePFvvE
                0x00000000        0x0 /home/reymondo/CodeSourcery/Sourcery_G++_Lite/bin/../lib/gcc/arm-none-eabi/4.5.2/../../../../arm-none-eabi/lib/thumb2/libstdc++.a(eh_terminate.o)
 .ARM.exidx.text._ZSt13set_terminatePFvvE
                0x00000000        0x8 /home/reymondo/CodeSourcery/Sourcery_G++_Lite/bin/../lib/gcc/arm-none-eabi/4.5.2/../../../../arm-none-eabi/lib/thumb2/libstdc++.a(eh_terminate.o)
 .text._ZSt14set_unexpectedPFvvE
                0x00000000       0x10 /home/reymondo/CodeSourcery/Sourcery_G++_Lite/bin/../lib/gcc/arm-none-eabi/4.5.2/../../../../arm-none-eabi/lib/thumb2/libstdc++.a(eh_terminate.o)
 .ARM.extab.text._ZSt14set_unexpectedPFvvE
                0x00000000        0x0 /home/reymondo/CodeSourcery/Sourcery_G++_Lite/bin/../lib/gcc/arm-none-eabi/4.5.2/../../../../arm-none-eabi/lib/thumb2/libstdc++.a(eh_terminate.o)
 .ARM.exidx.text._ZSt14set_unexpectedPFvvE
                0x00000000        0x8 /home/reymondo/CodeSourcery/Sourcery_G++_Lite/bin/../lib/gcc/arm-none-eabi/4.5.2/../../../../arm-none-eabi/lib/thumb2/libstdc++.a(eh_terminate.o)
 .text          0x00000000        0x0 /home/reymondo/CodeSourcery/Sourcery_G++_Lite/bin/../lib/gcc/arm-none-eabi/4.5.2/../../../../arm-none-eabi/lib/thumb2/libstdc++.a(eh_alloc.o)
 .data          0x00000000        0x0 /home/reymondo/CodeSourcery/Sourcery_G++_Lite/bin/../lib/gcc/arm-none-eabi/4.5.2/../../../../arm-none-eabi/lib/thumb2/libstdc++.a(eh_alloc.o)
 .bss           0x00000000        0x0 /home/reymondo/CodeSourcery/Sourcery_G++_Lite/bin/../lib/gcc/arm-none-eabi/4.5.2/../../../../arm-none-eabi/lib/thumb2/libstdc++.a(eh_alloc.o)
 .ARM.extab.text.__cxa_allocate_exception
                0x00000000        0x0 /home/reymondo/CodeSourcery/Sourcery_G++_Lite/bin/../lib/gcc/arm-none-eabi/4.5.2/../../../../arm-none-eabi/lib/thumb2/libstdc++.a(eh_alloc.o)
 .ARM.extab.text.__cxa_free_exception
                0x00000000        0x0 /home/reymondo/CodeSourcery/Sourcery_G++_Lite/bin/../lib/gcc/arm-none-eabi/4.5.2/../../../../arm-none-eabi/lib/thumb2/libstdc++.a(eh_alloc.o)
 .text.__cxa_allocate_dependent_exception
                0x00000000       0x78 /home/reymondo/CodeSourcery/Sourcery_G++_Lite/bin/../lib/gcc/arm-none-eabi/4.5.2/../../../../arm-none-eabi/lib/thumb2/libstdc++.a(eh_alloc.o)
 .ARM.extab.text.__cxa_allocate_dependent_exception
                0x00000000        0x0 /home/reymondo/CodeSourcery/Sourcery_G++_Lite/bin/../lib/gcc/arm-none-eabi/4.5.2/../../../../arm-none-eabi/lib/thumb2/libstdc++.a(eh_alloc.o)
 .ARM.exidx.text.__cxa_allocate_dependent_exception
                0x00000000        0x8 /home/reymondo/CodeSourcery/Sourcery_G++_Lite/bin/../lib/gcc/arm-none-eabi/4.5.2/../../../../arm-none-eabi/lib/thumb2/libstdc++.a(eh_alloc.o)
 .text.__cxa_free_dependent_exception
                0x00000000       0x4c /home/reymondo/CodeSourcery/Sourcery_G++_Lite/bin/../lib/gcc/arm-none-eabi/4.5.2/../../../../arm-none-eabi/lib/thumb2/libstdc++.a(eh_alloc.o)
 .ARM.extab.text.__cxa_free_dependent_exception
                0x00000000        0x0 /home/reymondo/CodeSourcery/Sourcery_G++_Lite/bin/../lib/gcc/arm-none-eabi/4.5.2/../../../../arm-none-eabi/lib/thumb2/libstdc++.a(eh_alloc.o)
 .ARM.exidx.text.__cxa_free_dependent_exception
                0x00000000        0x8 /home/reymondo/CodeSourcery/Sourcery_G++_Lite/bin/../lib/gcc/arm-none-eabi/4.5.2/../../../../arm-none-eabi/lib/thumb2/libstdc++.a(eh_alloc.o)
 .text._GLOBAL__I___cxa_allocate_exception
                0x00000000        0x4 /home/reymondo/CodeSourcery/Sourcery_G++_Lite/bin/../lib/gcc/arm-none-eabi/4.5.2/../../../../arm-none-eabi/lib/thumb2/libstdc++.a(eh_alloc.o)
 .ARM.extab.text._GLOBAL__I___cxa_allocate_exception
                0x00000000        0x0 /home/reymondo/CodeSourcery/Sourcery_G++_Lite/bin/../lib/gcc/arm-none-eabi/4.5.2/../../../../arm-none-eabi/lib/thumb2/libstdc++.a(eh_alloc.o)
 .ARM.exidx.text._GLOBAL__I___cxa_allocate_exception
                0x00000000        0x8 /home/reymondo/CodeSourcery/Sourcery_G++_Lite/bin/../lib/gcc/arm-none-eabi/4.5.2/../../../../arm-none-eabi/lib/thumb2/libstdc++.a(eh_alloc.o)
 .init_array    0x00000000        0x4 /home/reymondo/CodeSourcery/Sourcery_G++_Lite/bin/../lib/gcc/arm-none-eabi/4.5.2/../../../../arm-none-eabi/lib/thumb2/libstdc++.a(eh_alloc.o)
 .bss._ZL15dependents_used
                0x00000000        0x4 /home/reymondo/CodeSourcery/Sourcery_G++_Lite/bin/../lib/gcc/arm-none-eabi/4.5.2/../../../../arm-none-eabi/lib/thumb2/libstdc++.a(eh_alloc.o)
 .bss._ZL17dependents_buffer
                0x00000000      0x1e0 /home/reymondo/CodeSourcery/Sourcery_G++_Lite/bin/../lib/gcc/arm-none-eabi/4.5.2/../../../../arm-none-eabi/lib/thumb2/libstdc++.a(eh_alloc.o)
 .text          0x00000000        0x0 /home/reymondo/CodeSourcery/Sourcery_G++_Lite/bin/../lib/gcc/arm-none-eabi/4.5.2/../../../../arm-none-eabi/lib/thumb2/libstdc++.a(eh_call.o)
 .data          0x00000000        0x0 /home/reymondo/CodeSourcery/Sourcery_G++_Lite/bin/../lib/gcc/arm-none-eabi/4.5.2/../../../../arm-none-eabi/lib/thumb2/libstdc++.a(eh_call.o)
 .bss           0x00000000        0x0 /home/reymondo/CodeSourcery/Sourcery_G++_Lite/bin/../lib/gcc/arm-none-eabi/4.5.2/../../../../arm-none-eabi/lib/thumb2/libstdc++.a(eh_call.o)
 .ARM.extab.text.__cxa_call_terminate
                0x00000000        0x0 /home/reymondo/CodeSourcery/Sourcery_G++_Lite/bin/../lib/gcc/arm-none-eabi/4.5.2/../../../../arm-none-eabi/lib/thumb2/libstdc++.a(eh_call.o)
 .text          0x00000000        0x0 /home/reymondo/CodeSourcery/Sourcery_G++_Lite/bin/../lib/gcc/arm-none-eabi/4.5.2/../../../../arm-none-eabi/lib/thumb2/libstdc++.a(new_handler.o)
 .data          0x00000000        0x0 /home/reymondo/CodeSourcery/Sourcery_G++_Lite/bin/../lib/gcc/arm-none-eabi/4.5.2/../../../../arm-none-eabi/lib/thumb2/libstdc++.a(new_handler.o)
 .bss           0x00000000        0x0 /home/reymondo/CodeSourcery/Sourcery_G++_Lite/bin/../lib/gcc/arm-none-eabi/4.5.2/../../../../arm-none-eabi/lib/thumb2/libstdc++.a(new_handler.o)
 .ARM.extab.text._ZNKSt9bad_alloc4whatEv
                0x00000000        0x0 /home/reymondo/CodeSourcery/Sourcery_G++_Lite/bin/../lib/gcc/arm-none-eabi/4.5.2/../../../../arm-none-eabi/lib/thumb2/libstdc++.a(new_handler.o)
 .ARM.extab.text._ZNSt9bad_allocD2Ev
                0x00000000        0x0 /home/reymondo/CodeSourcery/Sourcery_G++_Lite/bin/../lib/gcc/arm-none-eabi/4.5.2/../../../../arm-none-eabi/lib/thumb2/libstdc++.a(new_handler.o)
 .ARM.extab.text._ZNSt9bad_allocD0Ev
                0x00000000        0x0 /home/reymondo/CodeSourcery/Sourcery_G++_Lite/bin/../lib/gcc/arm-none-eabi/4.5.2/../../../../arm-none-eabi/lib/thumb2/libstdc++.a(new_handler.o)
 .text._ZSt15set_new_handlerPFvvE
                0x00000000       0x10 /home/reymondo/CodeSourcery/Sourcery_G++_Lite/bin/../lib/gcc/arm-none-eabi/4.5.2/../../../../arm-none-eabi/lib/thumb2/libstdc++.a(new_handler.o)
 .ARM.extab.text._ZSt15set_new_handlerPFvvE
                0x00000000        0x0 /home/reymondo/CodeSourcery/Sourcery_G++_Lite/bin/../lib/gcc/arm-none-eabi/4.5.2/../../../../arm-none-eabi/lib/thumb2/libstdc++.a(new_handler.o)
 .ARM.exidx.text._ZSt15set_new_handlerPFvvE
                0x00000000        0x8 /home/reymondo/CodeSourcery/Sourcery_G++_Lite/bin/../lib/gcc/arm-none-eabi/4.5.2/../../../../arm-none-eabi/lib/thumb2/libstdc++.a(new_handler.o)
 .rodata._ZSt7nothrow
                0x00000000        0x4 /home/reymondo/CodeSourcery/Sourcery_G++_Lite/bin/../lib/gcc/arm-none-eabi/4.5.2/../../../../arm-none-eabi/lib/thumb2/libstdc++.a(new_handler.o)
 .text          0x00000000        0x0 /home/reymondo/CodeSourcery/Sourcery_G++_Lite/bin/../lib/gcc/arm-none-eabi/4.5.2/../../../../arm-none-eabi/lib/thumb2/libstdc++.a(eh_term_handler.o)
 .data          0x00000000        0x0 /home/reymondo/CodeSourcery/Sourcery_G++_Lite/bin/../lib/gcc/arm-none-eabi/4.5.2/../../../../arm-none-eabi/lib/thumb2/libstdc++.a(eh_term_handler.o)
 .bss           0x00000000        0x0 /home/reymondo/CodeSourcery/Sourcery_G++_Lite/bin/../lib/gcc/arm-none-eabi/4.5.2/../../../../arm-none-eabi/lib/thumb2/libstdc++.a(eh_term_handler.o)
 .text          0x00000000        0x0 /home/reymondo/CodeSourcery/Sourcery_G++_Lite/bin/../lib/gcc/arm-none-eabi/4.5.2/../../../../arm-none-eabi/lib/thumb2/libstdc++.a(vterminate.o)
 .data          0x00000000        0x0 /home/reymondo/CodeSourcery/Sourcery_G++_Lite/bin/../lib/gcc/arm-none-eabi/4.5.2/../../../../arm-none-eabi/lib/thumb2/libstdc++.a(vterminate.o)
 .bss           0x00000000        0x0 /home/reymondo/CodeSourcery/Sourcery_G++_Lite/bin/../lib/gcc/arm-none-eabi/4.5.2/../../../../arm-none-eabi/lib/thumb2/libstdc++.a(vterminate.o)
 .text          0x00000000        0x0 /home/reymondo/CodeSourcery/Sourcery_G++_Lite/bin/../lib/gcc/arm-none-eabi/4.5.2/../../../../arm-none-eabi/lib/thumb2/libstdc++.a(eh_exception.o)
 .data          0x00000000        0x0 /home/reymondo/CodeSourcery/Sourcery_G++_Lite/bin/../lib/gcc/arm-none-eabi/4.5.2/../../../../arm-none-eabi/lib/thumb2/libstdc++.a(eh_exception.o)
 .bss           0x00000000        0x0 /home/reymondo/CodeSourcery/Sourcery_G++_Lite/bin/../lib/gcc/arm-none-eabi/4.5.2/../../../../arm-none-eabi/lib/thumb2/libstdc++.a(eh_exception.o)
 .ARM.extab.text._ZNSt9exceptionD2Ev
                0x00000000        0x0 /home/reymondo/CodeSourcery/Sourcery_G++_Lite/bin/../lib/gcc/arm-none-eabi/4.5.2/../../../../arm-none-eabi/lib/thumb2/libstdc++.a(eh_exception.o)
 .ARM.extab.text._ZNSt13bad_exceptionD2Ev
                0x00000000        0x0 /home/reymondo/CodeSourcery/Sourcery_G++_Lite/bin/../lib/gcc/arm-none-eabi/4.5.2/../../../../arm-none-eabi/lib/thumb2/libstdc++.a(eh_exception.o)
 .text._ZN10__cxxabiv115__forced_unwindD2Ev
                0x00000000        0xc /home/reymondo/CodeSourcery/Sourcery_G++_Lite/bin/../lib/gcc/arm-none-eabi/4.5.2/../../../../arm-none-eabi/lib/thumb2/libstdc++.a(eh_exception.o)
 .ARM.extab.text._ZN10__cxxabiv115__forced_unwindD2Ev
                0x00000000        0x0 /home/reymondo/CodeSourcery/Sourcery_G++_Lite/bin/../lib/gcc/arm-none-eabi/4.5.2/../../../../arm-none-eabi/lib/thumb2/libstdc++.a(eh_exception.o)
 .ARM.exidx.text._ZN10__cxxabiv115__forced_unwindD2Ev
                0x00000000        0x8 /home/reymondo/CodeSourcery/Sourcery_G++_Lite/bin/../lib/gcc/arm-none-eabi/4.5.2/../../../../arm-none-eabi/lib/thumb2/libstdc++.a(eh_exception.o)
 .text._ZN10__cxxabiv119__foreign_exceptionD2Ev
                0x00000000        0xc /home/reymondo/CodeSourcery/Sourcery_G++_Lite/bin/../lib/gcc/arm-none-eabi/4.5.2/../../../../arm-none-eabi/lib/thumb2/libstdc++.a(eh_exception.o)
 .ARM.extab.text._ZN10__cxxabiv119__foreign_exceptionD2Ev
                0x00000000        0x0 /home/reymondo/CodeSourcery/Sourcery_G++_Lite/bin/../lib/gcc/arm-none-eabi/4.5.2/../../../../arm-none-eabi/lib/thumb2/libstdc++.a(eh_exception.o)
 .ARM.exidx.text._ZN10__cxxabiv119__foreign_exceptionD2Ev
                0x00000000        0x8 /home/reymondo/CodeSourcery/Sourcery_G++_Lite/bin/../lib/gcc/arm-none-eabi/4.5.2/../../../../arm-none-eabi/lib/thumb2/libstdc++.a(eh_exception.o)
 .ARM.extab.text._ZNKSt9exception4whatEv
                0x00000000        0x0 /home/reymondo/CodeSourcery/Sourcery_G++_Lite/bin/../lib/gcc/arm-none-eabi/4.5.2/../../../../arm-none-eabi/lib/thumb2/libstdc++.a(eh_exception.o)
 .ARM.extab.text._ZNKSt13bad_exception4whatEv
                0x00000000        0x0 /home/reymondo/CodeSourcery/Sourcery_G++_Lite/bin/../lib/gcc/arm-none-eabi/4.5.2/../../../../arm-none-eabi/lib/thumb2/libstdc++.a(eh_exception.o)
 .text._ZN10__cxxabiv119__foreign_exceptionD0Ev
                0x00000000       0x14 /home/reymondo/CodeSourcery/Sourcery_G++_Lite/bin/../lib/gcc/arm-none-eabi/4.5.2/../../../../arm-none-eabi/lib/thumb2/libstdc++.a(eh_exception.o)
 .ARM.extab.text._ZN10__cxxabiv119__foreign_exceptionD0Ev
                0x00000000        0x0 /home/reymondo/CodeSourcery/Sourcery_G++_Lite/bin/../lib/gcc/arm-none-eabi/4.5.2/../../../../arm-none-eabi/lib/thumb2/libstdc++.a(eh_exception.o)
 .ARM.exidx.text._ZN10__cxxabiv119__foreign_exceptionD0Ev
                0x00000000        0x8 /home/reymondo/CodeSourcery/Sourcery_G++_Lite/bin/../lib/gcc/arm-none-eabi/4.5.2/../../../../arm-none-eabi/lib/thumb2/libstdc++.a(eh_exception.o)
 .text._ZN10__cxxabiv115__forced_unwindD0Ev
                0x00000000       0x14 /home/reymondo/CodeSourcery/Sourcery_G++_Lite/bin/../lib/gcc/arm-none-eabi/4.5.2/../../../../arm-none-eabi/lib/thumb2/libstdc++.a(eh_exception.o)
 .ARM.extab.text._ZN10__cxxabiv115__forced_unwindD0Ev
                0x00000000        0x0 /home/reymondo/CodeSourcery/Sourcery_G++_Lite/bin/../lib/gcc/arm-none-eabi/4.5.2/../../../../arm-none-eabi/lib/thumb2/libstdc++.a(eh_exception.o)
 .ARM.exidx.text._ZN10__cxxabiv115__forced_unwindD0Ev
                0x00000000        0x8 /home/reymondo/CodeSourcery/Sourcery_G++_Lite/bin/../lib/gcc/arm-none-eabi/4.5.2/../../../../arm-none-eabi/lib/thumb2/libstdc++.a(eh_exception.o)
 .ARM.extab.text._ZNSt13bad_exceptionD0Ev
                0x00000000        0x0 /home/reymondo/CodeSourcery/Sourcery_G++_Lite/bin/../lib/gcc/arm-none-eabi/4.5.2/../../../../arm-none-eabi/lib/thumb2/libstdc++.a(eh_exception.o)
 .ARM.extab.text._ZNSt9exceptionD0Ev
                0x00000000        0x0 /home/reymondo/CodeSourcery/Sourcery_G++_Lite/bin/../lib/gcc/arm-none-eabi/4.5.2/../../../../arm-none-eabi/lib/thumb2/libstdc++.a(eh_exception.o)
 .rodata._ZTVN10__cxxabiv115__forced_unwindE
                0x00000000       0x18 /home/reymondo/CodeSourcery/Sourcery_G++_Lite/bin/../lib/gcc/arm-none-eabi/4.5.2/../../../../arm-none-eabi/lib/thumb2/libstdc++.a(eh_exception.o)
 .rodata._ZTVN10__cxxabiv119__foreign_exceptionE
                0x00000000       0x18 /home/reymondo/CodeSourcery/Sourcery_G++_Lite/bin/../lib/gcc/arm-none-eabi/4.5.2/../../../../arm-none-eabi/lib/thumb2/libstdc++.a(eh_exception.o)
 .text          0x00000000        0x0 /home/reymondo/CodeSourcery/Sourcery_G++_Lite/bin/../lib/gcc/arm-none-eabi/4.5.2/../../../../arm-none-eabi/lib/thumb2/libstdc++.a(eh_type.o)
 .data          0x00000000        0x0 /home/reymondo/CodeSourcery/Sourcery_G++_Lite/bin/../lib/gcc/arm-none-eabi/4.5.2/../../../../arm-none-eabi/lib/thumb2/libstdc++.a(eh_type.o)
 .bss           0x00000000        0x0 /home/reymondo/CodeSourcery/Sourcery_G++_Lite/bin/../lib/gcc/arm-none-eabi/4.5.2/../../../../arm-none-eabi/lib/thumb2/libstdc++.a(eh_type.o)
 .ARM.extab.text.__cxa_current_exception_type
                0x00000000        0x0 /home/reymondo/CodeSourcery/Sourcery_G++_Lite/bin/../lib/gcc/arm-none-eabi/4.5.2/../../../../arm-none-eabi/lib/thumb2/libstdc++.a(eh_type.o)
 .text          0x00000000        0x0 /home/reymondo/CodeSourcery/Sourcery_G++_Lite/bin/../lib/gcc/arm-none-eabi/4.5.2/../../../../arm-none-eabi/lib/thumb2/libstdc++.a(si_class_type_info.o)
 .data          0x00000000        0x0 /home/reymondo/CodeSourcery/Sourcery_G++_Lite/bin/../lib/gcc/arm-none-eabi/4.5.2/../../../../arm-none-eabi/lib/thumb2/libstdc++.a(si_class_type_info.o)
 .bss           0x00000000        0x0 /home/reymondo/CodeSourcery/Sourcery_G++_Lite/bin/../lib/gcc/arm-none-eabi/4.5.2/../../../../arm-none-eabi/lib/thumb2/libstdc++.a(si_class_type_info.o)
 .ARM.extab.text._ZNK10__cxxabiv120__si_class_type_info11__do_upcastEPKNS_17__class_type_infoEPKvRNS1_15__upcast_resultE
                0x00000000        0x0 /home/reymondo/CodeSourcery/Sourcery_G++_Lite/bin/../lib/gcc/arm-none-eabi/4.5.2/../../../../arm-none-eabi/lib/thumb2/libstdc++.a(si_class_type_info.o)
 .ARM.extab.text._ZNK10__cxxabiv120__si_class_type_info12__do_dyncastEiNS_17__class_type_info10__sub_kindEPKS1_PKvS4_S6_RNS1_16__dyncast_resultE
                0x00000000        0x0 /home/reymondo/CodeSourcery/Sourcery_G++_Lite/bin/../lib/gcc/arm-none-eabi/4.5.2/../../../../arm-none-eabi/lib/thumb2/libstdc++.a(si_class_type_info.o)
 .ARM.extab.text._ZNK10__cxxabiv120__si_class_type_info20__do_find_public_srcEiPKvPKNS_17__class_type_infoES2_
                0x00000000        0x0 /home/reymondo/CodeSourcery/Sourcery_G++_Lite/bin/../lib/gcc/arm-none-eabi/4.5.2/../../../../arm-none-eabi/lib/thumb2/libstdc++.a(si_class_type_info.o)
 .ARM.extab.text._ZN10__cxxabiv120__si_class_type_infoD2Ev
                0x00000000        0x0 /home/reymondo/CodeSourcery/Sourcery_G++_Lite/bin/../lib/gcc/arm-none-eabi/4.5.2/../../../../arm-none-eabi/lib/thumb2/libstdc++.a(si_class_type_info.o)
 .ARM.extab.text._ZN10__cxxabiv120__si_class_type_infoD0Ev
                0x00000000        0x0 /home/reymondo/CodeSourcery/Sourcery_G++_Lite/bin/../lib/gcc/arm-none-eabi/4.5.2/../../../../arm-none-eabi/lib/thumb2/libstdc++.a(si_class_type_info.o)
 .text          0x00000000        0x0 /home/reymondo/CodeSourcery/Sourcery_G++_Lite/bin/../lib/gcc/arm-none-eabi/4.5.2/../../../../arm-none-eabi/lib/thumb2/libstdc++.a(class_type_info.o)
 .data          0x00000000        0x0 /home/reymondo/CodeSourcery/Sourcery_G++_Lite/bin/../lib/gcc/arm-none-eabi/4.5.2/../../../../arm-none-eabi/lib/thumb2/libstdc++.a(class_type_info.o)
 .bss           0x00000000        0x0 /home/reymondo/CodeSourcery/Sourcery_G++_Lite/bin/../lib/gcc/arm-none-eabi/4.5.2/../../../../arm-none-eabi/lib/thumb2/libstdc++.a(class_type_info.o)
 .ARM.extab.text._ZNK10__cxxabiv117__class_type_info11__do_upcastEPKS0_PPv
                0x00000000        0x0 /home/reymondo/CodeSourcery/Sourcery_G++_Lite/bin/../lib/gcc/arm-none-eabi/4.5.2/../../../../arm-none-eabi/lib/thumb2/libstdc++.a(class_type_info.o)
 .ARM.extab.text._ZNK10__cxxabiv117__class_type_info20__do_find_public_srcEiPKvPKS0_S2_
                0x00000000        0x0 /home/reymondo/CodeSourcery/Sourcery_G++_Lite/bin/../lib/gcc/arm-none-eabi/4.5.2/../../../../arm-none-eabi/lib/thumb2/libstdc++.a(class_type_info.o)
 .ARM.extab.text._ZNK10__cxxabiv117__class_type_info11__do_upcastEPKS0_PKvRNS0_15__upcast_resultE
                0x00000000        0x0 /home/reymondo/CodeSourcery/Sourcery_G++_Lite/bin/../lib/gcc/arm-none-eabi/4.5.2/../../../../arm-none-eabi/lib/thumb2/libstdc++.a(class_type_info.o)
 .ARM.extab.text._ZNK10__cxxabiv117__class_type_info12__do_dyncastEiNS0_10__sub_kindEPKS0_PKvS3_S5_RNS0_16__dyncast_resultE
                0x00000000        0x0 /home/reymondo/CodeSourcery/Sourcery_G++_Lite/bin/../lib/gcc/arm-none-eabi/4.5.2/../../../../arm-none-eabi/lib/thumb2/libstdc++.a(class_type_info.o)
 .ARM.extab.text._ZNK10__cxxabiv117__class_type_info10__do_catchEPKSt9type_infoPPvj
                0x00000000        0x0 /home/reymondo/CodeSourcery/Sourcery_G++_Lite/bin/../lib/gcc/arm-none-eabi/4.5.2/../../../../arm-none-eabi/lib/thumb2/libstdc++.a(class_type_info.o)
 .ARM.extab.text._ZN10__cxxabiv117__class_type_infoD2Ev
                0x00000000        0x0 /home/reymondo/CodeSourcery/Sourcery_G++_Lite/bin/../lib/gcc/arm-none-eabi/4.5.2/../../../../arm-none-eabi/lib/thumb2/libstdc++.a(class_type_info.o)
 .ARM.extab.text._ZN10__cxxabiv117__class_type_infoD0Ev
                0x00000000        0x0 /home/reymondo/CodeSourcery/Sourcery_G++_Lite/bin/../lib/gcc/arm-none-eabi/4.5.2/../../../../arm-none-eabi/lib/thumb2/libstdc++.a(class_type_info.o)
 .data          0x00000000        0x0 /home/reymondo/CodeSourcery/Sourcery_G++_Lite/bin/../lib/gcc/arm-none-eabi/4.5.2/../../../../arm-none-eabi/lib/thumb2/libstdc++.a(cp-demangle.o)
 .bss           0x00000000        0x0 /home/reymondo/CodeSourcery/Sourcery_G++_Lite/bin/../lib/gcc/arm-none-eabi/4.5.2/../../../../arm-none-eabi/lib/thumb2/libstdc++.a(cp-demangle.o)
 .text          0x00000000        0x0 /home/reymondo/CodeSourcery/Sourcery_G++_Lite/bin/../lib/gcc/arm-none-eabi/4.5.2/../../../../arm-none-eabi/lib/thumb2/libstdc++.a(tinfo.o)
 .data          0x00000000        0x0 /home/reymondo/CodeSourcery/Sourcery_G++_Lite/bin/../lib/gcc/arm-none-eabi/4.5.2/../../../../arm-none-eabi/lib/thumb2/libstdc++.a(tinfo.o)
 .bss           0x00000000        0x0 /home/reymondo/CodeSourcery/Sourcery_G++_Lite/bin/../lib/gcc/arm-none-eabi/4.5.2/../../../../arm-none-eabi/lib/thumb2/libstdc++.a(tinfo.o)
 .ARM.extab.text._ZNSt9type_infoD2Ev
                0x00000000        0x0 /home/reymondo/CodeSourcery/Sourcery_G++_Lite/bin/../lib/gcc/arm-none-eabi/4.5.2/../../../../arm-none-eabi/lib/thumb2/libstdc++.a(tinfo.o)
 .ARM.extab.text._ZNKSt9type_info14__is_pointer_pEv
                0x00000000        0x0 /home/reymondo/CodeSourcery/Sourcery_G++_Lite/bin/../lib/gcc/arm-none-eabi/4.5.2/../../../../arm-none-eabi/lib/thumb2/libstdc++.a(tinfo.o)
 .ARM.extab.text._ZNKSt9type_info15__is_function_pEv
                0x00000000        0x0 /home/reymondo/CodeSourcery/Sourcery_G++_Lite/bin/../lib/gcc/arm-none-eabi/4.5.2/../../../../arm-none-eabi/lib/thumb2/libstdc++.a(tinfo.o)
 .ARM.extab.text._ZNKSt9type_info11__do_upcastEPKN10__cxxabiv117__class_type_infoEPPv
                0x00000000        0x0 /home/reymondo/CodeSourcery/Sourcery_G++_Lite/bin/../lib/gcc/arm-none-eabi/4.5.2/../../../../arm-none-eabi/lib/thumb2/libstdc++.a(tinfo.o)
 .ARM.extab.text._ZNSt9type_infoD0Ev
                0x00000000        0x0 /home/reymondo/CodeSourcery/Sourcery_G++_Lite/bin/../lib/gcc/arm-none-eabi/4.5.2/../../../../arm-none-eabi/lib/thumb2/libstdc++.a(tinfo.o)
 .ARM.extab.text._ZNKSt9type_infoeqERKS_
                0x00000000        0x0 /home/reymondo/CodeSourcery/Sourcery_G++_Lite/bin/../lib/gcc/arm-none-eabi/4.5.2/../../../../arm-none-eabi/lib/thumb2/libstdc++.a(tinfo.o)
 .ARM.extab.text._ZNKSt9type_info10__do_catchEPKS_PPvj
                0x00000000        0x0 /home/reymondo/CodeSourcery/Sourcery_G++_Lite/bin/../lib/gcc/arm-none-eabi/4.5.2/../../../../arm-none-eabi/lib/thumb2/libstdc++.a(tinfo.o)
 .data          0x00000000        0x0 /home/reymondo/CodeSourcery/Sourcery_G++_Lite/bin/../lib/gcc/arm-none-eabi/4.5.2/thumb2/libgcc.a(unwind-arm.o)
 .bss           0x00000000        0x0 /home/reymondo/CodeSourcery/Sourcery_G++_Lite/bin/../lib/gcc/arm-none-eabi/4.5.2/thumb2/libgcc.a(unwind-arm.o)
 .data          0x00000000        0x0 /home/reymondo/CodeSourcery/Sourcery_G++_Lite/bin/../lib/gcc/arm-none-eabi/4.5.2/thumb2/libgcc.a(libunwind.o)
 .bss           0x00000000        0x0 /home/reymondo/CodeSourcery/Sourcery_G++_Lite/bin/../lib/gcc/arm-none-eabi/4.5.2/thumb2/libgcc.a(libunwind.o)
 .data          0x00000000        0x0 /home/reymondo/CodeSourcery/Sourcery_G++_Lite/bin/../lib/gcc/arm-none-eabi/4.5.2/thumb2/libgcc.a(pr-support.o)
 .bss           0x00000000        0x0 /home/reymondo/CodeSourcery/Sourcery_G++_Lite/bin/../lib/gcc/arm-none-eabi/4.5.2/thumb2/libgcc.a(pr-support.o)
 .data          0x00000000        0x0 /home/reymondo/CodeSourcery/Sourcery_G++_Lite/bin/../lib/gcc/arm-none-eabi/4.5.2/../../../../arm-none-eabi/lib/thumb2/libc.a(lib_a-abort.o)
 .bss           0x00000000        0x0 /home/reymondo/CodeSourcery/Sourcery_G++_Lite/bin/../lib/gcc/arm-none-eabi/4.5.2/../../../../arm-none-eabi/lib/thumb2/libc.a(lib_a-abort.o)
 .data          0x00000000        0x0 /home/reymondo/CodeSourcery/Sourcery_G++_Lite/bin/../lib/gcc/arm-none-eabi/4.5.2/../../../../arm-none-eabi/lib/thumb2/libc.a(lib_a-fputc.o)
 .bss           0x00000000        0x0 /home/reymondo/CodeSourcery/Sourcery_G++_Lite/bin/../lib/gcc/arm-none-eabi/4.5.2/../../../../arm-none-eabi/lib/thumb2/libc.a(lib_a-fputc.o)
 .data          0x00000000        0x0 /home/reymondo/CodeSourcery/Sourcery_G++_Lite/bin/../lib/gcc/arm-none-eabi/4.5.2/../../../../arm-none-eabi/lib/thumb2/libc.a(lib_a-fputs.o)
 .bss           0x00000000        0x0 /home/reymondo/CodeSourcery/Sourcery_G++_Lite/bin/../lib/gcc/arm-none-eabi/4.5.2/../../../../arm-none-eabi/lib/thumb2/libc.a(lib_a-fputs.o)
 .data          0x00000000        0x0 /home/reymondo/CodeSourcery/Sourcery_G++_Lite/bin/../lib/gcc/arm-none-eabi/4.5.2/../../../../arm-none-eabi/lib/thumb2/libc.a(lib_a-fvwrite.o)
 .bss           0x00000000        0x0 /home/reymondo/CodeSourcery/Sourcery_G++_Lite/bin/../lib/gcc/arm-none-eabi/4.5.2/../../../../arm-none-eabi/lib/thumb2/libc.a(lib_a-fvwrite.o)
 .data          0x00000000        0x0 /home/reymondo/CodeSourcery/Sourcery_G++_Lite/bin/../lib/gcc/arm-none-eabi/4.5.2/../../../../arm-none-eabi/lib/thumb2/libc.a(lib_a-fwrite.o)
 .bss           0x00000000        0x0 /home/reymondo/CodeSourcery/Sourcery_G++_Lite/bin/../lib/gcc/arm-none-eabi/4.5.2/../../../../arm-none-eabi/lib/thumb2/libc.a(lib_a-fwrite.o)
 .text          0x00000000        0x0 /home/reymondo/CodeSourcery/Sourcery_G++_Lite/bin/../lib/gcc/arm-none-eabi/4.5.2/../../../../arm-none-eabi/lib/thumb2/libc.a(lib_a-impure.o)
 .bss           0x00000000        0x0 /home/reymondo/CodeSourcery/Sourcery_G++_Lite/bin/../lib/gcc/arm-none-eabi/4.5.2/../../../../arm-none-eabi/lib/thumb2/libc.a(lib_a-impure.o)
 .data          0x00000000        0x0 /home/reymondo/CodeSourcery/Sourcery_G++_Lite/bin/../lib/gcc/arm-none-eabi/4.5.2/../../../../arm-none-eabi/lib/thumb2/libc.a(lib_a-malloc.o)
 .bss           0x00000000        0x0 /home/reymondo/CodeSourcery/Sourcery_G++_Lite/bin/../lib/gcc/arm-none-eabi/4.5.2/../../../../arm-none-eabi/lib/thumb2/libc.a(lib_a-malloc.o)
 .data          0x00000000        0x0 /home/reymondo/CodeSourcery/Sourcery_G++_Lite/bin/../lib/gcc/arm-none-eabi/4.5.2/../../../../arm-none-eabi/lib/thumb2/libc.a(lib_a-memchr.o)
 .bss           0x00000000        0x0 /home/reymondo/CodeSourcery/Sourcery_G++_Lite/bin/../lib/gcc/arm-none-eabi/4.5.2/../../../../arm-none-eabi/lib/thumb2/libc.a(lib_a-memchr.o)
 .data          0x00000000        0x0 /home/reymondo/CodeSourcery/Sourcery_G++_Lite/bin/../lib/gcc/arm-none-eabi/4.5.2/../../../../arm-none-eabi/lib/thumb2/libc.a(lib_a-memcmp.o)
 .bss           0x00000000        0x0 /home/reymondo/CodeSourcery/Sourcery_G++_Lite/bin/../lib/gcc/arm-none-eabi/4.5.2/../../../../arm-none-eabi/lib/thumb2/libc.a(lib_a-memcmp.o)
 .data          0x00000000        0x0 /home/reymondo/CodeSourcery/Sourcery_G++_Lite/bin/../lib/gcc/arm-none-eabi/4.5.2/../../../../arm-none-eabi/lib/thumb2/libc.a(lib_a-memcpy.o)
 .bss           0x00000000        0x0 /home/reymondo/CodeSourcery/Sourcery_G++_Lite/bin/../lib/gcc/arm-none-eabi/4.5.2/../../../../arm-none-eabi/lib/thumb2/libc.a(lib_a-memcpy.o)
 .data          0x00000000        0x0 /home/reymondo/CodeSourcery/Sourcery_G++_Lite/bin/../lib/gcc/arm-none-eabi/4.5.2/../../../../arm-none-eabi/lib/thumb2/libc.a(lib_a-memmove.o)
 .bss           0x00000000        0x0 /home/reymondo/CodeSourcery/Sourcery_G++_Lite/bin/../lib/gcc/arm-none-eabi/4.5.2/../../../../arm-none-eabi/lib/thumb2/libc.a(lib_a-memmove.o)
 .data          0x00000000        0x0 /home/reymondo/CodeSourcery/Sourcery_G++_Lite/bin/../lib/gcc/arm-none-eabi/4.5.2/../../../../arm-none-eabi/lib/thumb2/libc.a(lib_a-memset.o)
 .bss           0x00000000        0x0 /home/reymondo/CodeSourcery/Sourcery_G++_Lite/bin/../lib/gcc/arm-none-eabi/4.5.2/../../../../arm-none-eabi/lib/thumb2/libc.a(lib_a-memset.o)
 .data          0x00000000        0x0 /home/reymondo/CodeSourcery/Sourcery_G++_Lite/bin/../lib/gcc/arm-none-eabi/4.5.2/../../../../arm-none-eabi/lib/thumb2/libc.a(lib_a-mlock.o)
 .bss           0x00000000        0x0 /home/reymondo/CodeSourcery/Sourcery_G++_Lite/bin/../lib/gcc/arm-none-eabi/4.5.2/../../../../arm-none-eabi/lib/thumb2/libc.a(lib_a-mlock.o)
 .data          0x00000000        0x0 /home/reymondo/CodeSourcery/Sourcery_G++_Lite/bin/../lib/gcc/arm-none-eabi/4.5.2/../../../../arm-none-eabi/lib/thumb2/libc.a(lib_a-putc.o)
 .bss           0x00000000        0x0 /home/reymondo/CodeSourcery/Sourcery_G++_Lite/bin/../lib/gcc/arm-none-eabi/4.5.2/../../../../arm-none-eabi/lib/thumb2/libc.a(lib_a-putc.o)
 .data          0x00000000        0x0 /home/reymondo/CodeSourcery/Sourcery_G++_Lite/bin/../lib/gcc/arm-none-eabi/4.5.2/../../../../arm-none-eabi/lib/thumb2/libc.a(lib_a-realloc.o)
 .bss           0x00000000        0x0 /home/reymondo/CodeSourcery/Sourcery_G++_Lite/bin/../lib/gcc/arm-none-eabi/4.5.2/../../../../arm-none-eabi/lib/thumb2/libc.a(lib_a-realloc.o)
 .data          0x00000000        0x0 /home/reymondo/CodeSourcery/Sourcery_G++_Lite/bin/../lib/gcc/arm-none-eabi/4.5.2/../../../../arm-none-eabi/lib/thumb2/libc.a(lib_a-reallocr.o)
 .bss           0x00000000        0x0 /home/reymondo/CodeSourcery/Sourcery_G++_Lite/bin/../lib/gcc/arm-none-eabi/4.5.2/../../../../arm-none-eabi/lib/thumb2/libc.a(lib_a-reallocr.o)
 .text          0x00000000      0x118 /home/reymondo/CodeSourcery/Sourcery_G++_Lite/bin/../lib/gcc/arm-none-eabi/4.5.2/../../../../arm-none-eabi/lib/thumb2/libc.a(lib_a-reent.o)
 .data          0x00000000        0x0 /home/reymondo/CodeSourcery/Sourcery_G++_Lite/bin/../lib/gcc/arm-none-eabi/4.5.2/../../../../arm-none-eabi/lib/thumb2/libc.a(lib_a-reent.o)
 .bss           0x00000000        0x0 /home/reymondo/CodeSourcery/Sourcery_G++_Lite/bin/../lib/gcc/arm-none-eabi/4.5.2/../../../../arm-none-eabi/lib/thumb2/libc.a(lib_a-reent.o)
 .data          0x00000000        0x0 /home/reymondo/CodeSourcery/Sourcery_G++_Lite/bin/../lib/gcc/arm-none-eabi/4.5.2/../../../../arm-none-eabi/lib/thumb2/libc.a(lib_a-signal.o)
 .bss           0x00000000        0x0 /home/reymondo/CodeSourcery/Sourcery_G++_Lite/bin/../lib/gcc/arm-none-eabi/4.5.2/../../../../arm-none-eabi/lib/thumb2/libc.a(lib_a-signal.o)
 .data          0x00000000        0x0 /home/reymondo/CodeSourcery/Sourcery_G++_Lite/bin/../lib/gcc/arm-none-eabi/4.5.2/../../../../arm-none-eabi/lib/thumb2/libc.a(lib_a-sprintf.o)
 .bss           0x00000000        0x0 /home/reymondo/CodeSourcery/Sourcery_G++_Lite/bin/../lib/gcc/arm-none-eabi/4.5.2/../../../../arm-none-eabi/lib/thumb2/libc.a(lib_a-sprintf.o)
 .data          0x00000000        0x0 /home/reymondo/CodeSourcery/Sourcery_G++_Lite/bin/../lib/gcc/arm-none-eabi/4.5.2/../../../../arm-none-eabi/lib/thumb2/libc.a(lib_a-strcmp.o)
 .bss           0x00000000        0x0 /home/reymondo/CodeSourcery/Sourcery_G++_Lite/bin/../lib/gcc/arm-none-eabi/4.5.2/../../../../arm-none-eabi/lib/thumb2/libc.a(lib_a-strcmp.o)
 .data          0x00000000        0x0 /home/reymondo/CodeSourcery/Sourcery_G++_Lite/bin/../lib/gcc/arm-none-eabi/4.5.2/../../../../arm-none-eabi/lib/thumb2/libc.a(lib_a-strcpy.o)
 .bss           0x00000000        0x0 /home/reymondo/CodeSourcery/Sourcery_G++_Lite/bin/../lib/gcc/arm-none-eabi/4.5.2/../../../../arm-none-eabi/lib/thumb2/libc.a(lib_a-strcpy.o)
 .data          0x00000000        0x0 /home/reymondo/CodeSourcery/Sourcery_G++_Lite/bin/../lib/gcc/arm-none-eabi/4.5.2/../../../../arm-none-eabi/lib/thumb2/libc.a(lib_a-strlen.o)
 .bss           0x00000000        0x0 /home/reymondo/CodeSourcery/Sourcery_G++_Lite/bin/../lib/gcc/arm-none-eabi/4.5.2/../../../../arm-none-eabi/lib/thumb2/libc.a(lib_a-strlen.o)
 .data          0x00000000        0x0 /home/reymondo/CodeSourcery/Sourcery_G++_Lite/bin/../lib/gcc/arm-none-eabi/4.5.2/../../../../arm-none-eabi/lib/thumb2/libc.a(lib_a-strncmp.o)
 .bss           0x00000000        0x0 /home/reymondo/CodeSourcery/Sourcery_G++_Lite/bin/../lib/gcc/arm-none-eabi/4.5.2/../../../../arm-none-eabi/lib/thumb2/libc.a(lib_a-strncmp.o)
 .data          0x00000000        0x0 /home/reymondo/CodeSourcery/Sourcery_G++_Lite/bin/../lib/gcc/arm-none-eabi/4.5.2/../../../../arm-none-eabi/lib/thumb2/libc.a(lib_a-svfprintf.o)
 .bss           0x00000000        0x0 /home/reymondo/CodeSourcery/Sourcery_G++_Lite/bin/../lib/gcc/arm-none-eabi/4.5.2/../../../../arm-none-eabi/lib/thumb2/libc.a(lib_a-svfprintf.o)
 .data          0x00000000        0x0 /home/reymondo/CodeSourcery/Sourcery_G++_Lite/bin/../lib/gcc/arm-none-eabi/4.5.2/../../../../arm-none-eabi/lib/thumb2/libc.a(lib_a-syswrite.o)
 .bss           0x00000000        0x0 /home/reymondo/CodeSourcery/Sourcery_G++_Lite/bin/../lib/gcc/arm-none-eabi/4.5.2/../../../../arm-none-eabi/lib/thumb2/libc.a(lib_a-syswrite.o)
 .data          0x00000000        0x0 /home/reymondo/CodeSourcery/Sourcery_G++_Lite/bin/../lib/gcc/arm-none-eabi/4.5.2/../../../../arm-none-eabi/lib/thumb2/libc.a(lib_a-wbuf.o)
 .bss           0x00000000        0x0 /home/reymondo/CodeSourcery/Sourcery_G++_Lite/bin/../lib/gcc/arm-none-eabi/4.5.2/../../../../arm-none-eabi/lib/thumb2/libc.a(lib_a-wbuf.o)
 .data          0x00000000        0x0 /home/reymondo/CodeSourcery/Sourcery_G++_Lite/bin/../lib/gcc/arm-none-eabi/4.5.2/../../../../arm-none-eabi/lib/thumb2/libc.a(lib_a-wsetup.o)
 .bss           0x00000000        0x0 /home/reymondo/CodeSourcery/Sourcery_G++_Lite/bin/../lib/gcc/arm-none-eabi/4.5.2/../../../../arm-none-eabi/lib/thumb2/libc.a(lib_a-wsetup.o)
 .data          0x00000000        0x0 /home/reymondo/CodeSourcery/Sourcery_G++_Lite/bin/../lib/gcc/arm-none-eabi/4.5.2/../../../../arm-none-eabi/lib/thumb2/libc.a(lib_a-dtoa.o)
 .bss           0x00000000        0x0 /home/reymondo/CodeSourcery/Sourcery_G++_Lite/bin/../lib/gcc/arm-none-eabi/4.5.2/../../../../arm-none-eabi/lib/thumb2/libc.a(lib_a-dtoa.o)
 .data          0x00000000        0x0 /home/reymondo/CodeSourcery/Sourcery_G++_Lite/bin/../lib/gcc/arm-none-eabi/4.5.2/../../../../arm-none-eabi/lib/thumb2/libc.a(lib_a-fflush.o)
 .bss           0x00000000        0x0 /home/reymondo/CodeSourcery/Sourcery_G++_Lite/bin/../lib/gcc/arm-none-eabi/4.5.2/../../../../arm-none-eabi/lib/thumb2/libc.a(lib_a-fflush.o)
 .data          0x00000000        0x0 /home/reymondo/CodeSourcery/Sourcery_G++_Lite/bin/../lib/gcc/arm-none-eabi/4.5.2/../../../../arm-none-eabi/lib/thumb2/libc.a(lib_a-findfp.o)
 .bss           0x00000000        0x0 /home/reymondo/CodeSourcery/Sourcery_G++_Lite/bin/../lib/gcc/arm-none-eabi/4.5.2/../../../../arm-none-eabi/lib/thumb2/libc.a(lib_a-findfp.o)
 .data          0x00000000        0x0 /home/reymondo/CodeSourcery/Sourcery_G++_Lite/bin/../lib/gcc/arm-none-eabi/4.5.2/../../../../arm-none-eabi/lib/thumb2/libc.a(lib_a-freer.o)
 .bss           0x00000000        0x0 /home/reymondo/CodeSourcery/Sourcery_G++_Lite/bin/../lib/gcc/arm-none-eabi/4.5.2/../../../../arm-none-eabi/lib/thumb2/libc.a(lib_a-freer.o)
 .data          0x00000000        0x0 /home/reymondo/CodeSourcery/Sourcery_G++_Lite/bin/../lib/gcc/arm-none-eabi/4.5.2/../../../../arm-none-eabi/lib/thumb2/libc.a(lib_a-fwalk.o)
 .bss           0x00000000        0x0 /home/reymondo/CodeSourcery/Sourcery_G++_Lite/bin/../lib/gcc/arm-none-eabi/4.5.2/../../../../arm-none-eabi/lib/thumb2/libc.a(lib_a-fwalk.o)
 .bss           0x00000000        0xc /home/reymondo/CodeSourcery/Sourcery_G++_Lite/bin/../lib/gcc/arm-none-eabi/4.5.2/../../../../arm-none-eabi/lib/thumb2/libc.a(lib_a-locale.o)
 .data          0x00000000        0x0 /home/reymondo/CodeSourcery/Sourcery_G++_Lite/bin/../lib/gcc/arm-none-eabi/4.5.2/../../../../arm-none-eabi/lib/thumb2/libc.a(lib_a-makebuf.o)
 .bss           0x00000000        0x0 /home/reymondo/CodeSourcery/Sourcery_G++_Lite/bin/../lib/gcc/arm-none-eabi/4.5.2/../../../../arm-none-eabi/lib/thumb2/libc.a(lib_a-makebuf.o)
 .data          0x00000000        0x0 /home/reymondo/CodeSourcery/Sourcery_G++_Lite/bin/../lib/gcc/arm-none-eabi/4.5.2/../../../../arm-none-eabi/lib/thumb2/libc.a(lib_a-mprec.o)
 .bss           0x00000000        0x0 /home/reymondo/CodeSourcery/Sourcery_G++_Lite/bin/../lib/gcc/arm-none-eabi/4.5.2/../../../../arm-none-eabi/lib/thumb2/libc.a(lib_a-mprec.o)
 .data          0x00000000        0x0 /home/reymondo/CodeSourcery/Sourcery_G++_Lite/bin/../lib/gcc/arm-none-eabi/4.5.2/../../../../arm-none-eabi/lib/thumb2/libc.a(lib_a-s_fpclassify.o)
 .bss           0x00000000        0x0 /home/reymondo/CodeSourcery/Sourcery_G++_Lite/bin/../lib/gcc/arm-none-eabi/4.5.2/../../../../arm-none-eabi/lib/thumb2/libc.a(lib_a-s_fpclassify.o)
 .data          0x00000000        0x0 /home/reymondo/CodeSourcery/Sourcery_G++_Lite/bin/../lib/gcc/arm-none-eabi/4.5.2/../../../../arm-none-eabi/lib/thumb2/libc.a(lib_a-stdio.o)
 .bss           0x00000000        0x0 /home/reymondo/CodeSourcery/Sourcery_G++_Lite/bin/../lib/gcc/arm-none-eabi/4.5.2/../../../../arm-none-eabi/lib/thumb2/libc.a(lib_a-stdio.o)
 .data          0x00000000        0x0 /home/reymondo/CodeSourcery/Sourcery_G++_Lite/bin/../lib/gcc/arm-none-eabi/4.5.2/../../../../arm-none-eabi/lib/thumb2/libc.a(lib_a-svfiprintf.o)
 .bss           0x00000000        0x0 /home/reymondo/CodeSourcery/Sourcery_G++_Lite/bin/../lib/gcc/arm-none-eabi/4.5.2/../../../../arm-none-eabi/lib/thumb2/libc.a(lib_a-svfiprintf.o)
 .data          0x00000000        0x0 /home/reymondo/CodeSourcery/Sourcery_G++_Lite/bin/../lib/gcc/arm-none-eabi/4.5.2/../../../../arm-none-eabi/lib/thumb2/libc.a(lib_a-callocr.o)
 .bss           0x00000000        0x0 /home/reymondo/CodeSourcery/Sourcery_G++_Lite/bin/../lib/gcc/arm-none-eabi/4.5.2/../../../../arm-none-eabi/lib/thumb2/libc.a(lib_a-callocr.o)
 .data          0x00000000        0x0 /home/reymondo/CodeSourcery/Sourcery_G++_Lite/bin/../lib/gcc/arm-none-eabi/4.5.2/../../../../arm-none-eabi/lib/thumb2/libc.a(lib_a-fclose.o)
 .bss           0x00000000        0x0 /home/reymondo/CodeSourcery/Sourcery_G++_Lite/bin/../lib/gcc/arm-none-eabi/4.5.2/../../../../arm-none-eabi/lib/thumb2/libc.a(lib_a-fclose.o)
 .data          0x00000000        0x0 /home/reymondo/CodeSourcery/Sourcery_G++_Lite/bin/../lib/gcc/arm-none-eabi/4.5.2/thumb2/libgcc.a(_udivsi3.o)
 .bss           0x00000000        0x0 /home/reymondo/CodeSourcery/Sourcery_G++_Lite/bin/../lib/gcc/arm-none-eabi/4.5.2/thumb2/libgcc.a(_udivsi3.o)
 .data          0x00000000        0x0 /home/reymondo/CodeSourcery/Sourcery_G++_Lite/bin/../lib/gcc/arm-none-eabi/4.5.2/thumb2/libgcc.a(_dvmd_tls.o)
 .bss           0x00000000        0x0 /home/reymondo/CodeSourcery/Sourcery_G++_Lite/bin/../lib/gcc/arm-none-eabi/4.5.2/thumb2/libgcc.a(_dvmd_tls.o)
 .data          0x00000000        0x0 /home/reymondo/CodeSourcery/Sourcery_G++_Lite/bin/../lib/gcc/arm-none-eabi/4.5.2/thumb2/libgcc.a(_arm_addsubdf3.o)
 .bss           0x00000000        0x0 /home/reymondo/CodeSourcery/Sourcery_G++_Lite/bin/../lib/gcc/arm-none-eabi/4.5.2/thumb2/libgcc.a(_arm_addsubdf3.o)
 .data          0x00000000        0x0 /home/reymondo/CodeSourcery/Sourcery_G++_Lite/bin/../lib/gcc/arm-none-eabi/4.5.2/thumb2/libgcc.a(_arm_muldivdf3.o)
 .bss           0x00000000        0x0 /home/reymondo/CodeSourcery/Sourcery_G++_Lite/bin/../lib/gcc/arm-none-eabi/4.5.2/thumb2/libgcc.a(_arm_muldivdf3.o)
 .data          0x00000000        0x0 /home/reymondo/CodeSourcery/Sourcery_G++_Lite/bin/../lib/gcc/arm-none-eabi/4.5.2/thumb2/libgcc.a(_arm_cmpdf2.o)
 .bss           0x00000000        0x0 /home/reymondo/CodeSourcery/Sourcery_G++_Lite/bin/../lib/gcc/arm-none-eabi/4.5.2/thumb2/libgcc.a(_arm_cmpdf2.o)
 .data          0x00000000        0x0 /home/reymondo/CodeSourcery/Sourcery_G++_Lite/bin/../lib/gcc/arm-none-eabi/4.5.2/thumb2/libgcc.a(_arm_fixdfsi.o)
 .bss           0x00000000        0x0 /home/reymondo/CodeSourcery/Sourcery_G++_Lite/bin/../lib/gcc/arm-none-eabi/4.5.2/thumb2/libgcc.a(_arm_fixdfsi.o)
 .data          0x00000000        0x0 /home/reymondo/CodeSourcery/Sourcery_G++_Lite/bin/../lib/gcc/arm-none-eabi/4.5.2/thumb2/libgcc.a(_aeabi_uldivmod.o)
 .bss           0x00000000        0x0 /home/reymondo/CodeSourcery/Sourcery_G++_Lite/bin/../lib/gcc/arm-none-eabi/4.5.2/thumb2/libgcc.a(_aeabi_uldivmod.o)
 .data          0x00000000        0x0 /home/reymondo/CodeSourcery/Sourcery_G++_Lite/bin/../lib/gcc/arm-none-eabi/4.5.2/thumb2/libgcc.a(bpabi.o)
 .bss           0x00000000        0x0 /home/reymondo/CodeSourcery/Sourcery_G++_Lite/bin/../lib/gcc/arm-none-eabi/4.5.2/thumb2/libgcc.a(bpabi.o)
 .data          0x00000000        0x0 /home/reymondo/CodeSourcery/Sourcery_G++_Lite/bin/../lib/gcc/arm-none-eabi/4.5.2/thumb2/libgcc.a(_divdi3.o)
 .bss           0x00000000        0x0 /home/reymondo/CodeSourcery/Sourcery_G++_Lite/bin/../lib/gcc/arm-none-eabi/4.5.2/thumb2/libgcc.a(_divdi3.o)
 .ARM.extab     0x00000000        0x0 /home/reymondo/CodeSourcery/Sourcery_G++_Lite/bin/../lib/gcc/arm-none-eabi/4.5.2/thumb2/libgcc.a(_divdi3.o)
 .data          0x00000000        0x0 /home/reymondo/CodeSourcery/Sourcery_G++_Lite/bin/../lib/gcc/arm-none-eabi/4.5.2/thumb2/libgcc.a(_udivdi3.o)
 .bss           0x00000000        0x0 /home/reymondo/CodeSourcery/Sourcery_G++_Lite/bin/../lib/gcc/arm-none-eabi/4.5.2/thumb2/libgcc.a(_udivdi3.o)
 .ARM.extab     0x00000000        0x0 /home/reymondo/CodeSourcery/Sourcery_G++_Lite/bin/../lib/gcc/arm-none-eabi/4.5.2/thumb2/libgcc.a(_udivdi3.o)
 .text          0x00000000        0x0 /home/reymondo/CodeSourcery/Sourcery_G++_Lite/bin/../lib/gcc/arm-none-eabi/4.5.2/thumb2/crtend.o
 .data          0x00000000        0x0 /home/reymondo/CodeSourcery/Sourcery_G++_Lite/bin/../lib/gcc/arm-none-eabi/4.5.2/thumb2/crtend.o
 .bss           0x00000000        0x0 /home/reymondo/CodeSourcery/Sourcery_G++_Lite/bin/../lib/gcc/arm-none-eabi/4.5.2/thumb2/crtend.o
 .jcr           0x00000000        0x4 /home/reymondo/CodeSourcery/Sourcery_G++_Lite/bin/../lib/gcc/arm-none-eabi/4.5.2/thumb2/crtend.o
 .text          0x00000000        0x0 /home/reymondo/CodeSourcery/Sourcery_G++_Lite/bin/../lib/gcc/arm-none-eabi/4.5.2/thumb2/crtn.o
 .data          0x00000000        0x0 /home/reymondo/CodeSourcery/Sourcery_G++_Lite/bin/../lib/gcc/arm-none-eabi/4.5.2/thumb2/crtn.o
 .bss           0x00000000        0x0 /home/reymondo/CodeSourcery/Sourcery_G++_Lite/bin/../lib/gcc/arm-none-eabi/4.5.2/thumb2/crtn.o
 .init          0x00000000        0x8 /home/reymondo/CodeSourcery/Sourcery_G++_Lite/bin/../lib/gcc/arm-none-eabi/4.5.2/thumb2/crtn.o
 .fini          0x00000000        0x8 /home/reymondo/CodeSourcery/Sourcery_G++_Lite/bin/../lib/gcc/arm-none-eabi/4.5.2/thumb2/crtn.o

Memory Configuration

Name             Origin             Length             Attributes
FLASH            0x08000000         0x00040000         xr
RAM              0x20000000         0x00010000         xrw
*default*        0x00000000         0xffffffff

Linker script and memory map

LOAD /home/reymondo/CodeSourcery/Sourcery_G++_Lite/bin/../lib/gcc/arm-none-eabi/4.5.2/thumb2/crti.o
LOAD /home/reymondo/CodeSourcery/Sourcery_G++_Lite/bin/../lib/gcc/arm-none-eabi/4.5.2/thumb2/crtbegin.o
LOAD out/startup_stm32f10x_cl.o
LOAD out/stm32f10x_it.o
LOAD out/syscalls.o
LOAD out/vectors.o
LOAD out/core_cm3.o
LOAD out/system_stm32f10x.o
LOAD out/misc.o
LOAD out/stm32f10x_adc.o
LOAD out/stm32f10x_bkp.o
LOAD out/stm32f10x_can.o
LOAD out/stm32f10x_cec.o
LOAD out/stm32f10x_crc.o
LOAD out/stm32f10x_dac.o
LOAD out/stm32f10x_dbgmcu.o
LOAD out/stm32f10x_dma.o
LOAD out/stm32f10x_exti.o
LOAD out/stm32f10x_flash.o
LOAD out/stm32f10x_fsmc.o
LOAD out/stm32f10x_gpio.o
LOAD out/stm32f10x_i2c.o
LOAD out/stm32f10x_iwdg.o
LOAD out/stm32f10x_pwr.o
LOAD out/stm32f10x_rcc.o
LOAD out/stm32f10x_rtc.o
LOAD out/stm32f10x_sdio.o
LOAD out/stm32f10x_spi.o
LOAD out/stm32f10x_tim.o
LOAD out/stm32f10x_usart.o
LOAD out/stm32f10x_wwdg.o
LOAD out/main.o
LOAD out/CGpioManager.o
LOAD out/CRccManager.o
LOAD out/CUsartIrqHandler.o
LOAD out/CUsartStateRunning.o
LOAD out/CUsartStateUnusable.o
LOAD out/CUsartStateUsable.o
LOAD /home/reymondo/CodeSourcery/Sourcery_G++_Lite/bin/../lib/gcc/arm-none-eabi/4.5.2/../../../../arm-none-eabi/lib/thumb2/libstdc++.a
LOAD /home/reymondo/CodeSourcery/Sourcery_G++_Lite/bin/../lib/gcc/arm-none-eabi/4.5.2/../../../../arm-none-eabi/lib/thumb2/libm.a
START GROUP
LOAD /home/reymondo/CodeSourcery/Sourcery_G++_Lite/bin/../lib/gcc/arm-none-eabi/4.5.2/thumb2/libgcc.a
LOAD /home/reymondo/CodeSourcery/Sourcery_G++_Lite/bin/../lib/gcc/arm-none-eabi/4.5.2/../../../../arm-none-eabi/lib/thumb2/libc.a
END GROUP
LOAD /home/reymondo/CodeSourcery/Sourcery_G++_Lite/bin/../lib/gcc/arm-none-eabi/4.5.2/thumb2/crtend.o
LOAD /home/reymondo/CodeSourcery/Sourcery_G++_Lite/bin/../lib/gcc/arm-none-eabi/4.5.2/thumb2/crtn.o
                0x00000400                __Stack_Size = 0x400
                0x00000400                PROVIDE (_Stack_Size, __Stack_Size)
                0x2000fbff                __Stack_Init = (_estack - __Stack_Size)
                0x2000fbff                PROVIDE (_Stack_Init, __Stack_Init)
                0x00000100                _Minimum_Stack_Size = 0x100
                0x20000000                __ram_start = 0x20000000
                0x00010000                __ram_size = 0x10000
                0x20010000                __ram_end = (__ram_start + __ram_size)
                0x2000ffff                _estack = 0x2000ffff

.isr_vector     0x08000000      0x1e4
                0x08000000                . = ALIGN (0x4)
 *(.isr_vector)
 .isr_vector    0x08000000      0x1e4 out/startup_stm32f10x_cl.o
                0x08000000                g_pfnVectors
                0x080001e4                . = ALIGN (0x4)

.ARM.extab.text._Znwj
                0x080001e4       0x20
 .ARM.extab.text._Znwj
                0x080001e4       0x20 /home/reymondo/CodeSourcery/Sourcery_G++_Lite/bin/../lib/gcc/arm-none-eabi/4.5.2/../../../../arm-none-eabi/lib/thumb2/libstdc++.a(new_op.o)

.ARM.extab.text.__gxx_personality_v0
                0x08000204       0x24
 .ARM.extab.text.__gxx_personality_v0
                0x08000204       0x24 /home/reymondo/CodeSourcery/Sourcery_G++_Lite/bin/../lib/gcc/arm-none-eabi/4.5.2/../../../../arm-none-eabi/lib/thumb2/libstdc++.a(eh_personality.o)

.ARM.extab.text.__cxa_pure_virtual
                0x08000228        0xc
 .ARM.extab.text.__cxa_pure_virtual
                0x08000228        0xc /home/reymondo/CodeSourcery/Sourcery_G++_Lite/bin/../lib/gcc/arm-none-eabi/4.5.2/../../../../arm-none-eabi/lib/thumb2/libstdc++.a(pure.o)

.ARM.extab.text.__cxa_begin_catch
                0x08000234       0x20
 .ARM.extab.text.__cxa_begin_catch
                0x08000234       0x20 /home/reymondo/CodeSourcery/Sourcery_G++_Lite/bin/../lib/gcc/arm-none-eabi/4.5.2/../../../../arm-none-eabi/lib/thumb2/libstdc++.a(eh_catch.o)

.ARM.extab.text._ZN10__cxxabiv111__terminateEPFvvE
                0x08000254       0x2c
 .ARM.extab.text._ZN10__cxxabiv111__terminateEPFvvE
                0x08000254       0x2c /home/reymondo/CodeSourcery/Sourcery_G++_Lite/bin/../lib/gcc/arm-none-eabi/4.5.2/../../../../arm-none-eabi/lib/thumb2/libstdc++.a(eh_terminate.o)

.ARM.extab.text._ZN10__cxxabiv112__unexpectedEPFvvE
                0x08000280        0xc
 .ARM.extab.text._ZN10__cxxabiv112__unexpectedEPFvvE
                0x08000280        0xc /home/reymondo/CodeSourcery/Sourcery_G++_Lite/bin/../lib/gcc/arm-none-eabi/4.5.2/../../../../arm-none-eabi/lib/thumb2/libstdc++.a(eh_terminate.o)

.ARM.extab.text._ZSt10unexpectedv
                0x0800028c        0xc
 .ARM.extab.text._ZSt10unexpectedv
                0x0800028c        0xc /home/reymondo/CodeSourcery/Sourcery_G++_Lite/bin/../lib/gcc/arm-none-eabi/4.5.2/../../../../arm-none-eabi/lib/thumb2/libstdc++.a(eh_terminate.o)

.ARM.extab.text.__cxa_call_unexpected
                0x08000298       0x28
 .ARM.extab.text.__cxa_call_unexpected
                0x08000298       0x28 /home/reymondo/CodeSourcery/Sourcery_G++_Lite/bin/../lib/gcc/arm-none-eabi/4.5.2/../../../../arm-none-eabi/lib/thumb2/libstdc++.a(eh_call.o)

.ARM.extab.text._ZN9__gnu_cxx27__verbose_terminate_handlerEv
                0x080002c0       0x40
 .ARM.extab.text._ZN9__gnu_cxx27__verbose_terminate_handlerEv
                0x080002c0       0x40 /home/reymondo/CodeSourcery/Sourcery_G++_Lite/bin/../lib/gcc/arm-none-eabi/4.5.2/../../../../arm-none-eabi/lib/thumb2/libstdc++.a(vterminate.o)

.ARM.extab      0x08000300       0x30
 .ARM.extab     0x08000300       0x18 /home/reymondo/CodeSourcery/Sourcery_G++_Lite/bin/../lib/gcc/arm-none-eabi/4.5.2/thumb2/libgcc.a(unwind-arm.o)
 .ARM.extab     0x08000318       0x18 /home/reymondo/CodeSourcery/Sourcery_G++_Lite/bin/../lib/gcc/arm-none-eabi/4.5.2/thumb2/libgcc.a(pr-support.o)

.text           0x08000330    0x15ae0
                0x08000330                . = ALIGN (0x4)
 *(.text)
 .text          0x08000330        0xc /home/reymondo/CodeSourcery/Sourcery_G++_Lite/bin/../lib/gcc/arm-none-eabi/4.5.2/../../../../arm-none-eabi/lib/thumb2/libstdc++.a(eh_arm.o)
                0x08000330                __cxa_end_cleanup
 .text          0x0800033c     0x912c /home/reymondo/CodeSourcery/Sourcery_G++_Lite/bin/../lib/gcc/arm-none-eabi/4.5.2/../../../../arm-none-eabi/lib/thumb2/libstdc++.a(cp-demangle.o)
                0x08009360                __cxa_demangle
                0x0800943c                __gcclibcxx_demangle_callback
 .text          0x08009468      0xc38 /home/reymondo/CodeSourcery/Sourcery_G++_Lite/bin/../lib/gcc/arm-none-eabi/4.5.2/thumb2/libgcc.a(unwind-arm.o)
                0x08009744                _Unwind_VRS_Get
                0x08009790                _Unwind_VRS_Set
                0x08009b2c                __aeabi_unwind_cpp_pr2
                0x08009b30                __aeabi_unwind_cpp_pr1
                0x08009b34                __aeabi_unwind_cpp_pr0
                0x08009b38                _Unwind_VRS_Pop
                0x08009f20                _Unwind_GetCFA
                0x08009f24                __gnu_Unwind_RaiseException
                0x08009f94                __gnu_Unwind_ForcedUnwind
                0x08009fa8                __gnu_Unwind_Resume
                0x08009fe4                __gnu_Unwind_Resume_or_Rethrow
                0x08009ffc                _Unwind_Complete
                0x0800a000                _Unwind_DeleteException
                0x0800a010                __gnu_Unwind_Backtrace
 .text          0x0800a0a0      0x1ac /home/reymondo/CodeSourcery/Sourcery_G++_Lite/bin/../lib/gcc/arm-none-eabi/4.5.2/thumb2/libgcc.a(libunwind.o)
                0x0800a0a0                __restore_core_regs
                0x0800a0a0                restore_core_regs
                0x0800a0b8                __gnu_Unwind_Restore_VFP
                0x0800a0c0                __gnu_Unwind_Save_VFP
                0x0800a0c8                __gnu_Unwind_Restore_VFP_D
                0x0800a0d0                __gnu_Unwind_Save_VFP_D
                0x0800a0d8                __gnu_Unwind_Restore_VFP_D_16_to_31
                0x0800a0e0                __gnu_Unwind_Save_VFP_D_16_to_31
                0x0800a0e8                __gnu_Unwind_Restore_WMMXD
                0x0800a12c                __gnu_Unwind_Save_WMMXD
                0x0800a170                __gnu_Unwind_Restore_WMMXC
                0x0800a184                __gnu_Unwind_Save_WMMXC
                0x0800a198                ___Unwind_RaiseException
                0x0800a198                _Unwind_RaiseException
                0x0800a1bc                ___Unwind_Resume
                0x0800a1bc                _Unwind_Resume
                0x0800a1e0                _Unwind_Resume_or_Rethrow
                0x0800a1e0                ___Unwind_Resume_or_Rethrow
                0x0800a204                ___Unwind_ForcedUnwind
                0x0800a204                _Unwind_ForcedUnwind
                0x0800a228                _Unwind_Backtrace
                0x0800a228                ___Unwind_Backtrace
 .text          0x0800a24c      0x3c0 /home/reymondo/CodeSourcery/Sourcery_G++_Lite/bin/../lib/gcc/arm-none-eabi/4.5.2/thumb2/libgcc.a(pr-support.o)
                0x0800a2a0                __gnu_unwind_execute
                0x0800a5b0                __gnu_unwind_frame
                0x0800a5dc                _Unwind_GetRegionStart
                0x0800a5e8                _Unwind_GetLanguageSpecificData
                0x0800a5fc                _Unwind_GetDataRelBase
                0x0800a604                _Unwind_GetTextRelBase
 .text          0x0800a60c       0x10 /home/reymondo/CodeSourcery/Sourcery_G++_Lite/bin/../lib/gcc/arm-none-eabi/4.5.2/../../../../arm-none-eabi/lib/thumb2/libc.a(lib_a-abort.o)
                0x0800a60c                abort
 .text          0x0800a61c       0xac /home/reymondo/CodeSourcery/Sourcery_G++_Lite/bin/../lib/gcc/arm-none-eabi/4.5.2/../../../../arm-none-eabi/lib/thumb2/libc.a(lib_a-fputc.o)
                0x0800a61c                _fputc_r
                0x0800a670                fputc
 .text          0x0800a6c8       0x90 /home/reymondo/CodeSourcery/Sourcery_G++_Lite/bin/../lib/gcc/arm-none-eabi/4.5.2/../../../../arm-none-eabi/lib/thumb2/libc.a(lib_a-fputs.o)
                0x0800a6c8                _fputs_r
                0x0800a748                fputs
 .text          0x0800a758      0x338 /home/reymondo/CodeSourcery/Sourcery_G++_Lite/bin/../lib/gcc/arm-none-eabi/4.5.2/../../../../arm-none-eabi/lib/thumb2/libc.a(lib_a-fvwrite.o)
                0x0800a758                __sfvwrite_r
 .text          0x0800aa90       0xc0 /home/reymondo/CodeSourcery/Sourcery_G++_Lite/bin/../lib/gcc/arm-none-eabi/4.5.2/../../../../arm-none-eabi/lib/thumb2/libc.a(lib_a-fwrite.o)
                0x0800aa90                _fwrite_r
                0x0800ab2c                fwrite
 .text          0x0800ab50       0x20 /home/reymondo/CodeSourcery/Sourcery_G++_Lite/bin/../lib/gcc/arm-none-eabi/4.5.2/../../../../arm-none-eabi/lib/thumb2/libc.a(lib_a-malloc.o)
                0x0800ab50                malloc
                0x0800ab60                free
 .text          0x0800ab70      0x57c /home/reymondo/CodeSourcery/Sourcery_G++_Lite/bin/../lib/gcc/arm-none-eabi/4.5.2/../../../../arm-none-eabi/lib/thumb2/libc.a(lib_a-mallocr.o)
                0x0800ab70                _malloc_r
 .text          0x0800b0ec       0x8c /home/reymondo/CodeSourcery/Sourcery_G++_Lite/bin/../lib/gcc/arm-none-eabi/4.5.2/../../../../arm-none-eabi/lib/thumb2/libc.a(lib_a-memchr.o)
                0x0800b0ec                memchr
 .text          0x0800b178       0x64 /home/reymondo/CodeSourcery/Sourcery_G++_Lite/bin/../lib/gcc/arm-none-eabi/4.5.2/../../../../arm-none-eabi/lib/thumb2/libc.a(lib_a-memcmp.o)
                0x0800b178                memcmp
 .text          0x0800b1dc      0x150 /home/reymondo/CodeSourcery/Sourcery_G++_Lite/bin/../lib/gcc/arm-none-eabi/4.5.2/../../../../arm-none-eabi/lib/thumb2/libc.a(lib_a-memcpy.o)
                0x0800b1dc                memcpy
 .text          0x0800b32c       0xb4 /home/reymondo/CodeSourcery/Sourcery_G++_Lite/bin/../lib/gcc/arm-none-eabi/4.5.2/../../../../arm-none-eabi/lib/thumb2/libc.a(lib_a-memmove.o)
                0x0800b32c                memmove
 .text          0x0800b3e0       0xb4 /home/reymondo/CodeSourcery/Sourcery_G++_Lite/bin/../lib/gcc/arm-none-eabi/4.5.2/../../../../arm-none-eabi/lib/thumb2/libc.a(lib_a-memset.o)
                0x0800b3e0                memset
 .text          0x0800b494        0x8 /home/reymondo/CodeSourcery/Sourcery_G++_Lite/bin/../lib/gcc/arm-none-eabi/4.5.2/../../../../arm-none-eabi/lib/thumb2/libc.a(lib_a-mlock.o)
                0x0800b494                __malloc_lock
                0x0800b498                __malloc_unlock
 .text          0x0800b49c      0x138 /home/reymondo/CodeSourcery/Sourcery_G++_Lite/bin/../lib/gcc/arm-none-eabi/4.5.2/../../../../arm-none-eabi/lib/thumb2/libc.a(lib_a-putc.o)
                0x0800b49c                _putc_r
                0x0800b52c                putc
 .text          0x0800b5d4       0x14 /home/reymondo/CodeSourcery/Sourcery_G++_Lite/bin/../lib/gcc/arm-none-eabi/4.5.2/../../../../arm-none-eabi/lib/thumb2/libc.a(lib_a-realloc.o)
                0x0800b5d4                realloc
 .text          0x0800b5e8      0x41c /home/reymondo/CodeSourcery/Sourcery_G++_Lite/bin/../lib/gcc/arm-none-eabi/4.5.2/../../../../arm-none-eabi/lib/thumb2/libc.a(lib_a-reallocr.o)
                0x0800b5e8                _realloc_r
 .text          0x0800ba04      0x154 /home/reymondo/CodeSourcery/Sourcery_G++_Lite/bin/../lib/gcc/arm-none-eabi/4.5.2/../../../../arm-none-eabi/lib/thumb2/libc.a(lib_a-signal.o)
                0x0800ba04                _init_signal_r
                0x0800ba34                _signal_r
                0x0800ba70                _raise_r
                0x0800bac8                __sigtramp_r
                0x0800bb1c                raise
                0x0800bb2c                signal
                0x0800bb3c                _init_signal
                0x0800bb48                __sigtramp
 .text          0x0800bb58       0x94 /home/reymondo/CodeSourcery/Sourcery_G++_Lite/bin/../lib/gcc/arm-none-eabi/4.5.2/../../../../arm-none-eabi/lib/thumb2/libc.a(lib_a-sprintf.o)
                0x0800bb58                _sprintf_r
                0x0800bb9c                sprintf
 .text          0x0800bbec      0x1dc /home/reymondo/CodeSourcery/Sourcery_G++_Lite/bin/../lib/gcc/arm-none-eabi/4.5.2/../../../../arm-none-eabi/lib/thumb2/libc.a(lib_a-strcmp.o)
                0x0800bbec                strcmp
 .text          0x0800bdc8       0xbc /home/reymondo/CodeSourcery/Sourcery_G++_Lite/bin/../lib/gcc/arm-none-eabi/4.5.2/../../../../arm-none-eabi/lib/thumb2/libc.a(lib_a-strcpy.o)
                0x0800bdc8                strcpy
 .text          0x0800be84       0x60 /home/reymondo/CodeSourcery/Sourcery_G++_Lite/bin/../lib/gcc/arm-none-eabi/4.5.2/../../../../arm-none-eabi/lib/thumb2/libc.a(lib_a-strlen.o)
                0x0800be84                strlen
 .text          0x0800bee4       0xac /home/reymondo/CodeSourcery/Sourcery_G++_Lite/bin/../lib/gcc/arm-none-eabi/4.5.2/../../../../arm-none-eabi/lib/thumb2/libc.a(lib_a-strncmp.o)
                0x0800bee4                strncmp
 .text          0x0800bf90     0x1640 /home/reymondo/CodeSourcery/Sourcery_G++_Lite/bin/../lib/gcc/arm-none-eabi/4.5.2/../../../../arm-none-eabi/lib/thumb2/libc.a(lib_a-svfprintf.o)
                0x0800bf90                _svfprintf_r
 .text          0x0800d5d0       0x1c /home/reymondo/CodeSourcery/Sourcery_G++_Lite/bin/../lib/gcc/arm-none-eabi/4.5.2/../../../../arm-none-eabi/lib/thumb2/libc.a(lib_a-syswrite.o)
                0x0800d5d0                write
 .text          0x0800d5ec       0xfc /home/reymondo/CodeSourcery/Sourcery_G++_Lite/bin/../lib/gcc/arm-none-eabi/4.5.2/../../../../arm-none-eabi/lib/thumb2/libc.a(lib_a-wbuf.o)
                0x0800d5ec                __swbuf_r
                0x0800d6d8                __swbuf
 .text          0x0800d6e8      0x104 /home/reymondo/CodeSourcery/Sourcery_G++_Lite/bin/../lib/gcc/arm-none-eabi/4.5.2/../../../../arm-none-eabi/lib/thumb2/libc.a(lib_a-wsetup.o)
                0x0800d6e8                __swsetup_r
 *fill*         0x0800d7ec        0x4 00
 .text          0x0800d7f0      0xfe8 /home/reymondo/CodeSourcery/Sourcery_G++_Lite/bin/../lib/gcc/arm-none-eabi/4.5.2/../../../../arm-none-eabi/lib/thumb2/libc.a(lib_a-dtoa.o)
                0x0800d91c                _dtoa_r
 .text          0x0800e7d8      0x1ec /home/reymondo/CodeSourcery/Sourcery_G++_Lite/bin/../lib/gcc/arm-none-eabi/4.5.2/../../../../arm-none-eabi/lib/thumb2/libc.a(lib_a-fflush.o)
                0x0800e7d8                _fflush_r
                0x0800e99c                fflush
 .text          0x0800e9c4      0x220 /home/reymondo/CodeSourcery/Sourcery_G++_Lite/bin/../lib/gcc/arm-none-eabi/4.5.2/../../../../arm-none-eabi/lib/thumb2/libc.a(lib_a-findfp.o)
                0x0800e9cc                _cleanup_r
                0x0800e9d8                __sfmoreglue
                0x0800ea08                _cleanup
                0x0800ea14                __sinit
                0x0800eb1c                __sfp
                0x0800eba4                __sfp_lock_acquire
                0x0800eba8                __sfp_lock_release
                0x0800ebac                __sinit_lock_acquire
                0x0800ebb0                __sinit_lock_release
                0x0800ebb4                __fp_lock_all
                0x0800ebcc                __fp_unlock_all
 .text          0x0800ebe4      0x240 /home/reymondo/CodeSourcery/Sourcery_G++_Lite/bin/../lib/gcc/arm-none-eabi/4.5.2/../../../../arm-none-eabi/lib/thumb2/libc.a(lib_a-freer.o)
                0x0800ebe4                _malloc_trim_r
                0x0800ec8c                _free_r
 .text          0x0800ee24       0xac /home/reymondo/CodeSourcery/Sourcery_G++_Lite/bin/../lib/gcc/arm-none-eabi/4.5.2/../../../../arm-none-eabi/lib/thumb2/libc.a(lib_a-fwalk.o)
                0x0800ee24                _fwalk
                0x0800ee78                _fwalk_reent
 .text          0x0800eed0       0xa0 /home/reymondo/CodeSourcery/Sourcery_G++_Lite/bin/../lib/gcc/arm-none-eabi/4.5.2/../../../../arm-none-eabi/lib/thumb2/libc.a(lib_a-locale.o)
                0x0800eed0                _setlocale_r
                0x0800ef2c                __locale_charset
                0x0800ef38                __locale_mb_cur_max
                0x0800ef44                __locale_msgcharset
                0x0800ef4c                __locale_cjk_lang
                0x0800ef50                _localeconv_r
                0x0800ef58                setlocale
                0x0800ef68                localeconv
 .text          0x0800ef70       0xec /home/reymondo/CodeSourcery/Sourcery_G++_Lite/bin/../lib/gcc/arm-none-eabi/4.5.2/../../../../arm-none-eabi/lib/thumb2/libc.a(lib_a-makebuf.o)
                0x0800ef70                __smakebuf_r
 .text          0x0800f05c      0x91c /home/reymondo/CodeSourcery/Sourcery_G++_Lite/bin/../lib/gcc/arm-none-eabi/4.5.2/../../../../arm-none-eabi/lib/thumb2/libc.a(lib_a-mprec.o)
                0x0800f05c                _Balloc
                0x0800f0c4                _Bfree
                0x0800f0fc                __multadd
                0x0800f180                __s2b
                0x0800f218                __hi0bits
                0x0800f258                __lo0bits
                0x0800f2bc                __i2b
                0x0800f2d0                __multiply
                0x0800f3f8                __pow5mult
                0x0800f49c                __lshift
                0x0800f548                __mcmp
                0x0800f584                __mdiff
                0x0800f67c                __ulp
                0x0800f6c4                __b2d
                0x0800f770                __d2b
                0x0800f838                __ratio
                0x0800f8a0                _mprec_log10
                0x0800f8d4                __copybits
                0x0800f91c                __any_on
 .text          0x0800f978       0x90 /home/reymondo/CodeSourcery/Sourcery_G++_Lite/bin/../lib/gcc/arm-none-eabi/4.5.2/../../../../arm-none-eabi/lib/thumb2/libc.a(lib_a-s_fpclassify.o)
                0x0800f978                __fpclassifyd
 .text          0x0800fa08       0x94 /home/reymondo/CodeSourcery/Sourcery_G++_Lite/bin/../lib/gcc/arm-none-eabi/4.5.2/../../../../arm-none-eabi/lib/thumb2/libc.a(lib_a-stdio.o)
                0x0800fa08                __sread
                0x0800fa2c                __seofread
                0x0800fa30                __swrite
                0x0800fa6c                __sseek
                0x0800fa94                __sclose
 .text          0x0800fa9c      0xbe8 /home/reymondo/CodeSourcery/Sourcery_G++_Lite/bin/../lib/gcc/arm-none-eabi/4.5.2/../../../../arm-none-eabi/lib/thumb2/libc.a(lib_a-svfiprintf.o)
                0x0800fa9c                __ssprint_r
                0x0800fba4                _svfiprintf_r
 .text          0x08010684       0x5c /home/reymondo/CodeSourcery/Sourcery_G++_Lite/bin/../lib/gcc/arm-none-eabi/4.5.2/../../../../arm-none-eabi/lib/thumb2/libc.a(lib_a-callocr.o)
                0x08010684                _calloc_r
 .text          0x080106e0       0xc4 /home/reymondo/CodeSourcery/Sourcery_G++_Lite/bin/../lib/gcc/arm-none-eabi/4.5.2/../../../../arm-none-eabi/lib/thumb2/libc.a(lib_a-fclose.o)
                0x080106e0                _fclose_r
                0x08010794                fclose
 *fill*         0x080107a4        0x4 00
 .text          0x080107a8      0x278 /home/reymondo/CodeSourcery/Sourcery_G++_Lite/bin/../lib/gcc/arm-none-eabi/4.5.2/thumb2/libgcc.a(_udivsi3.o)
                0x080107a8                __udivsi3
                0x080107a8                __aeabi_uidiv
                0x08010a04                __aeabi_uidivmod
 .text          0x08010a20        0x4 /home/reymondo/CodeSourcery/Sourcery_G++_Lite/bin/../lib/gcc/arm-none-eabi/4.5.2/thumb2/libgcc.a(_dvmd_tls.o)
                0x08010a20                __aeabi_ldiv0
                0x08010a20                __aeabi_idiv0
 .text          0x08010a24      0x370 /home/reymondo/CodeSourcery/Sourcery_G++_Lite/bin/../lib/gcc/arm-none-eabi/4.5.2/thumb2/libgcc.a(_arm_addsubdf3.o)
                0x08010a24                __aeabi_drsub
                0x08010a2c                __aeabi_dsub
                0x08010a2c                __subdf3
                0x08010a30                __adddf3
                0x08010a30                __aeabi_dadd
                0x08010ca8                __aeabi_ui2d
                0x08010ca8                __floatunsidf
                0x08010cc8                __floatsidf
                0x08010cc8                __aeabi_i2d
                0x08010cec                __extendsfdf2
                0x08010cec                __aeabi_f2d
                0x08010d28                __aeabi_ul2d
                0x08010d28                __floatundidf
                0x08010d38                __floatdidf
                0x08010d38                __aeabi_l2d
 .text          0x08010d94      0x424 /home/reymondo/CodeSourcery/Sourcery_G++_Lite/bin/../lib/gcc/arm-none-eabi/4.5.2/thumb2/libgcc.a(_arm_muldivdf3.o)
                0x08010d94                __aeabi_dmul
                0x08010d94                __muldf3
                0x08010fe8                __aeabi_ddiv
                0x08010fe8                __divdf3
 .text          0x080111b8      0x110 /home/reymondo/CodeSourcery/Sourcery_G++_Lite/bin/../lib/gcc/arm-none-eabi/4.5.2/thumb2/libgcc.a(_arm_cmpdf2.o)
                0x080111b8                __gtdf2
                0x080111b8                __gedf2
                0x080111c0                __ltdf2
                0x080111c0                __ledf2
                0x080111c8                __cmpdf2
                0x080111c8                __eqdf2
                0x080111c8                __nedf2
                0x08011244                __aeabi_cdrcmple
                0x08011254                __aeabi_cdcmple
                0x08011254                __aeabi_cdcmpeq
                0x08011264                __aeabi_dcmpeq
                0x08011278                __aeabi_dcmplt
                0x0801128c                __aeabi_dcmple
                0x080112a0                __aeabi_dcmpge
                0x080112b4                __aeabi_dcmpgt
 .text          0x080112c8       0x50 /home/reymondo/CodeSourcery/Sourcery_G++_Lite/bin/../lib/gcc/arm-none-eabi/4.5.2/thumb2/libgcc.a(_arm_fixdfsi.o)
                0x080112c8                __fixdfsi
                0x080112c8                __aeabi_d2iz
 .text          0x08011318       0x2c /home/reymondo/CodeSourcery/Sourcery_G++_Lite/bin/../lib/gcc/arm-none-eabi/4.5.2/thumb2/libgcc.a(_aeabi_uldivmod.o)
                0x08011318                __aeabi_uldivmod
 .text          0x08011344       0x60 /home/reymondo/CodeSourcery/Sourcery_G++_Lite/bin/../lib/gcc/arm-none-eabi/4.5.2/thumb2/libgcc.a(bpabi.o)
                0x08011344                __gnu_ldivmod_helper
                0x08011374                __gnu_uldivmod_helper
 .text          0x080113a4      0x360 /home/reymondo/CodeSourcery/Sourcery_G++_Lite/bin/../lib/gcc/arm-none-eabi/4.5.2/thumb2/libgcc.a(_divdi3.o)
                0x080113a4                __divdi3
 .text          0x08011704      0x308 /home/reymondo/CodeSourcery/Sourcery_G++_Lite/bin/../lib/gcc/arm-none-eabi/4.5.2/thumb2/libgcc.a(_udivdi3.o)
                0x08011704                __udivdi3
 *(.text.*)
 .text.Reset_Handler
                0x08011a0c       0x44 out/startup_stm32f10x_cl.o
                0x08011a0c                Reset_Handler
 .text.Default_Handler
                0x08011a50        0x2 out/startup_stm32f10x_cl.o
                0x08011a50                EXTI2_IRQHandler
                0x08011a50                TIM1_CC_IRQHandler
                0x08011a50                TIM6_IRQHandler
                0x08011a50                PVD_IRQHandler
                0x08011a50                CAN2_RX1_IRQHandler
                0x08011a50                EXTI3_IRQHandler
                0x08011a50                EXTI0_IRQHandler
                0x08011a50                I2C2_EV_IRQHandler
                0x08011a50                CAN1_RX0_IRQHandler
                0x08011a50                CAN2_SCE_IRQHandler
                0x08011a50                ADC1_2_IRQHandler
                0x08011a50                SPI1_IRQHandler
                0x08011a50                TAMPER_IRQHandler
                0x08011a50                CAN2_RX0_IRQHandler
                0x08011a50                DMA2_Channel2_IRQHandler
                0x08011a50                DMA1_Channel4_IRQHandler
                0x08011a50                USART3_IRQHandler
                0x08011a50                RTC_IRQHandler
                0x08011a50                DMA1_Channel7_IRQHandler
                0x08011a50                CAN1_RX1_IRQHandler
                0x08011a50                UART5_IRQHandler
                0x08011a50                TIM4_IRQHandler
                0x08011a50                DMA2_Channel1_IRQHandler
                0x08011a50                I2C1_EV_IRQHandler
                0x08011a50                DMA1_Channel6_IRQHandler
                0x08011a50                UART4_IRQHandler
                0x08011a50                DMA2_Channel4_IRQHandler
                0x08011a50                TIM3_IRQHandler
                0x08011a50                RCC_IRQHandler
                0x08011a50                TIM1_TRG_COM_IRQHandler
                0x08011a50                DMA1_Channel1_IRQHandler
                0x08011a50                Default_Handler
                0x08011a50                EXTI15_10_IRQHandler
                0x08011a50                TIM7_IRQHandler
                0x08011a50                CAN2_TX_IRQHandler
                0x08011a50                TIM5_IRQHandler
                0x08011a50                EXTI9_5_IRQHandler
                0x08011a50                ETH_WKUP_IRQHandler
                0x08011a50                SPI2_IRQHandler
                0x08011a50                CAN1_TX_IRQHandler
                0x08011a50                DMA2_Channel5_IRQHandler
                0x08011a50                DMA1_Channel5_IRQHandler
                0x08011a50                EXTI4_IRQHandler
                0x08011a50                DMA1_Channel3_IRQHandler
                0x08011a50                ETH_IRQHandler
                0x08011a50                TIM1_UP_IRQHandler
                0x08011a50                WWDG_IRQHandler
                0x08011a50                OTG_FS_WKUP_IRQHandler
                0x08011a50                TIM1_BRK_IRQHandler
                0x08011a50                EXTI1_IRQHandler
                0x08011a50                RTCAlarm_IRQHandler
                0x08011a50                I2C2_ER_IRQHandler
                0x08011a50                DMA1_Channel2_IRQHandler
                0x08011a50                CAN1_SCE_IRQHandler
                0x08011a50                FLASH_IRQHandler
                0x08011a50                USART1_IRQHandler
                0x08011a50                OTG_FS_IRQHandler
                0x08011a50                SPI3_IRQHandler
                0x08011a50                I2C1_ER_IRQHandler
                0x08011a50                DMA2_Channel3_IRQHandler
 *fill*         0x08011a52        0x2 00
 .text.NMI_Handler
                0x08011a54        0xc out/stm32f10x_it.o
                0x08011a54                NMI_Handler
 .text.HardFault_Handler
                0x08011a60        0x8 out/stm32f10x_it.o
                0x08011a60                HardFault_Handler
 .text.MemManage_Handler
                0x08011a68        0x8 out/stm32f10x_it.o
                0x08011a68                MemManage_Handler
 .text.BusFault_Handler
                0x08011a70        0x8 out/stm32f10x_it.o
                0x08011a70                BusFault_Handler
 .text.UsageFault_Handler
                0x08011a78        0x8 out/stm32f10x_it.o
                0x08011a78                UsageFault_Handler
 .text.SVC_Handler
                0x08011a80        0xc out/stm32f10x_it.o
                0x08011a80                SVC_Handler
 .text.DebugMon_Handler
                0x08011a8c        0xc out/stm32f10x_it.o
                0x08011a8c                DebugMon_Handler
 .text.PendSV_Handler
                0x08011a98        0xc out/stm32f10x_it.o
                0x08011a98                PendSV_Handler
 .text.SysTick_Handler
                0x08011aa4        0xc out/stm32f10x_it.o
                0x08011aa4                SysTick_Handler
 .text.TIM2_IRQHandler
                0x08011ab0        0xc out/stm32f10x_it.o
                0x08011ab0                TIM2_IRQHandler
 .text.USART2_IRQHandler
                0x08011abc        0xc out/stm32f10x_it.o
                0x08011abc                USART2_IRQHandler
 .text._close_r
                0x08011ac8       0x1c out/syscalls.o
                0x08011ac8                _close_r
 .text._exit    0x08011ae4        0xc out/syscalls.o
                0x08011ae4                _exit
 .text._fstat_r
                0x08011af0       0x24 out/syscalls.o
                0x08011af0                _fstat_r
 .text._getpid_r
                0x08011b14       0x18 out/syscalls.o
                0x08011b14                _getpid_r
 .text._isatty_r
                0x08011b2c       0x1c out/syscalls.o
                0x08011b2c                _isatty_r
 .text._kill_r  0x08011b48       0x28 out/syscalls.o
                0x08011b48                _kill_r
 .text._lseek_r
                0x08011b70       0x20 out/syscalls.o
                0x08011b70                _lseek_r
 .text._read_r  0x08011b90       0x20 out/syscalls.o
                0x08011b90                _read_r
 .text._sbrk_r  0x08011bb0       0x54 out/syscalls.o
                0x08011bb0                _sbrk_r
 .text._write_r
                0x08011c04       0x20 out/syscalls.o
                0x08011c04                _write_r
 .text.SystemInit
                0x08011c24       0x7c out/system_stm32f10x.o
                0x08011c24                SystemInit
 .text.SetSysClock
                0x08011ca0        0xc out/system_stm32f10x.o
 .text.SetSysClockTo72
                0x08011cac      0x144 out/system_stm32f10x.o
 .text.NVIC_Init
                0x08011df0       0xd8 out/misc.o
                0x08011df0                NVIC_Init
 .text.GPIO_Init
                0x08011ec8      0x1c0 out/stm32f10x_gpio.o
                0x08011ec8                GPIO_Init
 .text.GPIO_PinRemapConfig
                0x08012088      0x104 out/stm32f10x_gpio.o
                0x08012088                GPIO_PinRemapConfig
 .text.RCC_GetClocksFreq
                0x0801218c      0x1f8 out/stm32f10x_rcc.o
                0x0801218c                RCC_GetClocksFreq
 .text.RCC_APB2PeriphClockCmd
                0x08012384       0x44 out/stm32f10x_rcc.o
                0x08012384                RCC_APB2PeriphClockCmd
 .text.RCC_APB1PeriphClockCmd
                0x080123c8       0x44 out/stm32f10x_rcc.o
                0x080123c8                RCC_APB1PeriphClockCmd
 .text.USART_Init
                0x0801240c      0x1b0 out/stm32f10x_usart.o
                0x0801240c                USART_Init
 .text.USART_ClockInit
                0x080125bc       0x60 out/stm32f10x_usart.o
                0x080125bc                USART_ClockInit
 .text.USART_ClockStructInit
                0x0801261c       0x34 out/stm32f10x_usart.o
                0x0801261c                USART_ClockStructInit
 .text.USART_Cmd
                0x08012650       0x40 out/stm32f10x_usart.o
                0x08012650                USART_Cmd
 .text.USART_ITConfig
                0x08012690       0xa8 out/stm32f10x_usart.o
                0x08012690                USART_ITConfig
 .text.USART_SendData
                0x08012738       0x28 out/stm32f10x_usart.o
                0x08012738                USART_SendData
 .text.USART_ReceiveData
                0x08012760       0x24 out/stm32f10x_usart.o
                0x08012760                USART_ReceiveData
 .text.USART_GetFlagStatus
                0x08012784       0x40 out/stm32f10x_usart.o
                0x08012784                USART_GetFlagStatus
 .text.USART_GetITStatus
                0x080127c4       0xcc out/stm32f10x_usart.o
                0x080127c4                USART_GetITStatus
 .text._ZN11IPeripheralD2Ev
                0x08012890       0x34 out/main.o
                0x08012890                _ZN11IPeripheralD2Ev
                0x08012890                _ZN11IPeripheralD1Ev
 .text._ZN11IPeripheralD0Ev
                0x080128c4       0x20 out/main.o
                0x080128c4                _ZN11IPeripheralD0Ev
 .text._ZN11CUsartStateC2Ev
                0x080128e4       0x20 out/main.o
                0x080128e4                _ZN11CUsartStateC1Ev
                0x080128e4                _ZN11CUsartStateC2Ev
 .text._ZN11CUsartStateD2Ev
                0x08012904       0x34 out/main.o
                0x08012904                _ZN11CUsartStateD1Ev
                0x08012904                _ZN11CUsartStateD2Ev
 .text._ZN11CUsartStateD0Ev
                0x08012938       0x20 out/main.o
                0x08012938                _ZN11CUsartStateD0Ev
 .text._ZN19CUsartStateUnusableC2EP12CGpioManagerP11CRccManager
                0x08012958       0x40 out/main.o
                0x08012958                _ZN19CUsartStateUnusableC1EP12CGpioManagerP11CRccManager
                0x08012958                _ZN19CUsartStateUnusableC2EP12CGpioManagerP11CRccManager
 .text._ZN6CUsartI7SUsart1E6setIdsEv
                0x08012998       0x28 out/main.o
                0x08012998                _ZN6CUsartI7SUsart1E6setIdsEv
 .text.main     0x080129c0       0xc8 out/main.o
                0x080129c0                main
 .text._ZN11IPeripheralC2Ev
                0x08012a88       0x20 out/main.o
                0x08012a88                _ZN11IPeripheralC1Ev
                0x08012a88                _ZN11IPeripheralC2Ev
 .text._ZN6CUsartI7SUsart1EC2ER12CGpioManagerR11CRccManager
                0x08012aa8       0x90 out/main.o
                0x08012aa8                _ZN6CUsartI7SUsart1EC2ER12CGpioManagerR11CRccManager
                0x08012aa8                _ZN6CUsartI7SUsart1EC1ER12CGpioManagerR11CRccManager
 .text._ZN6CUsartI7SUsart1ED2Ev
                0x08012b38       0x5c out/main.o
                0x08012b38                _ZN6CUsartI7SUsart1ED2Ev
                0x08012b38                _ZN6CUsartI7SUsart1ED1Ev
 .text._ZN6CUsartI7SUsart1ED0Ev
                0x08012b94       0x20 out/main.o
                0x08012b94                _ZN6CUsartI7SUsart1ED0Ev
 .text._ZN6CUsartI7SUsart1E4initEP16GPIO_InitTypeDefP13SPeriphConfig
                0x08012bb4      0x10c out/main.o
                0x08012bb4                _ZN6CUsartI7SUsart1E4initEP16GPIO_InitTypeDefP13SPeriphConfig
 .text._ZN6CUsartI7SUsart1E13interruptsOffEv
                0x08012cc0       0x44 out/main.o
                0x08012cc0                _ZN6CUsartI7SUsart1E13interruptsOffEv
 .text._ZN6CUsartI7SUsart1E4readEPth
                0x08012d04       0x34 out/main.o
                0x08012d04                _ZN6CUsartI7SUsart1E4readEPth
 .text._ZN6CUsartI7SUsart1E5writeEPth
                0x08012d38       0x34 out/main.o
                0x08012d38                _ZN6CUsartI7SUsart1E5writeEPth
 .text._ZN6CUsartI7SUsart1E19configureInterruptsEt
                0x08012d6c       0x28 out/main.o
                0x08012d6c                _ZN6CUsartI7SUsart1E19configureInterruptsEt
 .text._ZN6CUsartI7SUsart1E21deconfigureInterruptsEt
                0x08012d94       0x28 out/main.o
                0x08012d94                _ZN6CUsartI7SUsart1E21deconfigureInterruptsEt
 .text._ZN6CUsartI7SUsart1E20checkInterruptSourceEt
                0x08012dbc       0x30 out/main.o
                0x08012dbc                _ZN6CUsartI7SUsart1E20checkInterruptSourceEt
 .text._ZN6CUsartI7SUsart1E12interruptsOnEhh
                0x08012dec       0x48 out/main.o
                0x08012dec                _ZN6CUsartI7SUsart1E12interruptsOnEhh
 .text._ZN6CUsartI7SUsart1E6deinitEv
                0x08012e34       0x60 out/main.o
                0x08012e34                _ZN6CUsartI7SUsart1E6deinitEv
 .text._ZN6CUsartI7SUsart1E8getIndexEv
                0x08012e94       0x1c out/main.o
                0x08012e94                _ZN6CUsartI7SUsart1E8getIndexEv
 .text._ZN6CUsartI7SUsart1E8getStateEv
                0x08012eb0       0x28 out/main.o
                0x08012eb0                _ZN6CUsartI7SUsart1E8getStateEv
 .text._ZN12CGpioManagerC2Ev
                0x08012ed8       0xc0 out/CGpioManager.o
                0x08012ed8                _ZN12CGpioManagerC1Ev
                0x08012ed8                _ZN12CGpioManagerC2Ev
 .text._ZN12CGpioManager24checkPortPinAvailabilityEhh
                0x08012f98       0x38 out/CGpioManager.o
                0x08012f98                _ZN12CGpioManager24checkPortPinAvailabilityEhh
 .text._ZN12CGpioManager16setPortPinUnusedEhh
                0x08012fd0       0x3c out/CGpioManager.o
                0x08012fd0                _ZN12CGpioManager16setPortPinUnusedEhh
 .text._ZN12CGpioManager14setPortPinUsedEhh
                0x0801300c       0x3c out/CGpioManager.o
                0x0801300c                _ZN12CGpioManager14setPortPinUsedEhh
 .text._ZN12CGpioManager7getGpioEhh
                0x08013048       0x4c out/CGpioManager.o
                0x08013048                _ZN12CGpioManager7getGpioEhh
 .text._ZN12CGpioManager5remapEm
                0x08013094       0x1c out/CGpioManager.o
                0x08013094                _ZN12CGpioManager5remapEm
 .text._ZN12CGpioManager8initGpioEhP16GPIO_InitTypeDef
                0x080130b0       0x28 out/CGpioManager.o
                0x080130b0                _ZN12CGpioManager8initGpioEhP16GPIO_InitTypeDef
 .text._ZN12CGpioManager11releaseGpioEhh
                0x080130d8       0x28 out/CGpioManager.o
                0x080130d8                _ZN12CGpioManager11releaseGpioEhh
 .text._ZN12CGpioManageraSERKS_
                0x08013100       0x18 out/CGpioManager.o
                0x08013100                _ZN12CGpioManageraSERKS_
 .text._ZN11CRccManagerC2Ev
                0x08013118       0x54 out/CRccManager.o
                0x08013118                _ZN11CRccManagerC2Ev
                0x08013118                _ZN11CRccManagerC1Ev
 .text._ZN11CRccManager10apb1EnableEm
                0x0801316c       0x28 out/CRccManager.o
                0x0801316c                _ZN11CRccManager10apb1EnableEm
 .text._ZN11CRccManager11apb1DisableEm
                0x08013194       0x88 out/CRccManager.o
                0x08013194                _ZN11CRccManager11apb1DisableEm
 .text._ZN11CRccManager10apb2EnableEm
                0x0801321c       0x2c out/CRccManager.o
                0x0801321c                _ZN11CRccManager10apb2EnableEm
 .text._ZN11CRccManager11apb2DisableEm
                0x08013248       0x98 out/CRccManager.o
                0x08013248                _ZN11CRccManager11apb2DisableEm
 .text._ZN11CRccManager16increaseUseCountEPmm
                0x080132e0       0x58 out/CRccManager.o
                0x080132e0                _ZN11CRccManager16increaseUseCountEPmm
 .text._ZN11CRccManageraSERKS_
                0x08013338       0x18 out/CRccManager.o
                0x08013338                _ZN11CRccManageraSERKS_
 .text._ZN18CUsartStateRunning5remapEm
                0x08013350       0x14 out/CUsartStateRunning.o
                0x08013350                _ZN18CUsartStateRunning5remapEm
 .text._ZN18CUsartStateRunning9apbEnableEmm
                0x08013364       0x18 out/CUsartStateRunning.o
                0x08013364                _ZN18CUsartStateRunning9apbEnableEmm
 .text._ZN18CUsartStateRunning8gpioInitEhhR16GPIO_InitTypeDef
                0x0801337c       0x1c out/CUsartStateRunning.o
                0x0801337c                _ZN18CUsartStateRunning8gpioInitEhhR16GPIO_InitTypeDef
 .text._ZN18CUsartStateRunning4initEP13USART_TypeDefR17USART_InitTypeDef
                0x08013398       0x18 out/CUsartStateRunning.o
                0x08013398                _ZN18CUsartStateRunning4initEP13USART_TypeDefR17USART_InitTypeDef
 .text._ZN18CUsartStateRunning9nextStateEP11CUsartStateb
                0x080133b0       0x18 out/CUsartStateRunning.o
                0x080133b0                _ZN18CUsartStateRunning9nextStateEP11CUsartStateb
 .text._ZN18CUsartStateRunningD2Ev
                0x080133c8       0x3c out/CUsartStateRunning.o
                0x080133c8                _ZN18CUsartStateRunningD2Ev
                0x080133c8                _ZN18CUsartStateRunningD1Ev
 .text._ZN18CUsartStateRunningD0Ev
                0x08013404       0x20 out/CUsartStateRunning.o
                0x08013404                _ZN18CUsartStateRunningD0Ev
 .text._ZN17CUsartStateUsableC2EP12CGpioManagerP11CRccManager
                0x08013424       0x40 out/CUsartStateRunning.o
                0x08013424                _ZN17CUsartStateUsableC2EP12CGpioManagerP11CRccManager
                0x08013424                _ZN17CUsartStateUsableC1EP12CGpioManagerP11CRccManager
 .text._ZN18CUsartStateRunning4readEP13USART_TypeDefPth
                0x08013464       0x50 out/CUsartStateRunning.o
                0x08013464                _ZN18CUsartStateRunning4readEP13USART_TypeDefPth
 .text._ZN18CUsartStateRunning5writeEP13USART_TypeDefPth
                0x080134b4       0x6c out/CUsartStateRunning.o
                0x080134b4                _ZN18CUsartStateRunning5writeEP13USART_TypeDefPth
 .text._ZN18CUsartStateRunning16interruptsConfigER16NVIC_InitTypeDef
                0x08013520       0x18 out/CUsartStateRunning.o
                0x08013520                _ZN18CUsartStateRunning16interruptsConfigER16NVIC_InitTypeDef
 .text._ZN18CUsartStateRunning6deinitEP13USART_TypeDefmmP11CUsartState
                0x08013538       0x64 out/CUsartStateRunning.o
                0x08013538                _ZN18CUsartStateRunning6deinitEP13USART_TypeDefmmP11CUsartState
 .text._ZN18CUsartStateRunning8getStateEv
                0x0801359c       0x18 out/CUsartStateRunning.o
                0x0801359c                _ZN18CUsartStateRunning8getStateEv
 .text._ZN19CUsartStateUnusable5remapEm
                0x080135b4       0x14 out/CUsartStateUnusable.o
                0x080135b4                _ZN19CUsartStateUnusable5remapEm
 .text._ZN19CUsartStateUnusable9apbEnableEmm
                0x080135c8       0x18 out/CUsartStateUnusable.o
                0x080135c8                _ZN19CUsartStateUnusable9apbEnableEmm
 .text._ZN19CUsartStateUnusable8gpioInitEhhR16GPIO_InitTypeDef
                0x080135e0       0x1c out/CUsartStateUnusable.o
                0x080135e0                _ZN19CUsartStateUnusable8gpioInitEhhR16GPIO_InitTypeDef
 .text._ZN19CUsartStateUnusable4initEP13USART_TypeDefR17USART_InitTypeDef
                0x080135fc       0x18 out/CUsartStateUnusable.o
                0x080135fc                _ZN19CUsartStateUnusable4initEP13USART_TypeDefR17USART_InitTypeDef
 .text._ZN19CUsartStateUnusable4readEP13USART_TypeDefPth
                0x08013614       0x18 out/CUsartStateUnusable.o
                0x08013614                _ZN19CUsartStateUnusable4readEP13USART_TypeDefPth
 .text._ZN19CUsartStateUnusable5writeEP13USART_TypeDefPth
                0x0801362c       0x18 out/CUsartStateUnusable.o
                0x0801362c                _ZN19CUsartStateUnusable5writeEP13USART_TypeDefPth
 .text._ZN19CUsartStateUnusable16interruptsConfigER16NVIC_InitTypeDef
                0x08013644       0x14 out/CUsartStateUnusable.o
                0x08013644                _ZN19CUsartStateUnusable16interruptsConfigER16NVIC_InitTypeDef
 .text._ZN19CUsartStateUnusable6deinitEP13USART_TypeDefmmP11CUsartState
                0x08013658       0x18 out/CUsartStateUnusable.o
                0x08013658                _ZN19CUsartStateUnusable6deinitEP13USART_TypeDefmmP11CUsartState
 .text._ZN19CUsartStateUnusableD2Ev
                0x08013670       0x3c out/CUsartStateUnusable.o
                0x08013670                _ZN19CUsartStateUnusableD2Ev
                0x08013670                _ZN19CUsartStateUnusableD1Ev
 .text._ZN19CUsartStateUnusableD0Ev
                0x080136ac       0x20 out/CUsartStateUnusable.o
                0x080136ac                _ZN19CUsartStateUnusableD0Ev
 .text._ZN19CUsartStateUnusable9nextStateEP11CUsartStateb
                0x080136cc       0x60 out/CUsartStateUnusable.o
                0x080136cc                _ZN19CUsartStateUnusable9nextStateEP11CUsartStateb
 .text._ZN19CUsartStateUnusable8getStateEv
                0x0801372c       0x18 out/CUsartStateUnusable.o
                0x0801372c                _ZN19CUsartStateUnusable8getStateEv
 .text._ZN18CUsartStateRunningC2EP12CGpioManagerP11CRccManager
                0x08013744       0x40 out/CUsartStateUsable.o
                0x08013744                _ZN18CUsartStateRunningC1EP12CGpioManagerP11CRccManager
                0x08013744                _ZN18CUsartStateRunningC2EP12CGpioManagerP11CRccManager
 .text._ZN17CUsartStateUsable4readEP13USART_TypeDefPth
                0x08013784       0x18 out/CUsartStateUsable.o
                0x08013784                _ZN17CUsartStateUsable4readEP13USART_TypeDefPth
 .text._ZN17CUsartStateUsable5writeEP13USART_TypeDefPth
                0x0801379c       0x18 out/CUsartStateUsable.o
                0x0801379c                _ZN17CUsartStateUsable5writeEP13USART_TypeDefPth
 .text._ZN17CUsartStateUsableD2Ev
                0x080137b4       0x3c out/CUsartStateUsable.o
                0x080137b4                _ZN17CUsartStateUsableD2Ev
                0x080137b4                _ZN17CUsartStateUsableD1Ev
 .text._ZN17CUsartStateUsableD0Ev
                0x080137f0       0x20 out/CUsartStateUsable.o
                0x080137f0                _ZN17CUsartStateUsableD0Ev
 .text._ZN17CUsartStateUsable5remapEm
                0x08013810       0x20 out/CUsartStateUsable.o
                0x08013810                _ZN17CUsartStateUsable5remapEm
 .text._ZN17CUsartStateUsable9apbEnableEmm
                0x08013830       0x2c out/CUsartStateUsable.o
                0x08013830                _ZN17CUsartStateUsable9apbEnableEmm
 .text._ZN17CUsartStateUsable8gpioInitEhhR16GPIO_InitTypeDef
                0x0801385c       0x34 out/CUsartStateUsable.o
                0x0801385c                _ZN17CUsartStateUsable8gpioInitEhhR16GPIO_InitTypeDef
 .text._ZN17CUsartStateUsable4initEP13USART_TypeDefR17USART_InitTypeDef
                0x08013890       0x3c out/CUsartStateUsable.o
                0x08013890                _ZN17CUsartStateUsable4initEP13USART_TypeDefR17USART_InitTypeDef
 .text._ZN17CUsartStateUsable16interruptsConfigER16NVIC_InitTypeDef
                0x080138cc       0x18 out/CUsartStateUsable.o
                0x080138cc                _ZN17CUsartStateUsable16interruptsConfigER16NVIC_InitTypeDef
 .text._ZN17CUsartStateUsable9nextStateEP11CUsartStateb
                0x080138e4       0x60 out/CUsartStateUsable.o
                0x080138e4                _ZN17CUsartStateUsable9nextStateEP11CUsartStateb
 .text._ZN17CUsartStateUsable6deinitEP13USART_TypeDefmmP11CUsartState
                0x08013944       0x70 out/CUsartStateUsable.o
                0x08013944                _ZN17CUsartStateUsable6deinitEP13USART_TypeDefmmP11CUsartState
 .text._ZN17CUsartStateUsable8getStateEv
                0x080139b4       0x18 out/CUsartStateUsable.o
                0x080139b4                _ZN17CUsartStateUsable8getStateEv
 .text._ZdlPv   0x080139cc        0x8 /home/reymondo/CodeSourcery/Sourcery_G++_Lite/bin/../lib/gcc/arm-none-eabi/4.5.2/../../../../arm-none-eabi/lib/thumb2/libstdc++.a(del_op.o)
                0x080139cc                _ZdlPv
 .text._Znwj    0x080139d4       0x60 /home/reymondo/CodeSourcery/Sourcery_G++_Lite/bin/../lib/gcc/arm-none-eabi/4.5.2/../../../../arm-none-eabi/lib/thumb2/libstdc++.a(new_op.o)
                0x080139d4                _Znwj
 .text._ZL12read_sleb128PKhPl
                0x08013a34       0x3c /home/reymondo/CodeSourcery/Sourcery_G++_Lite/bin/../lib/gcc/arm-none-eabi/4.5.2/../../../../arm-none-eabi/lib/thumb2/libstdc++.a(eh_personality.o)
 .text._ZL28read_encoded_value_with_basehjPKhPj
                0x08013a70       0xac /home/reymondo/CodeSourcery/Sourcery_G++_Lite/bin/../lib/gcc/arm-none-eabi/4.5.2/../../../../arm-none-eabi/lib/thumb2/libstdc++.a(eh_personality.o)
 .text._ZL21base_of_encoded_valuehP15_Unwind_Context
                0x08013b1c       0x4c /home/reymondo/CodeSourcery/Sourcery_G++_Lite/bin/../lib/gcc/arm-none-eabi/4.5.2/../../../../arm-none-eabi/lib/thumb2/libstdc++.a(eh_personality.o)
 .text._ZL17parse_lsda_headerP15_Unwind_ContextPKhP16lsda_header_info
                0x08013b68       0x8c /home/reymondo/CodeSourcery/Sourcery_G++_Lite/bin/../lib/gcc/arm-none-eabi/4.5.2/../../../../arm-none-eabi/lib/thumb2/libstdc++.a(eh_personality.o)
 .text.__gxx_personality_v0
                0x08013bf4      0x3ec /home/reymondo/CodeSourcery/Sourcery_G++_Lite/bin/../lib/gcc/arm-none-eabi/4.5.2/../../../../arm-none-eabi/lib/thumb2/libstdc++.a(eh_personality.o)
                0x08013bf4                __gxx_personality_v0
 .text._ZL23__gxx_exception_cleanup19_Unwind_Reason_CodeP21_Unwind_Control_Block
                0x08013fe0       0x4c /home/reymondo/CodeSourcery/Sourcery_G++_Lite/bin/../lib/gcc/arm-none-eabi/4.5.2/../../../../arm-none-eabi/lib/thumb2/libstdc++.a(eh_throw.o)
 .text.__cxa_throw
                0x0801402c       0x80 /home/reymondo/CodeSourcery/Sourcery_G++_Lite/bin/../lib/gcc/arm-none-eabi/4.5.2/../../../../arm-none-eabi/lib/thumb2/libstdc++.a(eh_throw.o)
                0x0801402c                __cxa_throw
 .text.__cxa_rethrow
                0x080140ac       0x78 /home/reymondo/CodeSourcery/Sourcery_G++_Lite/bin/../lib/gcc/arm-none-eabi/4.5.2/../../../../arm-none-eabi/lib/thumb2/libstdc++.a(eh_throw.o)
                0x080140ac                __cxa_rethrow
 .text.__cxa_pure_virtual
                0x08014124       0x18 /home/reymondo/CodeSourcery/Sourcery_G++_Lite/bin/../lib/gcc/arm-none-eabi/4.5.2/../../../../arm-none-eabi/lib/thumb2/libstdc++.a(pure.o)
                0x08014124                __cxa_pure_virtual
 .text.__cxa_get_globals_fast
                0x0801413c        0xc /home/reymondo/CodeSourcery/Sourcery_G++_Lite/bin/../lib/gcc/arm-none-eabi/4.5.2/../../../../arm-none-eabi/lib/thumb2/libstdc++.a(eh_globals.o)
                0x0801413c                __cxa_get_globals_fast
 .text.__cxa_get_globals
                0x08014148        0xc /home/reymondo/CodeSourcery/Sourcery_G++_Lite/bin/../lib/gcc/arm-none-eabi/4.5.2/../../../../arm-none-eabi/lib/thumb2/libstdc++.a(eh_globals.o)
                0x08014148                __cxa_get_globals
 .text.__cxa_begin_catch
                0x08014154       0x9c /home/reymondo/CodeSourcery/Sourcery_G++_Lite/bin/../lib/gcc/arm-none-eabi/4.5.2/../../../../arm-none-eabi/lib/thumb2/libstdc++.a(eh_catch.o)
                0x08014154                __cxa_begin_catch
 .text.__cxa_end_catch
                0x080141f0       0x98 /home/reymondo/CodeSourcery/Sourcery_G++_Lite/bin/../lib/gcc/arm-none-eabi/4.5.2/../../../../arm-none-eabi/lib/thumb2/libstdc++.a(eh_catch.o)
                0x080141f0                __cxa_end_catch
 .text.__cxa_type_match
                0x08014288       0xd0 /home/reymondo/CodeSourcery/Sourcery_G++_Lite/bin/../lib/gcc/arm-none-eabi/4.5.2/../../../../arm-none-eabi/lib/thumb2/libstdc++.a(eh_arm.o)
                0x08014288                __cxa_type_match
 .text.__cxa_begin_cleanup
                0x08014358       0x70 /home/reymondo/CodeSourcery/Sourcery_G++_Lite/bin/../lib/gcc/arm-none-eabi/4.5.2/../../../../arm-none-eabi/lib/thumb2/libstdc++.a(eh_arm.o)
                0x08014358                __cxa_begin_cleanup
 .text.__gnu_end_cleanup
                0x080143c8       0x7c /home/reymondo/CodeSourcery/Sourcery_G++_Lite/bin/../lib/gcc/arm-none-eabi/4.5.2/../../../../arm-none-eabi/lib/thumb2/libstdc++.a(eh_arm.o)
                0x080143c8                __gnu_end_cleanup
 .text._ZN10__cxxabiv111__terminateEPFvvE
                0x08014444       0x28 /home/reymondo/CodeSourcery/Sourcery_G++_Lite/bin/../lib/gcc/arm-none-eabi/4.5.2/../../../../arm-none-eabi/lib/thumb2/libstdc++.a(eh_terminate.o)
                0x08014444                _ZN10__cxxabiv111__terminateEPFvvE
 .text._ZSt9terminatev
                0x0801446c       0x10 /home/reymondo/CodeSourcery/Sourcery_G++_Lite/bin/../lib/gcc/arm-none-eabi/4.5.2/../../../../arm-none-eabi/lib/thumb2/libstdc++.a(eh_terminate.o)
                0x0801446c                _ZSt9terminatev
 .text._ZN10__cxxabiv112__unexpectedEPFvvE
                0x0801447c        0x8 /home/reymondo/CodeSourcery/Sourcery_G++_Lite/bin/../lib/gcc/arm-none-eabi/4.5.2/../../../../arm-none-eabi/lib/thumb2/libstdc++.a(eh_terminate.o)
                0x0801447c                _ZN10__cxxabiv112__unexpectedEPFvvE
 .text._ZSt10unexpectedv
                0x08014484       0x14 /home/reymondo/CodeSourcery/Sourcery_G++_Lite/bin/../lib/gcc/arm-none-eabi/4.5.2/../../../../arm-none-eabi/lib/thumb2/libstdc++.a(eh_terminate.o)
                0x08014484                _ZSt10unexpectedv
 .text.__cxa_allocate_exception
                0x08014498       0x7c /home/reymondo/CodeSourcery/Sourcery_G++_Lite/bin/../lib/gcc/arm-none-eabi/4.5.2/../../../../arm-none-eabi/lib/thumb2/libstdc++.a(eh_alloc.o)
                0x08014498                __cxa_allocate_exception
 .text.__cxa_free_exception
                0x08014514       0x3c /home/reymondo/CodeSourcery/Sourcery_G++_Lite/bin/../lib/gcc/arm-none-eabi/4.5.2/../../../../arm-none-eabi/lib/thumb2/libstdc++.a(eh_alloc.o)
                0x08014514                __cxa_free_exception
 .text.__cxa_call_terminate
                0x08014550       0x50 /home/reymondo/CodeSourcery/Sourcery_G++_Lite/bin/../lib/gcc/arm-none-eabi/4.5.2/../../../../arm-none-eabi/lib/thumb2/libstdc++.a(eh_call.o)
                0x08014550                __cxa_call_terminate
 .text.__cxa_call_unexpected
                0x080145a0      0x130 /home/reymondo/CodeSourcery/Sourcery_G++_Lite/bin/../lib/gcc/arm-none-eabi/4.5.2/../../../../arm-none-eabi/lib/thumb2/libstdc++.a(eh_call.o)
                0x080145a0                __cxa_call_unexpected
 .text._ZNKSt9bad_alloc4whatEv
                0x080146d0        0xc /home/reymondo/CodeSourcery/Sourcery_G++_Lite/bin/../lib/gcc/arm-none-eabi/4.5.2/../../../../arm-none-eabi/lib/thumb2/libstdc++.a(new_handler.o)
                0x080146d0                _ZNKSt9bad_alloc4whatEv
 .text._ZNSt9bad_allocD2Ev
                0x080146dc       0x14 /home/reymondo/CodeSourcery/Sourcery_G++_Lite/bin/../lib/gcc/arm-none-eabi/4.5.2/../../../../arm-none-eabi/lib/thumb2/libstdc++.a(new_handler.o)
                0x080146dc                _ZNSt9bad_allocD2Ev
                0x080146dc                _ZNSt9bad_allocD1Ev
 .text._ZNSt9bad_allocD0Ev
                0x080146f0       0x1c /home/reymondo/CodeSourcery/Sourcery_G++_Lite/bin/../lib/gcc/arm-none-eabi/4.5.2/../../../../arm-none-eabi/lib/thumb2/libstdc++.a(new_handler.o)
                0x080146f0                _ZNSt9bad_allocD0Ev
 .text._ZN9__gnu_cxx27__verbose_terminate_handlerEv
                0x0801470c      0x148 /home/reymondo/CodeSourcery/Sourcery_G++_Lite/bin/../lib/gcc/arm-none-eabi/4.5.2/../../../../arm-none-eabi/lib/thumb2/libstdc++.a(vterminate.o)
                0x0801470c                _ZN9__gnu_cxx27__verbose_terminate_handlerEv
 .text._ZNSt9exceptionD2Ev
                0x08014854        0xc /home/reymondo/CodeSourcery/Sourcery_G++_Lite/bin/../lib/gcc/arm-none-eabi/4.5.2/../../../../arm-none-eabi/lib/thumb2/libstdc++.a(eh_exception.o)
                0x08014854                _ZNSt9exceptionD2Ev
                0x08014854                _ZNSt9exceptionD1Ev
 .text._ZNSt13bad_exceptionD2Ev
                0x08014860        0xc /home/reymondo/CodeSourcery/Sourcery_G++_Lite/bin/../lib/gcc/arm-none-eabi/4.5.2/../../../../arm-none-eabi/lib/thumb2/libstdc++.a(eh_exception.o)
                0x08014860                _ZNSt13bad_exceptionD2Ev
                0x08014860                _ZNSt13bad_exceptionD1Ev
 .text._ZNKSt9exception4whatEv
                0x0801486c        0xc /home/reymondo/CodeSourcery/Sourcery_G++_Lite/bin/../lib/gcc/arm-none-eabi/4.5.2/../../../../arm-none-eabi/lib/thumb2/libstdc++.a(eh_exception.o)
                0x0801486c                _ZNKSt9exception4whatEv
 .text._ZNKSt13bad_exception4whatEv
                0x08014878        0xc /home/reymondo/CodeSourcery/Sourcery_G++_Lite/bin/../lib/gcc/arm-none-eabi/4.5.2/../../../../arm-none-eabi/lib/thumb2/libstdc++.a(eh_exception.o)
                0x08014878                _ZNKSt13bad_exception4whatEv
 .text._ZNSt13bad_exceptionD0Ev
                0x08014884       0x14 /home/reymondo/CodeSourcery/Sourcery_G++_Lite/bin/../lib/gcc/arm-none-eabi/4.5.2/../../../../arm-none-eabi/lib/thumb2/libstdc++.a(eh_exception.o)
                0x08014884                _ZNSt13bad_exceptionD0Ev
 .text._ZNSt9exceptionD0Ev
                0x08014898       0x14 /home/reymondo/CodeSourcery/Sourcery_G++_Lite/bin/../lib/gcc/arm-none-eabi/4.5.2/../../../../arm-none-eabi/lib/thumb2/libstdc++.a(eh_exception.o)
                0x08014898                _ZNSt9exceptionD0Ev
 .text.__cxa_current_exception_type
                0x080148ac       0x1c /home/reymondo/CodeSourcery/Sourcery_G++_Lite/bin/../lib/gcc/arm-none-eabi/4.5.2/../../../../arm-none-eabi/lib/thumb2/libstdc++.a(eh_type.o)
                0x080148ac                __cxa_current_exception_type
 .text._ZNK10__cxxabiv120__si_class_type_info11__do_upcastEPKNS_17__class_type_infoEPKvRNS1_15__upcast_resultE
                0x080148c8       0x28 /home/reymondo/CodeSourcery/Sourcery_G++_Lite/bin/../lib/gcc/arm-none-eabi/4.5.2/../../../../arm-none-eabi/lib/thumb2/libstdc++.a(si_class_type_info.o)
                0x080148c8                _ZNK10__cxxabiv120__si_class_type_info11__do_upcastEPKNS_17__class_type_infoEPKvRNS1_15__upcast_resultE
 .text._ZNK10__cxxabiv120__si_class_type_info12__do_dyncastEiNS_17__class_type_info10__sub_kindEPKS1_PKvS4_S6_RNS1_16__dyncast_resultE
                0x080148f0       0x90 /home/reymondo/CodeSourcery/Sourcery_G++_Lite/bin/../lib/gcc/arm-none-eabi/4.5.2/../../../../arm-none-eabi/lib/thumb2/libstdc++.a(si_class_type_info.o)
                0x080148f0                _ZNK10__cxxabiv120__si_class_type_info12__do_dyncastEiNS_17__class_type_info10__sub_kindEPKS1_PKvS4_S6_RNS1_16__dyncast_resultE
 .text._ZNK10__cxxabiv120__si_class_type_info20__do_find_public_srcEiPKvPKNS_17__class_type_infoES2_
                0x08014980       0x38 /home/reymondo/CodeSourcery/Sourcery_G++_Lite/bin/../lib/gcc/arm-none-eabi/4.5.2/../../../../arm-none-eabi/lib/thumb2/libstdc++.a(si_class_type_info.o)
                0x08014980                _ZNK10__cxxabiv120__si_class_type_info20__do_find_public_srcEiPKvPKNS_17__class_type_infoES2_
 .text._ZN10__cxxabiv120__si_class_type_infoD2Ev
                0x080149b8       0x14 /home/reymondo/CodeSourcery/Sourcery_G++_Lite/bin/../lib/gcc/arm-none-eabi/4.5.2/../../../../arm-none-eabi/lib/thumb2/libstdc++.a(si_class_type_info.o)
                0x080149b8                _ZN10__cxxabiv120__si_class_type_infoD2Ev
                0x080149b8                _ZN10__cxxabiv120__si_class_type_infoD1Ev
 .text._ZN10__cxxabiv120__si_class_type_infoD0Ev
                0x080149cc       0x1c /home/reymondo/CodeSourcery/Sourcery_G++_Lite/bin/../lib/gcc/arm-none-eabi/4.5.2/../../../../arm-none-eabi/lib/thumb2/libstdc++.a(si_class_type_info.o)
                0x080149cc                _ZN10__cxxabiv120__si_class_type_infoD0Ev
 .text._ZNK10__cxxabiv117__class_type_info11__do_upcastEPKS0_PPv
                0x080149e8       0x38 /home/reymondo/CodeSourcery/Sourcery_G++_Lite/bin/../lib/gcc/arm-none-eabi/4.5.2/../../../../arm-none-eabi/lib/thumb2/libstdc++.a(class_type_info.o)
                0x080149e8                _ZNK10__cxxabiv117__class_type_info11__do_upcastEPKS0_PPv
 .text._ZNK10__cxxabiv117__class_type_info20__do_find_public_srcEiPKvPKS0_S2_
                0x08014a20        0xc /home/reymondo/CodeSourcery/Sourcery_G++_Lite/bin/../lib/gcc/arm-none-eabi/4.5.2/../../../../arm-none-eabi/lib/thumb2/libstdc++.a(class_type_info.o)
                0x08014a20                _ZNK10__cxxabiv117__class_type_info20__do_find_public_srcEiPKvPKS0_S2_
 .text._ZNK10__cxxabiv117__class_type_info11__do_upcastEPKS0_PKvRNS0_15__upcast_resultE
                0x08014a2c       0x1c /home/reymondo/CodeSourcery/Sourcery_G++_Lite/bin/../lib/gcc/arm-none-eabi/4.5.2/../../../../arm-none-eabi/lib/thumb2/libstdc++.a(class_type_info.o)
                0x08014a2c                _ZNK10__cxxabiv117__class_type_info11__do_upcastEPKS0_PKvRNS0_15__upcast_resultE
 .text._ZNK10__cxxabiv117__class_type_info12__do_dyncastEiNS0_10__sub_kindEPKS0_PKvS3_S5_RNS0_16__dyncast_resultE
                0x08014a48       0x3c /home/reymondo/CodeSourcery/Sourcery_G++_Lite/bin/../lib/gcc/arm-none-eabi/4.5.2/../../../../arm-none-eabi/lib/thumb2/libstdc++.a(class_type_info.o)
                0x08014a48                _ZNK10__cxxabiv117__class_type_info12__do_dyncastEiNS0_10__sub_kindEPKS0_PKvS3_S5_RNS0_16__dyncast_resultE
 .text._ZNK10__cxxabiv117__class_type_info10__do_catchEPKSt9type_infoPPvj
                0x08014a84       0x28 /home/reymondo/CodeSourcery/Sourcery_G++_Lite/bin/../lib/gcc/arm-none-eabi/4.5.2/../../../../arm-none-eabi/lib/thumb2/libstdc++.a(class_type_info.o)
                0x08014a84                _ZNK10__cxxabiv117__class_type_info10__do_catchEPKSt9type_infoPPvj
 .text._ZN10__cxxabiv117__class_type_infoD2Ev
                0x08014aac       0x14 /home/reymondo/CodeSourcery/Sourcery_G++_Lite/bin/../lib/gcc/arm-none-eabi/4.5.2/../../../../arm-none-eabi/lib/thumb2/libstdc++.a(class_type_info.o)
                0x08014aac                _ZN10__cxxabiv117__class_type_infoD1Ev
                0x08014aac                _ZN10__cxxabiv117__class_type_infoD2Ev
 .text._ZN10__cxxabiv117__class_type_infoD0Ev
                0x08014ac0       0x1c /home/reymondo/CodeSourcery/Sourcery_G++_Lite/bin/../lib/gcc/arm-none-eabi/4.5.2/../../../../arm-none-eabi/lib/thumb2/libstdc++.a(class_type_info.o)
                0x08014ac0                _ZN10__cxxabiv117__class_type_infoD0Ev
 .text._ZNSt9type_infoD2Ev
                0x08014adc        0xc /home/reymondo/CodeSourcery/Sourcery_G++_Lite/bin/../lib/gcc/arm-none-eabi/4.5.2/../../../../arm-none-eabi/lib/thumb2/libstdc++.a(tinfo.o)
                0x08014adc                _ZNSt9type_infoD1Ev
                0x08014adc                _ZNSt9type_infoD2Ev
 .text._ZNKSt9type_info14__is_pointer_pEv
                0x08014ae8        0x4 /home/reymondo/CodeSourcery/Sourcery_G++_Lite/bin/../lib/gcc/arm-none-eabi/4.5.2/../../../../arm-none-eabi/lib/thumb2/libstdc++.a(tinfo.o)
                0x08014ae8                _ZNKSt9type_info14__is_pointer_pEv
 .text._ZNKSt9type_info15__is_function_pEv
                0x08014aec        0x4 /home/reymondo/CodeSourcery/Sourcery_G++_Lite/bin/../lib/gcc/arm-none-eabi/4.5.2/../../../../arm-none-eabi/lib/thumb2/libstdc++.a(tinfo.o)
                0x08014aec                _ZNKSt9type_info15__is_function_pEv
 .text._ZNKSt9type_info11__do_upcastEPKN10__cxxabiv117__class_type_infoEPPv
                0x08014af0        0x4 /home/reymondo/CodeSourcery/Sourcery_G++_Lite/bin/../lib/gcc/arm-none-eabi/4.5.2/../../../../arm-none-eabi/lib/thumb2/libstdc++.a(tinfo.o)
                0x08014af0                _ZNKSt9type_info11__do_upcastEPKN10__cxxabiv117__class_type_infoEPPv
 .text._ZNSt9type_infoD0Ev
                0x08014af4       0x14 /home/reymondo/CodeSourcery/Sourcery_G++_Lite/bin/../lib/gcc/arm-none-eabi/4.5.2/../../../../arm-none-eabi/lib/thumb2/libstdc++.a(tinfo.o)
                0x08014af4                _ZNSt9type_infoD0Ev
 .text._ZNKSt9type_infoeqERKS_
                0x08014b08       0x3c /home/reymondo/CodeSourcery/Sourcery_G++_Lite/bin/../lib/gcc/arm-none-eabi/4.5.2/../../../../arm-none-eabi/lib/thumb2/libstdc++.a(tinfo.o)
                0x08014b08                _ZNKSt9type_infoeqERKS_
 .text._ZNKSt9type_info10__do_catchEPKS_PPvj
                0x08014b44        0x4 /home/reymondo/CodeSourcery/Sourcery_G++_Lite/bin/../lib/gcc/arm-none-eabi/4.5.2/../../../../arm-none-eabi/lib/thumb2/libstdc++.a(tinfo.o)
                0x08014b44                _ZNKSt9type_info10__do_catchEPKS_PPvj
 *(.rodata)
 .rodata        0x08014b48      0x694 /home/reymondo/CodeSourcery/Sourcery_G++_Lite/bin/../lib/gcc/arm-none-eabi/4.5.2/../../../../arm-none-eabi/lib/thumb2/libstdc++.a(cp-demangle.o)
 .rodata        0x080151dc        0x4 /home/reymondo/CodeSourcery/Sourcery_G++_Lite/bin/../lib/gcc/arm-none-eabi/4.5.2/../../../../arm-none-eabi/lib/thumb2/libc.a(lib_a-impure.o)
                0x080151dc                _global_impure_ptr
 .rodata        0x080151e0       0x20 /home/reymondo/CodeSourcery/Sourcery_G++_Lite/bin/../lib/gcc/arm-none-eabi/4.5.2/../../../../arm-none-eabi/lib/thumb2/libc.a(lib_a-svfprintf.o)
 .rodata        0x08015200       0x60 /home/reymondo/CodeSourcery/Sourcery_G++_Lite/bin/../lib/gcc/arm-none-eabi/4.5.2/../../../../arm-none-eabi/lib/thumb2/libc.a(lib_a-findfp.o)
                0x08015200                __sf_fake_stdin
                0x08015220                __sf_fake_stdout
                0x08015240                __sf_fake_stderr
 .rodata        0x08015260      0x128 /home/reymondo/CodeSourcery/Sourcery_G++_Lite/bin/../lib/gcc/arm-none-eabi/4.5.2/../../../../arm-none-eabi/lib/thumb2/libc.a(lib_a-mprec.o)
                0x08015270                __mprec_tens
                0x08015338                __mprec_bigtens
                0x08015360                __mprec_tinytens
 .rodata        0x08015388       0x20 /home/reymondo/CodeSourcery/Sourcery_G++_Lite/bin/../lib/gcc/arm-none-eabi/4.5.2/../../../../arm-none-eabi/lib/thumb2/libc.a(lib_a-svfiprintf.o)
 *(.rodata*)
 .rodata._ZTV6CUsartI7SUsart1E
                0x080153a8       0x40 out/main.o
                0x080153a8                _ZTV6CUsartI7SUsart1E
 .rodata._ZTV11CUsartState
                0x080153e8       0x38 out/main.o
                0x080153e8                _ZTV11CUsartState
 .rodata._ZTV11IPeripheral
                0x08015420       0x40 out/main.o
                0x08015420                _ZTV11IPeripheral
 .rodata._ZZN12CGpioManagerC2EvE3C.0
                0x08015460       0x1c out/CGpioManager.o
 *fill*         0x0801547c        0x4 00
 .rodata._ZTV18CUsartStateRunning
                0x08015480       0x38 out/CUsartStateRunning.o
                0x08015480                _ZTV18CUsartStateRunning
 .rodata._ZTV19CUsartStateUnusable
                0x080154b8       0x38 out/CUsartStateUnusable.o
                0x080154b8                _ZTV19CUsartStateUnusable
 .rodata._ZTV17CUsartStateUsable
                0x080154f0       0x38 out/CUsartStateUsable.o
                0x080154f0                _ZTV17CUsartStateUsable
 .rodata.str1.4
                0x08015528       0x1c /home/reymondo/CodeSourcery/Sourcery_G++_Lite/bin/../lib/gcc/arm-none-eabi/4.5.2/../../../../arm-none-eabi/lib/thumb2/libstdc++.a(pure.o)
 *fill*         0x08015544        0x4 00
 .rodata._ZTVSt9bad_alloc
                0x08015548       0x18 /home/reymondo/CodeSourcery/Sourcery_G++_Lite/bin/../lib/gcc/arm-none-eabi/4.5.2/../../../../arm-none-eabi/lib/thumb2/libstdc++.a(new_handler.o)
                0x08015548                _ZTVSt9bad_alloc
 .rodata._ZTSSt9bad_alloc
                0x08015560       0x10 /home/reymondo/CodeSourcery/Sourcery_G++_Lite/bin/../lib/gcc/arm-none-eabi/4.5.2/../../../../arm-none-eabi/lib/thumb2/libstdc++.a(new_handler.o)
                0x08015560                _ZTSSt9bad_alloc
 .rodata._ZTISt9bad_alloc
                0x08015570        0xc /home/reymondo/CodeSourcery/Sourcery_G++_Lite/bin/../lib/gcc/arm-none-eabi/4.5.2/../../../../arm-none-eabi/lib/thumb2/libstdc++.a(new_handler.o)
                0x08015570                _ZTISt9bad_alloc
 .rodata.str1.4
                0x0801557c        0xf /home/reymondo/CodeSourcery/Sourcery_G++_Lite/bin/../lib/gcc/arm-none-eabi/4.5.2/../../../../arm-none-eabi/lib/thumb2/libstdc++.a(new_handler.o)
                                 0x10 (size before relaxing)
 *fill*         0x0801558b        0x1 00
 .rodata.str1.4
                0x0801558c       0x94 /home/reymondo/CodeSourcery/Sourcery_G++_Lite/bin/../lib/gcc/arm-none-eabi/4.5.2/../../../../arm-none-eabi/lib/thumb2/libstdc++.a(vterminate.o)
 .rodata._ZTISt9exception
                0x08015620        0x8 /home/reymondo/CodeSourcery/Sourcery_G++_Lite/bin/../lib/gcc/arm-none-eabi/4.5.2/../../../../arm-none-eabi/lib/thumb2/libstdc++.a(eh_exception.o)
                0x08015620                _ZTISt9exception
 .rodata._ZTVSt9exception
                0x08015628       0x18 /home/reymondo/CodeSourcery/Sourcery_G++_Lite/bin/../lib/gcc/arm-none-eabi/4.5.2/../../../../arm-none-eabi/lib/thumb2/libstdc++.a(eh_exception.o)
                0x08015628                _ZTVSt9exception
 .rodata._ZTIN10__cxxabiv115__forced_unwindE
                0x08015640        0x8 /home/reymondo/CodeSourcery/Sourcery_G++_Lite/bin/../lib/gcc/arm-none-eabi/4.5.2/../../../../arm-none-eabi/lib/thumb2/libstdc++.a(eh_exception.o)
                0x08015640                _ZTIN10__cxxabiv115__forced_unwindE
 .rodata._ZTSSt13bad_exception
                0x08015648       0x14 /home/reymondo/CodeSourcery/Sourcery_G++_Lite/bin/../lib/gcc/arm-none-eabi/4.5.2/../../../../arm-none-eabi/lib/thumb2/libstdc++.a(eh_exception.o)
                0x08015648                _ZTSSt13bad_exception
 .rodata._ZTSN10__cxxabiv119__foreign_exceptionE
                0x0801565c       0x24 /home/reymondo/CodeSourcery/Sourcery_G++_Lite/bin/../lib/gcc/arm-none-eabi/4.5.2/../../../../arm-none-eabi/lib/thumb2/libstdc++.a(eh_exception.o)
                0x0801565c                _ZTSN10__cxxabiv119__foreign_exceptionE
 .rodata.str1.4
                0x08015680       0x23 /home/reymondo/CodeSourcery/Sourcery_G++_Lite/bin/../lib/gcc/arm-none-eabi/4.5.2/../../../../arm-none-eabi/lib/thumb2/libstdc++.a(eh_exception.o)
                                 0x24 (size before relaxing)
 *fill*         0x080156a3        0x1 00
 .rodata._ZTIN10__cxxabiv119__foreign_exceptionE
                0x080156a4        0x8 /home/reymondo/CodeSourcery/Sourcery_G++_Lite/bin/../lib/gcc/arm-none-eabi/4.5.2/../../../../arm-none-eabi/lib/thumb2/libstdc++.a(eh_exception.o)
                0x080156a4                _ZTIN10__cxxabiv119__foreign_exceptionE
 *fill*         0x080156ac        0x4 00
 .rodata._ZTVSt13bad_exception
                0x080156b0       0x18 /home/reymondo/CodeSourcery/Sourcery_G++_Lite/bin/../lib/gcc/arm-none-eabi/4.5.2/../../../../arm-none-eabi/lib/thumb2/libstdc++.a(eh_exception.o)
                0x080156b0                _ZTVSt13bad_exception
 .rodata._ZTSSt9exception
                0x080156c8       0x10 /home/reymondo/CodeSourcery/Sourcery_G++_Lite/bin/../lib/gcc/arm-none-eabi/4.5.2/../../../../arm-none-eabi/lib/thumb2/libstdc++.a(eh_exception.o)
                0x080156c8                _ZTSSt9exception
 .rodata._ZTSN10__cxxabiv115__forced_unwindE
                0x080156d8       0x20 /home/reymondo/CodeSourcery/Sourcery_G++_Lite/bin/../lib/gcc/arm-none-eabi/4.5.2/../../../../arm-none-eabi/lib/thumb2/libstdc++.a(eh_exception.o)
                0x080156d8                _ZTSN10__cxxabiv115__forced_unwindE
 .rodata._ZTISt13bad_exception
                0x080156f8        0xc /home/reymondo/CodeSourcery/Sourcery_G++_Lite/bin/../lib/gcc/arm-none-eabi/4.5.2/../../../../arm-none-eabi/lib/thumb2/libstdc++.a(eh_exception.o)
                0x080156f8                _ZTISt13bad_exception
 *fill*         0x08015704        0x4 00
 .rodata._ZTVN10__cxxabiv120__si_class_type_infoE
                0x08015708       0x30 /home/reymondo/CodeSourcery/Sourcery_G++_Lite/bin/../lib/gcc/arm-none-eabi/4.5.2/../../../../arm-none-eabi/lib/thumb2/libstdc++.a(si_class_type_info.o)
                0x08015708                _ZTVN10__cxxabiv120__si_class_type_infoE
 .rodata._ZTIN10__cxxabiv120__si_class_type_infoE
                0x08015738        0xc /home/reymondo/CodeSourcery/Sourcery_G++_Lite/bin/../lib/gcc/arm-none-eabi/4.5.2/../../../../arm-none-eabi/lib/thumb2/libstdc++.a(si_class_type_info.o)
                0x08015738                _ZTIN10__cxxabiv120__si_class_type_infoE
 .rodata._ZTSN10__cxxabiv120__si_class_type_infoE
                0x08015744       0x28 /home/reymondo/CodeSourcery/Sourcery_G++_Lite/bin/../lib/gcc/arm-none-eabi/4.5.2/../../../../arm-none-eabi/lib/thumb2/libstdc++.a(si_class_type_info.o)
                0x08015744                _ZTSN10__cxxabiv120__si_class_type_infoE
 *fill*         0x0801576c        0x4 00
 .rodata._ZTVN10__cxxabiv117__class_type_infoE
                0x08015770       0x30 /home/reymondo/CodeSourcery/Sourcery_G++_Lite/bin/../lib/gcc/arm-none-eabi/4.5.2/../../../../arm-none-eabi/lib/thumb2/libstdc++.a(class_type_info.o)
                0x08015770                _ZTVN10__cxxabiv117__class_type_infoE
 .rodata._ZTIN10__cxxabiv117__class_type_infoE
                0x080157a0        0xc /home/reymondo/CodeSourcery/Sourcery_G++_Lite/bin/../lib/gcc/arm-none-eabi/4.5.2/../../../../arm-none-eabi/lib/thumb2/libstdc++.a(class_type_info.o)
                0x080157a0                _ZTIN10__cxxabiv117__class_type_infoE
 .rodata._ZTSN10__cxxabiv117__class_type_infoE
                0x080157ac       0x24 /home/reymondo/CodeSourcery/Sourcery_G++_Lite/bin/../lib/gcc/arm-none-eabi/4.5.2/../../../../arm-none-eabi/lib/thumb2/libstdc++.a(class_type_info.o)
                0x080157ac                _ZTSN10__cxxabiv117__class_type_infoE
 .rodata.str1.4
                0x080157d0      0x5a7 /home/reymondo/CodeSourcery/Sourcery_G++_Lite/bin/../lib/gcc/arm-none-eabi/4.5.2/../../../../arm-none-eabi/lib/thumb2/libstdc++.a(cp-demangle.o)
                                0x5b8 (size before relaxing)
 *fill*         0x08015d77        0x1 00
 .rodata._ZTISt9type_info
                0x08015d78        0x8 /home/reymondo/CodeSourcery/Sourcery_G++_Lite/bin/../lib/gcc/arm-none-eabi/4.5.2/../../../../arm-none-eabi/lib/thumb2/libstdc++.a(tinfo.o)
                0x08015d78                _ZTISt9type_info
 .rodata._ZTSSt9type_info
                0x08015d80       0x10 /home/reymondo/CodeSourcery/Sourcery_G++_Lite/bin/../lib/gcc/arm-none-eabi/4.5.2/../../../../arm-none-eabi/lib/thumb2/libstdc++.a(tinfo.o)
                0x08015d80                _ZTSSt9type_info
 .rodata._ZTVSt9type_info
                0x08015d90       0x20 /home/reymondo/CodeSourcery/Sourcery_G++_Lite/bin/../lib/gcc/arm-none-eabi/4.5.2/../../../../arm-none-eabi/lib/thumb2/libstdc++.a(tinfo.o)
                0x08015d90                _ZTVSt9type_info
 .rodata.str1.4
                0x08015db0        0x2 /home/reymondo/CodeSourcery/Sourcery_G++_Lite/bin/../lib/gcc/arm-none-eabi/4.5.2/../../../../arm-none-eabi/lib/thumb2/libc.a(lib_a-impure.o)
                                  0x4 (size before relaxing)
 *fill*         0x08015db2        0x2 00
 .rodata.str1.4
                0x08015db4       0x42 /home/reymondo/CodeSourcery/Sourcery_G++_Lite/bin/../lib/gcc/arm-none-eabi/4.5.2/../../../../arm-none-eabi/lib/thumb2/libc.a(lib_a-svfprintf.o)
                                 0x44 (size before relaxing)
 *fill*         0x08015df6        0x2 00
 .rodata.str1.4
                0x08015df8       0x10 /home/reymondo/CodeSourcery/Sourcery_G++_Lite/bin/../lib/gcc/arm-none-eabi/4.5.2/../../../../arm-none-eabi/lib/thumb2/libc.a(lib_a-dtoa.o)
                                 0x14 (size before relaxing)
 .rodata.str1.4
                0x08015e08        0x8 /home/reymondo/CodeSourcery/Sourcery_G++_Lite/bin/../lib/gcc/arm-none-eabi/4.5.2/../../../../arm-none-eabi/lib/thumb2/libc.a(lib_a-locale.o)
                                 0x14 (size before relaxing)
 .rodata.str1.4
                0x00000000       0x30 /home/reymondo/CodeSourcery/Sourcery_G++_Lite/bin/../lib/gcc/arm-none-eabi/4.5.2/../../../../arm-none-eabi/lib/thumb2/libc.a(lib_a-svfiprintf.o)
 *(.glue_7)
 .glue_7        0x00000000        0x0 linker stubs
 *(.glue_7t)
 .glue_7t       0x00000000        0x0 linker stubs
                0x08015e10                //. = ALIGN (0x4)
 //*(.ARM.extab* .gnu.linkonce.armextab.*)
                0x08015e10                . = ALIGN (0x4)
                0x08015e10                _etext = .
                0x08015e10                _sidata = _etext

.vfp11_veneer   0x08015e10        0x0
 .vfp11_veneer  0x00000000        0x0 linker stubs

.v4_bx          0x08015e10        0x0
 .v4_bx         0x00000000        0x0 linker stubs
                0x08015e10                . = ALIGN (0x4)
                0x08015e10                __exidx_start = .
                [0x08015e10]                PROVIDE (__exidx_start, __exidx_start)

.ARM.exidx      0x08015e10      0x1d8
 *(.ARM.exidx* .gnu.linkonce.armexidx.*)
 .ARM.exidx.text._ZdlPv
                0x08015ed0        0x0 /home/reymondo/CodeSourcery/Sourcery_G++_Lite/bin/../lib/gcc/arm-none-eabi/4.5.2/../../../../arm-none-eabi/lib/thumb2/libstdc++.a(del_op.o)
                                  0x8 (size before relaxing)
 .ARM.exidx.text._Znwj
                0x08015ed0        0x8 /home/reymondo/CodeSourcery/Sourcery_G++_Lite/bin/../lib/gcc/arm-none-eabi/4.5.2/../../../../arm-none-eabi/lib/thumb2/libstdc++.a(new_op.o)
 .ARM.exidx.text._ZL12read_sleb128PKhPl
                0x08015ed8        0x8 /home/reymondo/CodeSourcery/Sourcery_G++_Lite/bin/../lib/gcc/arm-none-eabi/4.5.2/../../../../arm-none-eabi/lib/thumb2/libstdc++.a(eh_personality.o)
 .ARM.exidx.text._ZL28read_encoded_value_with_basehjPKhPj
                0x08015ee0        0x8 /home/reymondo/CodeSourcery/Sourcery_G++_Lite/bin/../lib/gcc/arm-none-eabi/4.5.2/../../../../arm-none-eabi/lib/thumb2/libstdc++.a(eh_personality.o)
 .ARM.exidx.text._ZL21base_of_encoded_valuehP15_Unwind_Context
                0x08015ee8        0x8 /home/reymondo/CodeSourcery/Sourcery_G++_Lite/bin/../lib/gcc/arm-none-eabi/4.5.2/../../../../arm-none-eabi/lib/thumb2/libstdc++.a(eh_personality.o)
 .ARM.exidx.text._ZL17parse_lsda_headerP15_Unwind_ContextPKhP16lsda_header_info
                0x08015ef0        0x8 /home/reymondo/CodeSourcery/Sourcery_G++_Lite/bin/../lib/gcc/arm-none-eabi/4.5.2/../../../../arm-none-eabi/lib/thumb2/libstdc++.a(eh_personality.o)
 .ARM.exidx.text.__gxx_personality_v0
                0x08015ef8        0x8 /home/reymondo/CodeSourcery/Sourcery_G++_Lite/bin/../lib/gcc/arm-none-eabi/4.5.2/../../../../arm-none-eabi/lib/thumb2/libstdc++.a(eh_personality.o)
 .ARM.exidx.text._ZL23__gxx_exception_cleanup19_Unwind_Reason_CodeP21_Unwind_Control_Block
                0x08015f00        0x8 /home/reymondo/CodeSourcery/Sourcery_G++_Lite/bin/../lib/gcc/arm-none-eabi/4.5.2/../../../../arm-none-eabi/lib/thumb2/libstdc++.a(eh_throw.o)
 .ARM.exidx.text.__cxa_throw
                0x08015f08        0x8 /home/reymondo/CodeSourcery/Sourcery_G++_Lite/bin/../lib/gcc/arm-none-eabi/4.5.2/../../../../arm-none-eabi/lib/thumb2/libstdc++.a(eh_throw.o)
 .ARM.exidx.text.__cxa_rethrow
                0x08015f10        0x8 /home/reymondo/CodeSourcery/Sourcery_G++_Lite/bin/../lib/gcc/arm-none-eabi/4.5.2/../../../../arm-none-eabi/lib/thumb2/libstdc++.a(eh_throw.o)
 .ARM.exidx.text.__cxa_pure_virtual
                0x08015f18        0x8 /home/reymondo/CodeSourcery/Sourcery_G++_Lite/bin/../lib/gcc/arm-none-eabi/4.5.2/../../../../arm-none-eabi/lib/thumb2/libstdc++.a(pure.o)
 .ARM.exidx.text.__cxa_get_globals_fast
                0x08015f20        0x8 /home/reymondo/CodeSourcery/Sourcery_G++_Lite/bin/../lib/gcc/arm-none-eabi/4.5.2/../../../../arm-none-eabi/lib/thumb2/libstdc++.a(eh_globals.o)
 .ARM.exidx.text.__cxa_get_globals
                0x08015f28        0x0 /home/reymondo/CodeSourcery/Sourcery_G++_Lite/bin/../lib/gcc/arm-none-eabi/4.5.2/../../../../arm-none-eabi/lib/thumb2/libstdc++.a(eh_globals.o)
                                  0x8 (size before relaxing)
 .ARM.exidx.text.__cxa_begin_catch
                0x08015f28        0x8 /home/reymondo/CodeSourcery/Sourcery_G++_Lite/bin/../lib/gcc/arm-none-eabi/4.5.2/../../../../arm-none-eabi/lib/thumb2/libstdc++.a(eh_catch.o)
 .ARM.exidx.text.__cxa_end_catch
                0x08015f30        0x8 /home/reymondo/CodeSourcery/Sourcery_G++_Lite/bin/../lib/gcc/arm-none-eabi/4.5.2/../../../../arm-none-eabi/lib/thumb2/libstdc++.a(eh_catch.o)
 .ARM.exidx.text.__cxa_type_match
                0x08015f38        0x8 /home/reymondo/CodeSourcery/Sourcery_G++_Lite/bin/../lib/gcc/arm-none-eabi/4.5.2/../../../../arm-none-eabi/lib/thumb2/libstdc++.a(eh_arm.o)
 .ARM.exidx.text.__cxa_begin_cleanup
                0x08015f40        0x8 /home/reymondo/CodeSourcery/Sourcery_G++_Lite/bin/../lib/gcc/arm-none-eabi/4.5.2/../../../../arm-none-eabi/lib/thumb2/libstdc++.a(eh_arm.o)
 .ARM.exidx.text.__gnu_end_cleanup
                0x08015f48        0x0 /home/reymondo/CodeSourcery/Sourcery_G++_Lite/bin/../lib/gcc/arm-none-eabi/4.5.2/../../../../arm-none-eabi/lib/thumb2/libstdc++.a(eh_arm.o)
                                  0x8 (size before relaxing)
 .ARM.exidx.text._ZN10__cxxabiv111__terminateEPFvvE
                0x08015f48        0x8 /home/reymondo/CodeSourcery/Sourcery_G++_Lite/bin/../lib/gcc/arm-none-eabi/4.5.2/../../../../arm-none-eabi/lib/thumb2/libstdc++.a(eh_terminate.o)
 .ARM.exidx.text._ZSt9terminatev
                0x08015f50        0x8 /home/reymondo/CodeSourcery/Sourcery_G++_Lite/bin/../lib/gcc/arm-none-eabi/4.5.2/../../../../arm-none-eabi/lib/thumb2/libstdc++.a(eh_terminate.o)
 .ARM.exidx.text._ZN10__cxxabiv112__unexpectedEPFvvE
                0x08015f58        0x8 /home/reymondo/CodeSourcery/Sourcery_G++_Lite/bin/../lib/gcc/arm-none-eabi/4.5.2/../../../../arm-none-eabi/lib/thumb2/libstdc++.a(eh_terminate.o)
 .ARM.exidx.text._ZSt10unexpectedv
                0x08015f60        0x8 /home/reymondo/CodeSourcery/Sourcery_G++_Lite/bin/../lib/gcc/arm-none-eabi/4.5.2/../../../../arm-none-eabi/lib/thumb2/libstdc++.a(eh_terminate.o)
 .ARM.exidx.text.__cxa_allocate_exception
                0x08015f68        0x8 /home/reymondo/CodeSourcery/Sourcery_G++_Lite/bin/../lib/gcc/arm-none-eabi/4.5.2/../../../../arm-none-eabi/lib/thumb2/libstdc++.a(eh_alloc.o)
 .ARM.exidx.text.__cxa_free_exception
                0x08015f70        0x0 /home/reymondo/CodeSourcery/Sourcery_G++_Lite/bin/../lib/gcc/arm-none-eabi/4.5.2/../../../../arm-none-eabi/lib/thumb2/libstdc++.a(eh_alloc.o)
                                  0x8 (size before relaxing)
 .ARM.exidx.text.__cxa_call_terminate
                0x08015f70        0x0 /home/reymondo/CodeSourcery/Sourcery_G++_Lite/bin/../lib/gcc/arm-none-eabi/4.5.2/../../../../arm-none-eabi/lib/thumb2/libstdc++.a(eh_call.o)
                                  0x8 (size before relaxing)
 .ARM.exidx.text.__cxa_call_unexpected
                0x08015f70        0x8 /home/reymondo/CodeSourcery/Sourcery_G++_Lite/bin/../lib/gcc/arm-none-eabi/4.5.2/../../../../arm-none-eabi/lib/thumb2/libstdc++.a(eh_call.o)
 .ARM.exidx.text._ZNKSt9bad_alloc4whatEv
                0x08015f78        0x8 /home/reymondo/CodeSourcery/Sourcery_G++_Lite/bin/../lib/gcc/arm-none-eabi/4.5.2/../../../../arm-none-eabi/lib/thumb2/libstdc++.a(new_handler.o)
 .ARM.exidx.text._ZNSt9bad_allocD2Ev
                0x08015f80        0x0 /home/reymondo/CodeSourcery/Sourcery_G++_Lite/bin/../lib/gcc/arm-none-eabi/4.5.2/../../../../arm-none-eabi/lib/thumb2/libstdc++.a(new_handler.o)
                                  0x8 (size before relaxing)
 .ARM.exidx.text._ZNSt9bad_allocD0Ev
                0x08015f80        0x0 /home/reymondo/CodeSourcery/Sourcery_G++_Lite/bin/../lib/gcc/arm-none-eabi/4.5.2/../../../../arm-none-eabi/lib/thumb2/libstdc++.a(new_handler.o)
                                  0x8 (size before relaxing)
 .ARM.exidx.text._ZN9__gnu_cxx27__verbose_terminate_handlerEv
                0x08015f80        0x8 /home/reymondo/CodeSourcery/Sourcery_G++_Lite/bin/../lib/gcc/arm-none-eabi/4.5.2/../../../../arm-none-eabi/lib/thumb2/libstdc++.a(vterminate.o)
 .ARM.exidx.text._ZNSt9exceptionD2Ev
                0x08015f88        0x8 /home/reymondo/CodeSourcery/Sourcery_G++_Lite/bin/../lib/gcc/arm-none-eabi/4.5.2/../../../../arm-none-eabi/lib/thumb2/libstdc++.a(eh_exception.o)
 .ARM.exidx.text._ZNSt13bad_exceptionD2Ev
                0x08015f90        0x0 /home/reymondo/CodeSourcery/Sourcery_G++_Lite/bin/../lib/gcc/arm-none-eabi/4.5.2/../../../../arm-none-eabi/lib/thumb2/libstdc++.a(eh_exception.o)
                                  0x8 (size before relaxing)
 .ARM.exidx.text._ZNKSt9exception4whatEv
                0x08015f90        0x0 /home/reymondo/CodeSourcery/Sourcery_G++_Lite/bin/../lib/gcc/arm-none-eabi/4.5.2/../../../../arm-none-eabi/lib/thumb2/libstdc++.a(eh_exception.o)
                                  0x8 (size before relaxing)
 .ARM.exidx.text._ZNKSt13bad_exception4whatEv
                0x08015f90        0x0 /home/reymondo/CodeSourcery/Sourcery_G++_Lite/bin/../lib/gcc/arm-none-eabi/4.5.2/../../../../arm-none-eabi/lib/thumb2/libstdc++.a(eh_exception.o)
                                  0x8 (size before relaxing)
 .ARM.exidx.text._ZNSt13bad_exceptionD0Ev
                0x08015f90        0x0 /home/reymondo/CodeSourcery/Sourcery_G++_Lite/bin/../lib/gcc/arm-none-eabi/4.5.2/../../../../arm-none-eabi/lib/thumb2/libstdc++.a(eh_exception.o)
                                  0x8 (size before relaxing)
 .ARM.exidx.text._ZNSt9exceptionD0Ev
                0x08015f90        0x0 /home/reymondo/CodeSourcery/Sourcery_G++_Lite/bin/../lib/gcc/arm-none-eabi/4.5.2/../../../../arm-none-eabi/lib/thumb2/libstdc++.a(eh_exception.o)
                                  0x8 (size before relaxing)
 .ARM.exidx.text.__cxa_current_exception_type
                0x08015f90        0x0 /home/reymondo/CodeSourcery/Sourcery_G++_Lite/bin/../lib/gcc/arm-none-eabi/4.5.2/../../../../arm-none-eabi/lib/thumb2/libstdc++.a(eh_type.o)
                                  0x8 (size before relaxing)
 .ARM.exidx.text._ZNK10__cxxabiv120__si_class_type_info11__do_upcastEPKNS_17__class_type_infoEPKvRNS1_15__upcast_resultE
                0x08015f90        0x8 /home/reymondo/CodeSourcery/Sourcery_G++_Lite/bin/../lib/gcc/arm-none-eabi/4.5.2/../../../../arm-none-eabi/lib/thumb2/libstdc++.a(si_class_type_info.o)
 .ARM.exidx.text._ZNK10__cxxabiv120__si_class_type_info12__do_dyncastEiNS_17__class_type_info10__sub_kindEPKS1_PKvS4_S6_RNS1_16__dyncast_resultE
                0x08015f98        0x8 /home/reymondo/CodeSourcery/Sourcery_G++_Lite/bin/../lib/gcc/arm-none-eabi/4.5.2/../../../../arm-none-eabi/lib/thumb2/libstdc++.a(si_class_type_info.o)
 .ARM.exidx.text._ZNK10__cxxabiv120__si_class_type_info20__do_find_public_srcEiPKvPKNS_17__class_type_infoES2_
                0x08015fa0        0x8 /home/reymondo/CodeSourcery/Sourcery_G++_Lite/bin/../lib/gcc/arm-none-eabi/4.5.2/../../../../arm-none-eabi/lib/thumb2/libstdc++.a(si_class_type_info.o)
 .ARM.exidx.text._ZN10__cxxabiv120__si_class_type_infoD2Ev
                0x08015fa8        0x8 /home/reymondo/CodeSourcery/Sourcery_G++_Lite/bin/../lib/gcc/arm-none-eabi/4.5.2/../../../../arm-none-eabi/lib/thumb2/libstdc++.a(si_class_type_info.o)
 .ARM.exidx.text._ZN10__cxxabiv120__si_class_type_infoD0Ev
                0x08015fb0        0x0 /home/reymondo/CodeSourcery/Sourcery_G++_Lite/bin/../lib/gcc/arm-none-eabi/4.5.2/../../../../arm-none-eabi/lib/thumb2/libstdc++.a(si_class_type_info.o)
                                  0x8 (size before relaxing)
 .ARM.exidx.text._ZNK10__cxxabiv117__class_type_info11__do_upcastEPKS0_PPv
                0x08015fb0        0x8 /home/reymondo/CodeSourcery/Sourcery_G++_Lite/bin/../lib/gcc/arm-none-eabi/4.5.2/../../../../arm-none-eabi/lib/thumb2/libstdc++.a(class_type_info.o)
 .ARM.exidx.text._ZNK10__cxxabiv117__class_type_info20__do_find_public_srcEiPKvPKS0_S2_
                0x08015fb8        0x8 /home/reymondo/CodeSourcery/Sourcery_G++_Lite/bin/../lib/gcc/arm-none-eabi/4.5.2/../../../../arm-none-eabi/lib/thumb2/libstdc++.a(class_type_info.o)
 .ARM.exidx.text._ZNK10__cxxabiv117__class_type_info11__do_upcastEPKS0_PKvRNS0_15__upcast_resultE
                0x08015fc0        0x8 /home/reymondo/CodeSourcery/Sourcery_G++_Lite/bin/../lib/gcc/arm-none-eabi/4.5.2/../../../../arm-none-eabi/lib/thumb2/libstdc++.a(class_type_info.o)
 .ARM.exidx.text._ZNK10__cxxabiv117__class_type_info12__do_dyncastEiNS0_10__sub_kindEPKS0_PKvS3_S5_RNS0_16__dyncast_resultE
                0x08015fc8        0x8 /home/reymondo/CodeSourcery/Sourcery_G++_Lite/bin/../lib/gcc/arm-none-eabi/4.5.2/../../../../arm-none-eabi/lib/thumb2/libstdc++.a(class_type_info.o)
 .ARM.exidx.text._ZNK10__cxxabiv117__class_type_info10__do_catchEPKSt9type_infoPPvj
                0x08015fd0        0x8 /home/reymondo/CodeSourcery/Sourcery_G++_Lite/bin/../lib/gcc/arm-none-eabi/4.5.2/../../../../arm-none-eabi/lib/thumb2/libstdc++.a(class_type_info.o)
 .ARM.exidx.text._ZN10__cxxabiv117__class_type_infoD2Ev
                0x08015fd8        0x8 /home/reymondo/CodeSourcery/Sourcery_G++_Lite/bin/../lib/gcc/arm-none-eabi/4.5.2/../../../../arm-none-eabi/lib/thumb2/libstdc++.a(class_type_info.o)
 .ARM.exidx.text._ZN10__cxxabiv117__class_type_infoD0Ev
                0x08015fe0        0x0 /home/reymondo/CodeSourcery/Sourcery_G++_Lite/bin/../lib/gcc/arm-none-eabi/4.5.2/../../../../arm-none-eabi/lib/thumb2/libstdc++.a(class_type_info.o)
                                  0x8 (size before relaxing)
 .ARM.exidx.text._ZNSt9type_infoD2Ev
                0x08015fe0        0x8 /home/reymondo/CodeSourcery/Sourcery_G++_Lite/bin/../lib/gcc/arm-none-eabi/4.5.2/../../../../arm-none-eabi/lib/thumb2/libstdc++.a(tinfo.o)
 .ARM.exidx.text._ZNKSt9type_info14__is_pointer_pEv
                0x08015fe8        0x0 /home/reymondo/CodeSourcery/Sourcery_G++_Lite/bin/../lib/gcc/arm-none-eabi/4.5.2/../../../../arm-none-eabi/lib/thumb2/libstdc++.a(tinfo.o)
                                  0x8 (size before relaxing)
 .ARM.exidx.text._ZNKSt9type_info15__is_function_pEv
                0x08015fe8        0x0 /home/reymondo/CodeSourcery/Sourcery_G++_Lite/bin/../lib/gcc/arm-none-eabi/4.5.2/../../../../arm-none-eabi/lib/thumb2/libstdc++.a(tinfo.o)
                                  0x8 (size before relaxing)
 .ARM.exidx.text._ZNKSt9type_info11__do_upcastEPKN10__cxxabiv117__class_type_infoEPPv
                0x08015fe8        0x0 /home/reymondo/CodeSourcery/Sourcery_G++_Lite/bin/../lib/gcc/arm-none-eabi/4.5.2/../../../../arm-none-eabi/lib/thumb2/libstdc++.a(tinfo.o)
                                  0x8 (size before relaxing)
 .ARM.exidx.text._ZNSt9type_infoD0Ev
                0x08015fe8        0x0 /home/reymondo/CodeSourcery/Sourcery_G++_Lite/bin/../lib/gcc/arm-none-eabi/4.5.2/../../../../arm-none-eabi/lib/thumb2/libstdc++.a(tinfo.o)
                                  0x8 (size before relaxing)
 .ARM.exidx.text._ZNKSt9type_infoeqERKS_
                0x08015fe8        0x0 /home/reymondo/CodeSourcery/Sourcery_G++_Lite/bin/../lib/gcc/arm-none-eabi/4.5.2/../../../../arm-none-eabi/lib/thumb2/libstdc++.a(tinfo.o)
                                  0x8 (size before relaxing)
 .ARM.exidx.text._ZNKSt9type_info10__do_catchEPKS_PPvj
                0x08015fe8        0x0 /home/reymondo/CodeSourcery/Sourcery_G++_Lite/bin/../lib/gcc/arm-none-eabi/4.5.2/../../../../arm-none-eabi/lib/thumb2/libstdc++.a(tinfo.o)
                                  0x8 (size before relaxing)
 .ARM.exidx     0x08015e10       0x88 /home/reymondo/CodeSourcery/Sourcery_G++_Lite/bin/../lib/gcc/arm-none-eabi/4.5.2/thumb2/libgcc.a(unwind-arm.o)
                                 0xc0 (size before relaxing)
 .ARM.exidx     0x08015e98       0x38 /home/reymondo/CodeSourcery/Sourcery_G++_Lite/bin/../lib/gcc/arm-none-eabi/4.5.2/thumb2/libgcc.a(pr-support.o)
                                 0x48 (size before relaxing)
 .ARM.exidx     0x08015ed0        0x0 /home/reymondo/CodeSourcery/Sourcery_G++_Lite/bin/../lib/gcc/arm-none-eabi/4.5.2/thumb2/libgcc.a(_divdi3.o)
                                  0x8 (size before relaxing)
 .ARM.exidx     0x08015ed0        0x0 /home/reymondo/CodeSourcery/Sourcery_G++_Lite/bin/../lib/gcc/arm-none-eabi/4.5.2/thumb2/libgcc.a(_udivdi3.o)
                                  0x8 (size before relaxing)
                0x08015fe8                . = ALIGN (0x4)
                0x08015fe8                __exidx_end = .
                [0x08015fe8]                PROVIDE (__exidx_end, __exidx_end)
                0x08015fe8                . = ALIGN (0x4)

.data           0x20000000      0x5a0 load address 0x00000000
                0x20000000                . = ALIGN (0x4)
                0x20000000                _sdata = .
 *(.data)
 .data          0x20000000       0xf4 /home/reymondo/CodeSourcery/Sourcery_G++_Lite/bin/../lib/gcc/arm-none-eabi/4.5.2/../../../../arm-none-eabi/lib/thumb2/libc.a(lib_a-impure.o)
                0x20000000                _impure_ptr
 .data          0x200000f4      0x410 /home/reymondo/CodeSourcery/Sourcery_G++_Lite/bin/../lib/gcc/arm-none-eabi/4.5.2/../../../../arm-none-eabi/lib/thumb2/libc.a(lib_a-mallocr.o)
                0x200000f4                __malloc_av_
                0x200004fc                __malloc_sbrk_base
                0x20000500                __malloc_trim_threshold
 .data          0x20000504       0x7c /home/reymondo/CodeSourcery/Sourcery_G++_Lite/bin/../lib/gcc/arm-none-eabi/4.5.2/../../../../arm-none-eabi/lib/thumb2/libc.a(lib_a-locale.o)
                0x20000524                __mb_cur_max
 *(.data.*)
 .data.current_heap_end.4326
                0x20000580        0x4 out/syscalls.o
 .data.APBAHBPrescTable
                0x20000584       0x10 out/stm32f10x_rcc.o
 .data.ADCPrescTable
                0x20000594        0x4 out/stm32f10x_rcc.o
 .data._ZN10__cxxabiv120__unexpected_handlerE
                0x20000598        0x4 /home/reymondo/CodeSourcery/Sourcery_G++_Lite/bin/../lib/gcc/arm-none-eabi/4.5.2/../../../../arm-none-eabi/lib/thumb2/libstdc++.a(eh_unex_handler.o)
                0x20000598                _ZN10__cxxabiv120__unexpected_handlerE
 .data._ZN10__cxxabiv119__terminate_handlerE
                0x2000059c        0x4 /home/reymondo/CodeSourcery/Sourcery_G++_Lite/bin/../lib/gcc/arm-none-eabi/4.5.2/../../../../arm-none-eabi/lib/thumb2/libstdc++.a(eh_term_handler.o)
                0x2000059c                _ZN10__cxxabiv119__terminate_handlerE
                0x200005a0                . = ALIGN (0x4)
                0x200005a0                _edata = .

.bss            0x200005a0       0x38 load address 0x000005a0
                0x200005a0                . = ALIGN (0x4)
                0x200005a0                _sbss = .
 *(.bss)
 .bss           0x200005a0       0x34 /home/reymondo/CodeSourcery/Sourcery_G++_Lite/bin/../lib/gcc/arm-none-eabi/4.5.2/../../../../arm-none-eabi/lib/thumb2/libc.a(lib_a-mallocr.o)
                0x200005a0                __malloc_top_pad
                0x200005a4                __malloc_current_mallinfo
                0x200005cc                __malloc_max_sbrked_mem
                0x200005d0                __malloc_max_total_mem
 *(COMMON)
 COMMON         0x200005d4        0x4 /home/reymondo/CodeSourcery/Sourcery_G++_Lite/bin/../lib/gcc/arm-none-eabi/4.5.2/../../../../arm-none-eabi/lib/thumb2/libc.a(lib_a-reent.o)
                0x200005d4                errno
                0x200005d8                . = ALIGN (0x4)
                0x200005d8                _ebss = .
                0x200005d8                PROVIDE (end, _ebss)
                0x200005d8                PROVIDE (_end, _ebss)

.bss._ZL10eh_globals
                0x200005d8        0xc load address 0x000005d8
 .bss._ZL10eh_globals
                0x200005d8        0xc /home/reymondo/CodeSourcery/Sourcery_G++_Lite/bin/../lib/gcc/arm-none-eabi/4.5.2/../../../../arm-none-eabi/lib/thumb2/libstdc++.a(eh_globals.o)

.bss._ZL14emergency_used
                0x200005e4        0x4 load address 0x000005e4
 .bss._ZL14emergency_used
                0x200005e4        0x4 /home/reymondo/CodeSourcery/Sourcery_G++_Lite/bin/../lib/gcc/arm-none-eabi/4.5.2/../../../../arm-none-eabi/lib/thumb2/libstdc++.a(eh_alloc.o)

.bss._ZL16emergency_buffer
                0x200005e8      0x800 load address 0x000005e8
 .bss._ZL16emergency_buffer
                0x200005e8      0x800 /home/reymondo/CodeSourcery/Sourcery_G++_Lite/bin/../lib/gcc/arm-none-eabi/4.5.2/../../../../arm-none-eabi/lib/thumb2/libstdc++.a(eh_alloc.o)

.bss.__new_handler
                0x20000de8        0x4 load address 0x00000de8
 .bss.__new_handler
                0x20000de8        0x4 /home/reymondo/CodeSourcery/Sourcery_G++_Lite/bin/../lib/gcc/arm-none-eabi/4.5.2/../../../../arm-none-eabi/lib/thumb2/libstdc++.a(new_handler.o)
                0x20000de8                __new_handler

.bss._ZZN9__gnu_cxx27__verbose_terminate_handlerEvE11terminating
                0x20000dec        0x1 load address 0x00000dec
 .bss._ZZN9__gnu_cxx27__verbose_terminate_handlerEvE11terminating
                0x20000dec        0x1 /home/reymondo/CodeSourcery/Sourcery_G++_Lite/bin/../lib/gcc/arm-none-eabi/4.5.2/../../../../arm-none-eabi/lib/thumb2/libstdc++.a(vterminate.o)

._usrstack      0x20000ded      0x103 load address 0x00000ded
                0x20000df0                . = ALIGN (0x4)
 *fill*         0x20000ded        0x3 00
                0x20000df0                _susrstack = .
                0x20000ef0                . = (. + _Minimum_Stack_Size)
 *fill*         0x20000df0      0x100 00
                0x20000ef0                . = ALIGN (0x4)
                0x20000ef0                _eusrstack = .
                0x20000ef0                . = ALIGN (0x4)
                0x20000ef0                __heap_start = .
                [0x20000ef0]                PROVIDE (__heap_start, __heap_start)
                0x20000ef0                . = ALIGN (0x4)
                0x20010000                __heap_end = __ram_end
                [0x20010000]                PROVIDE (__heap_end, __heap_end)

DISCARD
 libc.a(*)
 libm.a(*)
 libgcc.a(*)

.stab
 *(.stab)

.stabstr
 *(.stabstr)

.stab.excl
 *(.stab.excl)

.stab.exclstr
 *(.stab.exclstr)

.stab.index
 *(.stab.index)

.stab.indexstr
 *(.stab.indexstr)

.ARM.attributes
                0x00000000       0x25
 .ARM.attributes
                0x00000000       0x19 /home/reymondo/CodeSourcery/Sourcery_G++_Lite/bin/../lib/gcc/arm-none-eabi/4.5.2/thumb2/crti.o
 .ARM.attributes
                0x00000019       0x29 /home/reymondo/CodeSourcery/Sourcery_G++_Lite/bin/../lib/gcc/arm-none-eabi/4.5.2/thumb2/crtbegin.o
 .ARM.attributes
                0x00000042       0x21 out/startup_stm32f10x_cl.o
 .ARM.attributes
                0x00000063       0x31 out/stm32f10x_it.o
 .ARM.attributes
                0x00000094       0x31 out/syscalls.o
 .ARM.attributes
                0x000000c5       0x31 out/vectors.o
 .ARM.attributes
                0x000000f6       0x31 out/core_cm3.o
 .ARM.attributes
                0x00000127       0x31 out/system_stm32f10x.o
 .ARM.attributes
                0x00000158       0x31 out/misc.o
 .ARM.attributes
                0x00000189       0x31 out/stm32f10x_adc.o
 .ARM.attributes
                0x000001ba       0x31 out/stm32f10x_bkp.o
 .ARM.attributes
                0x000001eb       0x31 out/stm32f10x_can.o
 .ARM.attributes
                0x0000021c       0x31 out/stm32f10x_cec.o
 .ARM.attributes
                0x0000024d       0x31 out/stm32f10x_crc.o
 .ARM.attributes
                0x0000027e       0x31 out/stm32f10x_dac.o
 .ARM.attributes
                0x000002af       0x31 out/stm32f10x_dbgmcu.o
 .ARM.attributes
                0x000002e0       0x31 out/stm32f10x_dma.o
 .ARM.attributes
                0x00000311       0x31 out/stm32f10x_exti.o
 .ARM.attributes
                0x00000342       0x31 out/stm32f10x_flash.o
 .ARM.attributes
                0x00000373       0x31 out/stm32f10x_fsmc.o
 .ARM.attributes
                0x000003a4       0x31 out/stm32f10x_gpio.o
 .ARM.attributes
                0x000003d5       0x31 out/stm32f10x_i2c.o
 .ARM.attributes
                0x00000406       0x31 out/stm32f10x_iwdg.o
 .ARM.attributes
                0x00000437       0x31 out/stm32f10x_pwr.o
 .ARM.attributes
                0x00000468       0x31 out/stm32f10x_rcc.o
 .ARM.attributes
                0x00000499       0x31 out/stm32f10x_rtc.o
 .ARM.attributes
                0x000004ca       0x31 out/stm32f10x_sdio.o
 .ARM.attributes
                0x000004fb       0x31 out/stm32f10x_spi.o
 .ARM.attributes
                0x0000052c       0x31 out/stm32f10x_tim.o
 .ARM.attributes
                0x0000055d       0x31 out/stm32f10x_usart.o
 .ARM.attributes
                0x0000058e       0x31 out/stm32f10x_wwdg.o
 .ARM.attributes
                0x000005bf       0x31 out/main.o
 .ARM.attributes
                0x000005f0       0x31 out/CGpioManager.o
 .ARM.attributes
                0x00000621       0x31 out/CRccManager.o
 .ARM.attributes
                0x00000652       0x31 out/CUsartIrqHandler.o
 .ARM.attributes
                0x00000683       0x31 out/CUsartStateRunning.o
 .ARM.attributes
                0x000006b4       0x31 out/CUsartStateUnusable.o
 .ARM.attributes
                0x000006e5       0x31 out/CUsartStateUsable.o
 .ARM.attributes
                0x00000716       0x29 /home/reymondo/CodeSourcery/Sourcery_G++_Lite/bin/../lib/gcc/arm-none-eabi/4.5.2/../../../../arm-none-eabi/lib/thumb2/libstdc++.a(del_op.o)
 .ARM.attributes
                0x0000073f       0x29 /home/reymondo/CodeSourcery/Sourcery_G++_Lite/bin/../lib/gcc/arm-none-eabi/4.5.2/../../../../arm-none-eabi/lib/thumb2/libstdc++.a(new_op.o)
 .ARM.attributes
                0x00000768       0x29 /home/reymondo/CodeSourcery/Sourcery_G++_Lite/bin/../lib/gcc/arm-none-eabi/4.5.2/../../../../arm-none-eabi/lib/thumb2/libstdc++.a(eh_personality.o)
 .ARM.attributes
                0x00000791       0x29 /home/reymondo/CodeSourcery/Sourcery_G++_Lite/bin/../lib/gcc/arm-none-eabi/4.5.2/../../../../arm-none-eabi/lib/thumb2/libstdc++.a(eh_throw.o)
 .ARM.attributes
                0x000007ba       0x29 /home/reymondo/CodeSourcery/Sourcery_G++_Lite/bin/../lib/gcc/arm-none-eabi/4.5.2/../../../../arm-none-eabi/lib/thumb2/libstdc++.a(pure.o)
 .ARM.attributes
                0x000007e3       0x29 /home/reymondo/CodeSourcery/Sourcery_G++_Lite/bin/../lib/gcc/arm-none-eabi/4.5.2/../../../../arm-none-eabi/lib/thumb2/libstdc++.a(eh_unex_handler.o)
 .ARM.attributes
                0x0000080c       0x29 /home/reymondo/CodeSourcery/Sourcery_G++_Lite/bin/../lib/gcc/arm-none-eabi/4.5.2/../../../../arm-none-eabi/lib/thumb2/libstdc++.a(eh_globals.o)
 .ARM.attributes
                0x00000835       0x29 /home/reymondo/CodeSourcery/Sourcery_G++_Lite/bin/../lib/gcc/arm-none-eabi/4.5.2/../../../../arm-none-eabi/lib/thumb2/libstdc++.a(eh_catch.o)
 .ARM.attributes
                0x0000085e       0x29 /home/reymondo/CodeSourcery/Sourcery_G++_Lite/bin/../lib/gcc/arm-none-eabi/4.5.2/../../../../arm-none-eabi/lib/thumb2/libstdc++.a(eh_arm.o)
 .ARM.attributes
                0x00000887       0x29 /home/reymondo/CodeSourcery/Sourcery_G++_Lite/bin/../lib/gcc/arm-none-eabi/4.5.2/../../../../arm-none-eabi/lib/thumb2/libstdc++.a(eh_terminate.o)
 .ARM.attributes
                0x000008b0       0x29 /home/reymondo/CodeSourcery/Sourcery_G++_Lite/bin/../lib/gcc/arm-none-eabi/4.5.2/../../../../arm-none-eabi/lib/thumb2/libstdc++.a(eh_alloc.o)
 .ARM.attributes
                0x000008d9       0x29 /home/reymondo/CodeSourcery/Sourcery_G++_Lite/bin/../lib/gcc/arm-none-eabi/4.5.2/../../../../arm-none-eabi/lib/thumb2/libstdc++.a(eh_call.o)
 .ARM.attributes
                0x00000902       0x29 /home/reymondo/CodeSourcery/Sourcery_G++_Lite/bin/../lib/gcc/arm-none-eabi/4.5.2/../../../../arm-none-eabi/lib/thumb2/libstdc++.a(new_handler.o)
 .ARM.attributes
                0x0000092b       0x29 /home/reymondo/CodeSourcery/Sourcery_G++_Lite/bin/../lib/gcc/arm-none-eabi/4.5.2/../../../../arm-none-eabi/lib/thumb2/libstdc++.a(eh_term_handler.o)
 .ARM.attributes
                0x00000954       0x29 /home/reymondo/CodeSourcery/Sourcery_G++_Lite/bin/../lib/gcc/arm-none-eabi/4.5.2/../../../../arm-none-eabi/lib/thumb2/libstdc++.a(vterminate.o)
 .ARM.attributes
                0x0000097d       0x29 /home/reymondo/CodeSourcery/Sourcery_G++_Lite/bin/../lib/gcc/arm-none-eabi/4.5.2/../../../../arm-none-eabi/lib/thumb2/libstdc++.a(eh_exception.o)
 .ARM.attributes
                0x000009a6       0x29 /home/reymondo/CodeSourcery/Sourcery_G++_Lite/bin/../lib/gcc/arm-none-eabi/4.5.2/../../../../arm-none-eabi/lib/thumb2/libstdc++.a(eh_type.o)
 .ARM.attributes
                0x000009cf       0x29 /home/reymondo/CodeSourcery/Sourcery_G++_Lite/bin/../lib/gcc/arm-none-eabi/4.5.2/../../../../arm-none-eabi/lib/thumb2/libstdc++.a(si_class_type_info.o)
 .ARM.attributes
                0x000009f8       0x29 /home/reymondo/CodeSourcery/Sourcery_G++_Lite/bin/../lib/gcc/arm-none-eabi/4.5.2/../../../../arm-none-eabi/lib/thumb2/libstdc++.a(class_type_info.o)
 .ARM.attributes
                0x00000a21       0x29 /home/reymondo/CodeSourcery/Sourcery_G++_Lite/bin/../lib/gcc/arm-none-eabi/4.5.2/../../../../arm-none-eabi/lib/thumb2/libstdc++.a(cp-demangle.o)
 .ARM.attributes
                0x00000a4a       0x29 /home/reymondo/CodeSourcery/Sourcery_G++_Lite/bin/../lib/gcc/arm-none-eabi/4.5.2/../../../../arm-none-eabi/lib/thumb2/libstdc++.a(tinfo.o)
 .ARM.attributes
                0x00000a73       0x29 /home/reymondo/CodeSourcery/Sourcery_G++_Lite/bin/../lib/gcc/arm-none-eabi/4.5.2/thumb2/libgcc.a(unwind-arm.o)
 .ARM.attributes
                0x00000a9c       0x1b /home/reymondo/CodeSourcery/Sourcery_G++_Lite/bin/../lib/gcc/arm-none-eabi/4.5.2/thumb2/libgcc.a(libunwind.o)
 .ARM.attributes
                0x00000ab7       0x29 /home/reymondo/CodeSourcery/Sourcery_G++_Lite/bin/../lib/gcc/arm-none-eabi/4.5.2/thumb2/libgcc.a(pr-support.o)
 .ARM.attributes
                0x00000ae0       0x29 /home/reymondo/CodeSourcery/Sourcery_G++_Lite/bin/../lib/gcc/arm-none-eabi/4.5.2/../../../../arm-none-eabi/lib/thumb2/libc.a(lib_a-abort.o)
 .ARM.attributes
                0x00000b09       0x29 /home/reymondo/CodeSourcery/Sourcery_G++_Lite/bin/../lib/gcc/arm-none-eabi/4.5.2/../../../../arm-none-eabi/lib/thumb2/libc.a(lib_a-fputc.o)
 .ARM.attributes
                0x00000b32       0x29 /home/reymondo/CodeSourcery/Sourcery_G++_Lite/bin/../lib/gcc/arm-none-eabi/4.5.2/../../../../arm-none-eabi/lib/thumb2/libc.a(lib_a-fputs.o)
 .ARM.attributes
                0x00000b5b       0x29 /home/reymondo/CodeSourcery/Sourcery_G++_Lite/bin/../lib/gcc/arm-none-eabi/4.5.2/../../../../arm-none-eabi/lib/thumb2/libc.a(lib_a-fvwrite.o)
 .ARM.attributes
                0x00000b84       0x29 /home/reymondo/CodeSourcery/Sourcery_G++_Lite/bin/../lib/gcc/arm-none-eabi/4.5.2/../../../../arm-none-eabi/lib/thumb2/libc.a(lib_a-fwrite.o)
 .ARM.attributes
                0x00000bad       0x29 /home/reymondo/CodeSourcery/Sourcery_G++_Lite/bin/../lib/gcc/arm-none-eabi/4.5.2/../../../../arm-none-eabi/lib/thumb2/libc.a(lib_a-impure.o)
 .ARM.attributes
                0x00000bd6       0x29 /home/reymondo/CodeSourcery/Sourcery_G++_Lite/bin/../lib/gcc/arm-none-eabi/4.5.2/../../../../arm-none-eabi/lib/thumb2/libc.a(lib_a-malloc.o)
 .ARM.attributes
                0x00000bff       0x29 /home/reymondo/CodeSourcery/Sourcery_G++_Lite/bin/../lib/gcc/arm-none-eabi/4.5.2/../../../../arm-none-eabi/lib/thumb2/libc.a(lib_a-mallocr.o)
 .ARM.attributes
                0x00000c28       0x29 /home/reymondo/CodeSourcery/Sourcery_G++_Lite/bin/../lib/gcc/arm-none-eabi/4.5.2/../../../../arm-none-eabi/lib/thumb2/libc.a(lib_a-memchr.o)
 .ARM.attributes
                0x00000c51       0x29 /home/reymondo/CodeSourcery/Sourcery_G++_Lite/bin/../lib/gcc/arm-none-eabi/4.5.2/../../../../arm-none-eabi/lib/thumb2/libc.a(lib_a-memcmp.o)
 .ARM.attributes
                0x00000c7a       0x29 /home/reymondo/CodeSourcery/Sourcery_G++_Lite/bin/../lib/gcc/arm-none-eabi/4.5.2/../../../../arm-none-eabi/lib/thumb2/libc.a(lib_a-memcpy.o)
 .ARM.attributes
                0x00000ca3       0x29 /home/reymondo/CodeSourcery/Sourcery_G++_Lite/bin/../lib/gcc/arm-none-eabi/4.5.2/../../../../arm-none-eabi/lib/thumb2/libc.a(lib_a-memmove.o)
 .ARM.attributes
                0x00000ccc       0x29 /home/reymondo/CodeSourcery/Sourcery_G++_Lite/bin/../lib/gcc/arm-none-eabi/4.5.2/../../../../arm-none-eabi/lib/thumb2/libc.a(lib_a-memset.o)
 .ARM.attributes
                0x00000cf5       0x29 /home/reymondo/CodeSourcery/Sourcery_G++_Lite/bin/../lib/gcc/arm-none-eabi/4.5.2/../../../../arm-none-eabi/lib/thumb2/libc.a(lib_a-mlock.o)
 .ARM.attributes
                0x00000d1e       0x29 /home/reymondo/CodeSourcery/Sourcery_G++_Lite/bin/../lib/gcc/arm-none-eabi/4.5.2/../../../../arm-none-eabi/lib/thumb2/libc.a(lib_a-putc.o)
 .ARM.attributes
                0x00000d47       0x29 /home/reymondo/CodeSourcery/Sourcery_G++_Lite/bin/../lib/gcc/arm-none-eabi/4.5.2/../../../../arm-none-eabi/lib/thumb2/libc.a(lib_a-realloc.o)
 .ARM.attributes
                0x00000d70       0x29 /home/reymondo/CodeSourcery/Sourcery_G++_Lite/bin/../lib/gcc/arm-none-eabi/4.5.2/../../../../arm-none-eabi/lib/thumb2/libc.a(lib_a-reallocr.o)
 .ARM.attributes
                0x00000d99       0x29 /home/reymondo/CodeSourcery/Sourcery_G++_Lite/bin/../lib/gcc/arm-none-eabi/4.5.2/../../../../arm-none-eabi/lib/thumb2/libc.a(lib_a-reent.o)
 .ARM.attributes
                0x00000dc2       0x29 /home/reymondo/CodeSourcery/Sourcery_G++_Lite/bin/../lib/gcc/arm-none-eabi/4.5.2/../../../../arm-none-eabi/lib/thumb2/libc.a(lib_a-signal.o)
 .ARM.attributes
                0x00000deb       0x29 /home/reymondo/CodeSourcery/Sourcery_G++_Lite/bin/../lib/gcc/arm-none-eabi/4.5.2/../../../../arm-none-eabi/lib/thumb2/libc.a(lib_a-sprintf.o)
 .ARM.attributes
                0x00000e14       0x29 /home/reymondo/CodeSourcery/Sourcery_G++_Lite/bin/../lib/gcc/arm-none-eabi/4.5.2/../../../../arm-none-eabi/lib/thumb2/libc.a(lib_a-strcmp.o)
 .ARM.attributes
                0x00000e3d       0x29 /home/reymondo/CodeSourcery/Sourcery_G++_Lite/bin/../lib/gcc/arm-none-eabi/4.5.2/../../../../arm-none-eabi/lib/thumb2/libc.a(lib_a-strcpy.o)
 .ARM.attributes
                0x00000e66       0x29 /home/reymondo/CodeSourcery/Sourcery_G++_Lite/bin/../lib/gcc/arm-none-eabi/4.5.2/../../../../arm-none-eabi/lib/thumb2/libc.a(lib_a-strlen.o)
 .ARM.attributes
                0x00000e8f       0x29 /home/reymondo/CodeSourcery/Sourcery_G++_Lite/bin/../lib/gcc/arm-none-eabi/4.5.2/../../../../arm-none-eabi/lib/thumb2/libc.a(lib_a-strncmp.o)
 .ARM.attributes
                0x00000eb8       0x29 /home/reymondo/CodeSourcery/Sourcery_G++_Lite/bin/../lib/gcc/arm-none-eabi/4.5.2/../../../../arm-none-eabi/lib/thumb2/libc.a(lib_a-svfprintf.o)
 .ARM.attributes
                0x00000ee1       0x29 /home/reymondo/CodeSourcery/Sourcery_G++_Lite/bin/../lib/gcc/arm-none-eabi/4.5.2/../../../../arm-none-eabi/lib/thumb2/libc.a(lib_a-syswrite.o)
 .ARM.attributes
                0x00000f0a       0x29 /home/reymondo/CodeSourcery/Sourcery_G++_Lite/bin/../lib/gcc/arm-none-eabi/4.5.2/../../../../arm-none-eabi/lib/thumb2/libc.a(lib_a-wbuf.o)
 .ARM.attributes
                0x00000f33       0x29 /home/reymondo/CodeSourcery/Sourcery_G++_Lite/bin/../lib/gcc/arm-none-eabi/4.5.2/../../../../arm-none-eabi/lib/thumb2/libc.a(lib_a-wsetup.o)
 .ARM.attributes
                0x00000f5c       0x29 /home/reymondo/CodeSourcery/Sourcery_G++_Lite/bin/../lib/gcc/arm-none-eabi/4.5.2/../../../../arm-none-eabi/lib/thumb2/libc.a(lib_a-dtoa.o)
 .ARM.attributes
                0x00000f85       0x29 /home/reymondo/CodeSourcery/Sourcery_G++_Lite/bin/../lib/gcc/arm-none-eabi/4.5.2/../../../../arm-none-eabi/lib/thumb2/libc.a(lib_a-fflush.o)
 .ARM.attributes
                0x00000fae       0x29 /home/reymondo/CodeSourcery/Sourcery_G++_Lite/bin/../lib/gcc/arm-none-eabi/4.5.2/../../../../arm-none-eabi/lib/thumb2/libc.a(lib_a-findfp.o)
 .ARM.attributes
                0x00000fd7       0x29 /home/reymondo/CodeSourcery/Sourcery_G++_Lite/bin/../lib/gcc/arm-none-eabi/4.5.2/../../../../arm-none-eabi/lib/thumb2/libc.a(lib_a-freer.o)
 .ARM.attributes
                0x00001000       0x29 /home/reymondo/CodeSourcery/Sourcery_G++_Lite/bin/../lib/gcc/arm-none-eabi/4.5.2/../../../../arm-none-eabi/lib/thumb2/libc.a(lib_a-fwalk.o)
 .ARM.attributes
                0x00001029       0x29 /home/reymondo/CodeSourcery/Sourcery_G++_Lite/bin/../lib/gcc/arm-none-eabi/4.5.2/../../../../arm-none-eabi/lib/thumb2/libc.a(lib_a-locale.o)
 .ARM.attributes
                0x00001052       0x29 /home/reymondo/CodeSourcery/Sourcery_G++_Lite/bin/../lib/gcc/arm-none-eabi/4.5.2/../../../../arm-none-eabi/lib/thumb2/libc.a(lib_a-makebuf.o)
 .ARM.attributes
                0x0000107b       0x29 /home/reymondo/CodeSourcery/Sourcery_G++_Lite/bin/../lib/gcc/arm-none-eabi/4.5.2/../../../../arm-none-eabi/lib/thumb2/libc.a(lib_a-mprec.o)
 .ARM.attributes
                0x000010a4       0x29 /home/reymondo/CodeSourcery/Sourcery_G++_Lite/bin/../lib/gcc/arm-none-eabi/4.5.2/../../../../arm-none-eabi/lib/thumb2/libc.a(lib_a-s_fpclassify.o)
 .ARM.attributes
                0x000010cd       0x29 /home/reymondo/CodeSourcery/Sourcery_G++_Lite/bin/../lib/gcc/arm-none-eabi/4.5.2/../../../../arm-none-eabi/lib/thumb2/libc.a(lib_a-stdio.o)
 .ARM.attributes
                0x000010f6       0x29 /home/reymondo/CodeSourcery/Sourcery_G++_Lite/bin/../lib/gcc/arm-none-eabi/4.5.2/../../../../arm-none-eabi/lib/thumb2/libc.a(lib_a-svfiprintf.o)
 .ARM.attributes
                0x0000111f       0x29 /home/reymondo/CodeSourcery/Sourcery_G++_Lite/bin/../lib/gcc/arm-none-eabi/4.5.2/../../../../arm-none-eabi/lib/thumb2/libc.a(lib_a-callocr.o)
 .ARM.attributes
                0x00001148       0x29 /home/reymondo/CodeSourcery/Sourcery_G++_Lite/bin/../lib/gcc/arm-none-eabi/4.5.2/../../../../arm-none-eabi/lib/thumb2/libc.a(lib_a-fclose.o)
 .ARM.attributes
                0x00001171       0x1b /home/reymondo/CodeSourcery/Sourcery_G++_Lite/bin/../lib/gcc/arm-none-eabi/4.5.2/thumb2/libgcc.a(_udivsi3.o)
 .ARM.attributes
                0x0000118c       0x1b /home/reymondo/CodeSourcery/Sourcery_G++_Lite/bin/../lib/gcc/arm-none-eabi/4.5.2/thumb2/libgcc.a(_dvmd_tls.o)
 .ARM.attributes
                0x000011a7       0x1b /home/reymondo/CodeSourcery/Sourcery_G++_Lite/bin/../lib/gcc/arm-none-eabi/4.5.2/thumb2/libgcc.a(_arm_addsubdf3.o)
 .ARM.attributes
                0x000011c2       0x1b /home/reymondo/CodeSourcery/Sourcery_G++_Lite/bin/../lib/gcc/arm-none-eabi/4.5.2/thumb2/libgcc.a(_arm_muldivdf3.o)
 .ARM.attributes
                0x000011dd       0x1b /home/reymondo/CodeSourcery/Sourcery_G++_Lite/bin/../lib/gcc/arm-none-eabi/4.5.2/thumb2/libgcc.a(_arm_cmpdf2.o)
 .ARM.attributes
                0x000011f8       0x1b /home/reymondo/CodeSourcery/Sourcery_G++_Lite/bin/../lib/gcc/arm-none-eabi/4.5.2/thumb2/libgcc.a(_arm_fixdfsi.o)
 .ARM.attributes
                0x00001213       0x1b /home/reymondo/CodeSourcery/Sourcery_G++_Lite/bin/../lib/gcc/arm-none-eabi/4.5.2/thumb2/libgcc.a(_aeabi_uldivmod.o)
 .ARM.attributes
                0x0000122e       0x29 /home/reymondo/CodeSourcery/Sourcery_G++_Lite/bin/../lib/gcc/arm-none-eabi/4.5.2/thumb2/libgcc.a(bpabi.o)
 .ARM.attributes
                0x00001257       0x29 /home/reymondo/CodeSourcery/Sourcery_G++_Lite/bin/../lib/gcc/arm-none-eabi/4.5.2/thumb2/libgcc.a(_divdi3.o)
 .ARM.attributes
                0x00001280       0x29 /home/reymondo/CodeSourcery/Sourcery_G++_Lite/bin/../lib/gcc/arm-none-eabi/4.5.2/thumb2/libgcc.a(_udivdi3.o)
 .ARM.attributes
                0x000012a9       0x29 /home/reymondo/CodeSourcery/Sourcery_G++_Lite/bin/../lib/gcc/arm-none-eabi/4.5.2/thumb2/crtend.o
 .ARM.attributes
                0x000012d2       0x19 /home/reymondo/CodeSourcery/Sourcery_G++_Lite/bin/../lib/gcc/arm-none-eabi/4.5.2/thumb2/crtn.o

.comment        0x00000000       0x2a
 *(.comment)
 .comment       0x00000000       0x2a out/stm32f10x_it.o
                                 0x2b (size before relaxing)
 .comment       0x00000000       0x2b out/syscalls.o
 .comment       0x00000000       0x2b out/vectors.o
 .comment       0x00000000       0x2b out/core_cm3.o
 .comment       0x00000000       0x2b out/system_stm32f10x.o
 .comment       0x00000000       0x2b out/misc.o
 .comment       0x00000000       0x2b out/stm32f10x_adc.o
 .comment       0x00000000       0x2b out/stm32f10x_bkp.o
 .comment       0x00000000       0x2b out/stm32f10x_can.o
 .comment       0x00000000       0x2b out/stm32f10x_cec.o
 .comment       0x00000000       0x2b out/stm32f10x_crc.o
 .comment       0x00000000       0x2b out/stm32f10x_dac.o
 .comment       0x00000000       0x2b out/stm32f10x_dbgmcu.o
 .comment       0x00000000       0x2b out/stm32f10x_dma.o
 .comment       0x00000000       0x2b out/stm32f10x_exti.o
 .comment       0x00000000       0x2b out/stm32f10x_flash.o
 .comment       0x00000000       0x2b out/stm32f10x_fsmc.o
 .comment       0x00000000       0x2b out/stm32f10x_gpio.o
 .comment       0x00000000       0x2b out/stm32f10x_i2c.o
 .comment       0x00000000       0x2b out/stm32f10x_iwdg.o
 .comment       0x00000000       0x2b out/stm32f10x_pwr.o
 .comment       0x00000000       0x2b out/stm32f10x_rcc.o
 .comment       0x00000000       0x2b out/stm32f10x_rtc.o
 .comment       0x00000000       0x2b out/stm32f10x_sdio.o
 .comment       0x00000000       0x2b out/stm32f10x_spi.o
 .comment       0x00000000       0x2b out/stm32f10x_tim.o
 .comment       0x00000000       0x2b out/stm32f10x_usart.o
 .comment       0x00000000       0x2b out/stm32f10x_wwdg.o
 .comment       0x00000000       0x2b out/main.o
 .comment       0x00000000       0x2b out/CGpioManager.o
 .comment       0x00000000       0x2b out/CRccManager.o
 .comment       0x00000000       0x2b out/CUsartIrqHandler.o
 .comment       0x00000000       0x2b out/CUsartStateRunning.o
 .comment       0x00000000       0x2b out/CUsartStateUnusable.o
 .comment       0x00000000       0x2b out/CUsartStateUsable.o

.debug
 *(.debug)

.line
 *(.line)

.debug_srcinfo
 *(.debug_srcinfo)

.debug_sfnames
 *(.debug_sfnames)

.debug_aranges  0x00000000     0x1780
 *(.debug_aranges)
 .debug_aranges
                0x00000000       0x28 out/startup_stm32f10x_cl.o
 .debug_aranges
                0x00000028       0x70 out/stm32f10x_it.o
 .debug_aranges
                0x00000098       0xa8 out/syscalls.o
 .debug_aranges
                0x00000140       0x20 out/vectors.o
 .debug_aranges
                0x00000160       0xc8 out/core_cm3.o
 .debug_aranges
                0x00000228       0x38 out/system_stm32f10x.o
 .debug_aranges
                0x00000260       0x40 out/misc.o
 .debug_aranges
                0x000002a0      0x138 out/stm32f10x_adc.o
 .debug_aranges
                0x000003d8       0x78 out/stm32f10x_bkp.o
 .debug_aranges
                0x00000450       0xe0 out/stm32f10x_can.o
 .debug_aranges
                0x00000530       0x88 out/stm32f10x_cec.o
 .debug_aranges
                0x000005b8       0x48 out/stm32f10x_crc.o
 .debug_aranges
                0x00000600       0x78 out/stm32f10x_dac.o
 .debug_aranges
                0x00000678       0x30 out/stm32f10x_dbgmcu.o
 .debug_aranges
                0x000006a8       0x70 out/stm32f10x_dma.o
 .debug_aranges
                0x00000718       0x58 out/stm32f10x_exti.o
 .debug_aranges
                0x00000770       0xf8 out/stm32f10x_flash.o
 .debug_aranges
                0x00000868       0xb0 out/stm32f10x_fsmc.o
 .debug_aranges
                0x00000918       0xa8 out/stm32f10x_gpio.o
 .debug_aranges
                0x000009c0      0x120 out/stm32f10x_i2c.o
 .debug_aranges
                0x00000ae0       0x48 out/stm32f10x_iwdg.o
 .debug_aranges
                0x00000b28       0x70 out/stm32f10x_pwr.o
 .debug_aranges
                0x00000b98      0x160 out/stm32f10x_rcc.o
 .debug_aranges
                0x00000cf8       0x88 out/stm32f10x_rtc.o
 .debug_aranges
                0x00000d80      0x108 out/stm32f10x_sdio.o
 .debug_aranges
                0x00000e88       0xd0 out/stm32f10x_spi.o
 .debug_aranges
                0x00000f58      0x2f0 out/stm32f10x_tim.o
 .debug_aranges
                0x00001248      0x100 out/stm32f10x_usart.o
 .debug_aranges
                0x00001348       0x58 out/stm32f10x_wwdg.o
 .debug_aranges
                0x000013a0      0x100 out/main.o
 .debug_aranges
                0x000014a0       0x68 out/CGpioManager.o
 .debug_aranges
                0x00001508       0x58 out/CRccManager.o
 .debug_aranges
                0x00001560       0x50 out/CUsartIrqHandler.o
 .debug_aranges
                0x000015b0       0x98 out/CUsartStateRunning.o
 .debug_aranges
                0x00001648       0x98 out/CUsartStateUnusable.o
 .debug_aranges
                0x000016e0       0xa0 out/CUsartStateUsable.o

.debug_pubnames
                0x00000000     0x3cef
 *(.debug_pubnames)
 .debug_pubnames
                0x00000000      0x125 out/stm32f10x_it.o
 .debug_pubnames
                0x00000125      0x115 out/syscalls.o
 .debug_pubnames
                0x0000023a       0x1e out/vectors.o
 .debug_pubnames
                0x00000258      0x159 out/core_cm3.o
 .debug_pubnames
                0x000003b1       0x61 out/system_stm32f10x.o
 .debug_pubnames
                0x00000412       0x89 out/misc.o
 .debug_pubnames
                0x0000049b      0x401 out/stm32f10x_adc.o
 .debug_pubnames
                0x0000089c      0x128 out/stm32f10x_bkp.o
 .debug_pubnames
                0x000009c4      0x208 out/stm32f10x_can.o
 .debug_pubnames
                0x00000bcc      0x12b out/stm32f10x_cec.o
 .debug_pubnames
                0x00000cf7       0x82 out/stm32f10x_crc.o
 .debug_pubnames
                0x00000d79      0x116 out/stm32f10x_dac.o
 .debug_pubnames
                0x00000e8f       0x4c out/stm32f10x_dbgmcu.o
 .debug_pubnames
                0x00000edb       0xea out/stm32f10x_dma.o
 .debug_pubnames
                0x00000fc5       0xbb out/stm32f10x_exti.o
 .debug_pubnames
                0x00001080      0x2f2 out/stm32f10x_flash.o
 .debug_pubnames
                0x00001372      0x1a3 out/stm32f10x_fsmc.o
 .debug_pubnames
                0x00001515      0x19d out/stm32f10x_gpio.o
 .debug_pubnames
                0x000016b2      0x2cb out/stm32f10x_i2c.o
 .debug_pubnames
                0x0000197d       0x91 out/stm32f10x_iwdg.o
 .debug_pubnames
                0x00001a0e       0xcb out/stm32f10x_pwr.o
 .debug_pubnames
                0x00001ad9      0x37e out/stm32f10x_rcc.o
 .debug_pubnames
                0x00001e57      0x136 out/stm32f10x_rtc.o
 .debug_pubnames
                0x00001f8d      0x2ac out/stm32f10x_sdio.o
 .debug_pubnames
                0x00002239      0x1f6 out/stm32f10x_spi.o
 .debug_pubnames
                0x0000242f      0x7b0 out/stm32f10x_tim.o
 .debug_pubnames
                0x00002bdf      0x294 out/stm32f10x_usart.o
 .debug_pubnames
                0x00002e73       0xb0 out/stm32f10x_wwdg.o
 .debug_pubnames
                0x00002f23      0x3ab out/main.o
 .debug_pubnames
                0x000032ce      0x146 out/CGpioManager.o
 .debug_pubnames
                0x00003414       0xfb out/CRccManager.o
 .debug_pubnames
                0x0000350f      0x121 out/CUsartIrqHandler.o
 .debug_pubnames
                0x00003630      0x230 out/CUsartStateRunning.o
 .debug_pubnames
                0x00003860      0x23e out/CUsartStateUnusable.o
 .debug_pubnames
                0x00003a9e      0x251 out/CUsartStateUsable.o

.debug_info     0x00000000    0x12a98
 *(.debug_info .gnu.linkonce.wi.*)
 .debug_info    0x00000000       0x86 out/startup_stm32f10x_cl.o
 .debug_info    0x00000086      0x1d2 out/stm32f10x_it.o
 .debug_info    0x00000258     0x1038 out/syscalls.o
 .debug_info    0x00001290       0xa1 out/vectors.o
 .debug_info    0x00001331      0x550 out/core_cm3.o
 .debug_info    0x00001881      0x502 out/system_stm32f10x.o
 .debug_info    0x00001d83      0x54e out/misc.o
 .debug_info    0x000022d1      0xc16 out/stm32f10x_adc.o
 .debug_info    0x00002ee7      0x881 out/stm32f10x_bkp.o
 .debug_info    0x00003768      0xc5f out/stm32f10x_can.o
 .debug_info    0x000043c7      0x444 out/stm32f10x_cec.o
 .debug_info    0x0000480b      0x208 out/stm32f10x_crc.o
 .debug_info    0x00004a13      0x4e0 out/stm32f10x_dac.o
 .debug_info    0x00004ef3      0x162 out/stm32f10x_dbgmcu.o
 .debug_info    0x00005055      0x4aa out/stm32f10x_dma.o
 .debug_info    0x000054ff      0x369 out/stm32f10x_exti.o
 .debug_info    0x00005868      0x821 out/stm32f10x_flash.o
 .debug_info    0x00006089      0x9a1 out/stm32f10x_fsmc.o
 .debug_info    0x00006a2a      0x72b out/stm32f10x_gpio.o
 .debug_info    0x00007155      0xb9c out/stm32f10x_i2c.o
 .debug_info    0x00007cf1      0x208 out/stm32f10x_iwdg.o
 .debug_info    0x00007ef9      0x463 out/stm32f10x_pwr.o
 .debug_info    0x0000835c      0xb37 out/stm32f10x_rcc.o
 .debug_info    0x00008e93      0x472 out/stm32f10x_rtc.o
 .debug_info    0x00009305      0x897 out/stm32f10x_sdio.o
 .debug_info    0x00009b9c      0xa47 out/stm32f10x_spi.o
 .debug_info    0x0000a5e3     0x1e20 out/stm32f10x_tim.o
 .debug_info    0x0000c403      0xa74 out/stm32f10x_usart.o
 .debug_info    0x0000ce77      0x23d out/stm32f10x_wwdg.o
 .debug_info    0x0000d0b4     0x1948 out/main.o
 .debug_info    0x0000e9fc      0x68d out/CGpioManager.o
 .debug_info    0x0000f089      0x447 out/CRccManager.o
 .debug_info    0x0000f4d0      0x69f out/CUsartIrqHandler.o
 .debug_info    0x0000fb6f      0xfa9 out/CUsartStateRunning.o
 .debug_info    0x00010b18      0xf4b out/CUsartStateUnusable.o
 .debug_info    0x00011a63     0x1035 out/CUsartStateUsable.o

.debug_abbrev   0x00000000     0x3743
 *(.debug_abbrev)
 .debug_abbrev  0x00000000       0x12 out/startup_stm32f10x_cl.o
 .debug_abbrev  0x00000012       0x7d out/stm32f10x_it.o
 .debug_abbrev  0x0000008f      0x1fe out/syscalls.o
 .debug_abbrev  0x0000028d       0x81 out/vectors.o
 .debug_abbrev  0x0000030e       0xd9 out/core_cm3.o
 .debug_abbrev  0x000003e7      0x182 out/system_stm32f10x.o
 .debug_abbrev  0x00000569      0x139 out/misc.o
 .debug_abbrev  0x000006a2      0x178 out/stm32f10x_adc.o
 .debug_abbrev  0x0000081a      0x15a out/stm32f10x_bkp.o
 .debug_abbrev  0x00000974      0x1b0 out/stm32f10x_can.o
 .debug_abbrev  0x00000b24      0x18d out/stm32f10x_cec.o
 .debug_abbrev  0x00000cb1      0x10e out/stm32f10x_crc.o
 .debug_abbrev  0x00000dbf      0x16d out/stm32f10x_dac.o
 .debug_abbrev  0x00000f2c       0xde out/stm32f10x_dbgmcu.o
 .debug_abbrev  0x0000100a      0x152 out/stm32f10x_dma.o
 .debug_abbrev  0x0000115c      0x14e out/stm32f10x_exti.o
 .debug_abbrev  0x000012aa      0x166 out/stm32f10x_flash.o
 .debug_abbrev  0x00001410      0x16a out/stm32f10x_fsmc.o
 .debug_abbrev  0x0000157a      0x1a8 out/stm32f10x_gpio.o
 .debug_abbrev  0x00001722      0x161 out/stm32f10x_i2c.o
 .debug_abbrev  0x00001883       0xfe out/stm32f10x_iwdg.o
 .debug_abbrev  0x00001981      0x188 out/stm32f10x_pwr.o
 .debug_abbrev  0x00001b09      0x195 out/stm32f10x_rcc.o
 .debug_abbrev  0x00001c9e      0x16a out/stm32f10x_rtc.o
 .debug_abbrev  0x00001e08      0x1a6 out/stm32f10x_sdio.o
 .debug_abbrev  0x00001fae      0x161 out/stm32f10x_spi.o
 .debug_abbrev  0x0000210f      0x176 out/stm32f10x_tim.o
 .debug_abbrev  0x00002285      0x15f out/stm32f10x_usart.o
 .debug_abbrev  0x000023e4       0xfc out/stm32f10x_wwdg.o
 .debug_abbrev  0x000024e0      0x38e out/main.o
 .debug_abbrev  0x0000286e      0x22b out/CGpioManager.o
 .debug_abbrev  0x00002a99      0x1b8 out/CRccManager.o
 .debug_abbrev  0x00002c51      0x288 out/CUsartIrqHandler.o
 .debug_abbrev  0x00002ed9      0x2e6 out/CUsartStateRunning.o
 .debug_abbrev  0x000031bf      0x2b6 out/CUsartStateUnusable.o
 .debug_abbrev  0x00003475      0x2ce out/CUsartStateUsable.o

.debug_line     0x00000000     0x9673
 *(.debug_line)
 .debug_line    0x00000000       0x8f out/startup_stm32f10x_cl.o
 .debug_line    0x0000008f      0x320 out/stm32f10x_it.o
 .debug_line    0x000003af      0x41c out/syscalls.o
 .debug_line    0x000007cb       0x3e out/vectors.o
 .debug_line    0x00000809      0x2e1 out/core_cm3.o
 .debug_line    0x00000aea      0x300 out/system_stm32f10x.o
 .debug_line    0x00000dea      0x2d4 out/misc.o
 .debug_line    0x000010be      0x5bd out/stm32f10x_adc.o
 .debug_line    0x0000167b      0x36b out/stm32f10x_bkp.o
 .debug_line    0x000019e6      0x605 out/stm32f10x_can.o
 .debug_line    0x00001feb      0x3ab out/stm32f10x_cec.o
 .debug_line    0x00002396      0x304 out/stm32f10x_crc.o
 .debug_line    0x0000269a      0x382 out/stm32f10x_dac.o
 .debug_line    0x00002a1c      0x2c2 out/stm32f10x_dbgmcu.o
 .debug_line    0x00002cde      0x39d out/stm32f10x_dma.o
 .debug_line    0x0000307b      0x32a out/stm32f10x_exti.o
 .debug_line    0x000033a5      0x573 out/stm32f10x_flash.o
 .debug_line    0x00003918      0x4ed out/stm32f10x_fsmc.o
 .debug_line    0x00003e05      0x434 out/stm32f10x_gpio.o
 .debug_line    0x00004239      0x55e out/stm32f10x_i2c.o
 .debug_line    0x00004797      0x2f6 out/stm32f10x_iwdg.o
 .debug_line    0x00004a8d      0x361 out/stm32f10x_pwr.o
 .debug_line    0x00004dee      0x607 out/stm32f10x_rcc.o
 .debug_line    0x000053f5      0x3af out/stm32f10x_rtc.o
 .debug_line    0x000057a4      0x4e5 out/stm32f10x_sdio.o
 .debug_line    0x00005c89      0x4b8 out/stm32f10x_spi.o
 .debug_line    0x00006141      0xb15 out/stm32f10x_tim.o
 .debug_line    0x00006c56      0x50c out/stm32f10x_usart.o
 .debug_line    0x00007162      0x31d out/stm32f10x_wwdg.o
 .debug_line    0x0000747f      0x67e out/main.o
 .debug_line    0x00007afd      0x403 out/CGpioManager.o
 .debug_line    0x00007f00      0x3e2 out/CRccManager.o
 .debug_line    0x000082e2      0x44e out/CUsartIrqHandler.o
 .debug_line    0x00008730      0x50d out/CUsartStateRunning.o
 .debug_line    0x00008c3d      0x50d out/CUsartStateUnusable.o
 .debug_line    0x0000914a      0x529 out/CUsartStateUsable.o

.debug_frame    0x00000000     0x67e0
 *(.debug_frame)
 .debug_frame   0x00000000      0x144 out/stm32f10x_it.o
 .debug_frame   0x00000144      0x208 out/syscalls.o
 .debug_frame   0x0000034c       0x30 out/vectors.o
 .debug_frame   0x0000037c      0x280 out/core_cm3.o
 .debug_frame   0x000005fc       0x80 out/system_stm32f10x.o
 .debug_frame   0x0000067c       0x9c out/misc.o
 .debug_frame   0x00000718      0x404 out/stm32f10x_adc.o
 .debug_frame   0x00000b1c      0x160 out/stm32f10x_bkp.o
 .debug_frame   0x00000c7c      0x2d4 out/stm32f10x_can.o
 .debug_frame   0x00000f50      0x198 out/stm32f10x_cec.o
 .debug_frame   0x000010e8       0xb8 out/stm32f10x_crc.o
 .debug_frame   0x000011a0      0x160 out/stm32f10x_dac.o
 .debug_frame   0x00001300       0x64 out/stm32f10x_dbgmcu.o
 .debug_frame   0x00001364      0x144 out/stm32f10x_dma.o
 .debug_frame   0x000014a8       0xf0 out/stm32f10x_exti.o
 .debug_frame   0x00001598      0x350 out/stm32f10x_flash.o
 .debug_frame   0x000018e8      0x224 out/stm32f10x_fsmc.o
 .debug_frame   0x00001b0c      0x210 out/stm32f10x_gpio.o
 .debug_frame   0x00001d1c      0x3b4 out/stm32f10x_i2c.o
 .debug_frame   0x000020d0       0xb8 out/stm32f10x_iwdg.o
 .debug_frame   0x00002188      0x148 out/stm32f10x_pwr.o
 .debug_frame   0x000022d0      0x490 out/stm32f10x_rcc.o
 .debug_frame   0x00002760      0x1a4 out/stm32f10x_rtc.o
 .debug_frame   0x00002904      0x358 out/stm32f10x_sdio.o
 .debug_frame   0x00002c5c      0x29c out/stm32f10x_spi.o
 .debug_frame   0x00002ef8      0xa20 out/stm32f10x_tim.o
 .debug_frame   0x00003918      0x344 out/stm32f10x_usart.o
 .debug_frame   0x00003c5c       0xf0 out/stm32f10x_wwdg.o
 .debug_frame   0x00003d4c      0x3a0 out/main.o
 .debug_frame   0x000040ec      0x144 out/CGpioManager.o
 .debug_frame   0x00004230      0x104 out/CRccManager.o
 .debug_frame   0x00004334       0xec out/CUsartIrqHandler.o
 .debug_frame   0x00004420      0x1fc out/CUsartStateRunning.o
 .debug_frame   0x0000461c      0x1ec out/CUsartStateUnusable.o
 .debug_frame   0x00004808      0x228 out/CUsartStateUsable.o
 .debug_frame   0x00004a30       0x20 /home/reymondo/CodeSourcery/Sourcery_G++_Lite/bin/../lib/gcc/arm-none-eabi/4.5.2/../../../../arm-none-eabi/lib/thumb2/libstdc++.a(del_op.o)
 .debug_frame   0x00004a50       0x2c /home/reymondo/CodeSourcery/Sourcery_G++_Lite/bin/../lib/gcc/arm-none-eabi/4.5.2/../../../../arm-none-eabi/lib/thumb2/libstdc++.a(new_op.o)
 .debug_frame   0x00004a7c       0xb4 /home/reymondo/CodeSourcery/Sourcery_G++_Lite/bin/../lib/gcc/arm-none-eabi/4.5.2/../../../../arm-none-eabi/lib/thumb2/libstdc++.a(eh_personality.o)
 .debug_frame   0x00004b30       0x60 /home/reymondo/CodeSourcery/Sourcery_G++_Lite/bin/../lib/gcc/arm-none-eabi/4.5.2/../../../../arm-none-eabi/lib/thumb2/libstdc++.a(eh_throw.o)
 .debug_frame   0x00004b90       0x28 /home/reymondo/CodeSourcery/Sourcery_G++_Lite/bin/../lib/gcc/arm-none-eabi/4.5.2/../../../../arm-none-eabi/lib/thumb2/libstdc++.a(pure.o)
 .debug_frame   0x00004bb8       0x30 /home/reymondo/CodeSourcery/Sourcery_G++_Lite/bin/../lib/gcc/arm-none-eabi/4.5.2/../../../../arm-none-eabi/lib/thumb2/libstdc++.a(eh_globals.o)
 .debug_frame   0x00004be8       0x6c /home/reymondo/CodeSourcery/Sourcery_G++_Lite/bin/../lib/gcc/arm-none-eabi/4.5.2/../../../../arm-none-eabi/lib/thumb2/libstdc++.a(eh_catch.o)
 .debug_frame   0x00004c54       0x64 /home/reymondo/CodeSourcery/Sourcery_G++_Lite/bin/../lib/gcc/arm-none-eabi/4.5.2/../../../../arm-none-eabi/lib/thumb2/libstdc++.a(eh_arm.o)
 .debug_frame   0x00004cb8       0x90 /home/reymondo/CodeSourcery/Sourcery_G++_Lite/bin/../lib/gcc/arm-none-eabi/4.5.2/../../../../arm-none-eabi/lib/thumb2/libstdc++.a(eh_terminate.o)
 .debug_frame   0x00004d48       0x80 /home/reymondo/CodeSourcery/Sourcery_G++_Lite/bin/../lib/gcc/arm-none-eabi/4.5.2/../../../../arm-none-eabi/lib/thumb2/libstdc++.a(eh_alloc.o)
 .debug_frame   0x00004dc8       0x54 /home/reymondo/CodeSourcery/Sourcery_G++_Lite/bin/../lib/gcc/arm-none-eabi/4.5.2/../../../../arm-none-eabi/lib/thumb2/libstdc++.a(eh_call.o)
 .debug_frame   0x00004e1c       0x60 /home/reymondo/CodeSourcery/Sourcery_G++_Lite/bin/../lib/gcc/arm-none-eabi/4.5.2/../../../../arm-none-eabi/lib/thumb2/libstdc++.a(new_handler.o)
 .debug_frame   0x00004e7c       0x30 /home/reymondo/CodeSourcery/Sourcery_G++_Lite/bin/../lib/gcc/arm-none-eabi/4.5.2/../../../../arm-none-eabi/lib/thumb2/libstdc++.a(vterminate.o)
 .debug_frame   0x00004eac       0xd0 /home/reymondo/CodeSourcery/Sourcery_G++_Lite/bin/../lib/gcc/arm-none-eabi/4.5.2/../../../../arm-none-eabi/lib/thumb2/libstdc++.a(eh_exception.o)
 .debug_frame   0x00004f7c       0x28 /home/reymondo/CodeSourcery/Sourcery_G++_Lite/bin/../lib/gcc/arm-none-eabi/4.5.2/../../../../arm-none-eabi/lib/thumb2/libstdc++.a(eh_type.o)
 .debug_frame   0x00004fa4       0xac /home/reymondo/CodeSourcery/Sourcery_G++_Lite/bin/../lib/gcc/arm-none-eabi/4.5.2/../../../../arm-none-eabi/lib/thumb2/libstdc++.a(si_class_type_info.o)
 .debug_frame   0x00005050       0xd0 /home/reymondo/CodeSourcery/Sourcery_G++_Lite/bin/../lib/gcc/arm-none-eabi/4.5.2/../../../../arm-none-eabi/lib/thumb2/libstdc++.a(class_type_info.o)
 .debug_frame   0x00005120      0x488 /home/reymondo/CodeSourcery/Sourcery_G++_Lite/bin/../lib/gcc/arm-none-eabi/4.5.2/../../../../arm-none-eabi/lib/thumb2/libstdc++.a(cp-demangle.o)
 .debug_frame   0x000055a8       0x90 /home/reymondo/CodeSourcery/Sourcery_G++_Lite/bin/../lib/gcc/arm-none-eabi/4.5.2/../../../../arm-none-eabi/lib/thumb2/libstdc++.a(tinfo.o)
 .debug_frame   0x00005638      0x288 /home/reymondo/CodeSourcery/Sourcery_G++_Lite/bin/../lib/gcc/arm-none-eabi/4.5.2/thumb2/libgcc.a(unwind-arm.o)
 .debug_frame   0x000058c0       0xf4 /home/reymondo/CodeSourcery/Sourcery_G++_Lite/bin/../lib/gcc/arm-none-eabi/4.5.2/thumb2/libgcc.a(pr-support.o)
 .debug_frame   0x000059b4       0x28 /home/reymondo/CodeSourcery/Sourcery_G++_Lite/bin/../lib/gcc/arm-none-eabi/4.5.2/../../../../arm-none-eabi/lib/thumb2/libc.a(lib_a-abort.o)
 .debug_frame   0x000059dc       0x48 /home/reymondo/CodeSourcery/Sourcery_G++_Lite/bin/../lib/gcc/arm-none-eabi/4.5.2/../../../../arm-none-eabi/lib/thumb2/libc.a(lib_a-fputc.o)
 .debug_frame   0x00005a24       0x40 /home/reymondo/CodeSourcery/Sourcery_G++_Lite/bin/../lib/gcc/arm-none-eabi/4.5.2/../../../../arm-none-eabi/lib/thumb2/libc.a(lib_a-fputs.o)
 .debug_frame   0x00005a64       0x3c /home/reymondo/CodeSourcery/Sourcery_G++_Lite/bin/../lib/gcc/arm-none-eabi/4.5.2/../../../../arm-none-eabi/lib/thumb2/libc.a(lib_a-fvwrite.o)
 .debug_frame   0x00005aa0       0x58 /home/reymondo/CodeSourcery/Sourcery_G++_Lite/bin/../lib/gcc/arm-none-eabi/4.5.2/../../../../arm-none-eabi/lib/thumb2/libc.a(lib_a-fwrite.o)
 .debug_frame   0x00005af8       0x30 /home/reymondo/CodeSourcery/Sourcery_G++_Lite/bin/../lib/gcc/arm-none-eabi/4.5.2/../../../../arm-none-eabi/lib/thumb2/libc.a(lib_a-malloc.o)
 .debug_frame   0x00005b28       0x3c /home/reymondo/CodeSourcery/Sourcery_G++_Lite/bin/../lib/gcc/arm-none-eabi/4.5.2/../../../../arm-none-eabi/lib/thumb2/libc.a(lib_a-mallocr.o)
 .debug_frame   0x00005b64       0x2c /home/reymondo/CodeSourcery/Sourcery_G++_Lite/bin/../lib/gcc/arm-none-eabi/4.5.2/../../../../arm-none-eabi/lib/thumb2/libc.a(lib_a-memchr.o)
 .debug_frame   0x00005b90       0x2c /home/reymondo/CodeSourcery/Sourcery_G++_Lite/bin/../lib/gcc/arm-none-eabi/4.5.2/../../../../arm-none-eabi/lib/thumb2/libc.a(lib_a-memcmp.o)
 .debug_frame   0x00005bbc       0x30 /home/reymondo/CodeSourcery/Sourcery_G++_Lite/bin/../lib/gcc/arm-none-eabi/4.5.2/../../../../arm-none-eabi/lib/thumb2/libc.a(lib_a-memcpy.o)
 .debug_frame   0x00005bec       0x2c /home/reymondo/CodeSourcery/Sourcery_G++_Lite/bin/../lib/gcc/arm-none-eabi/4.5.2/../../../../arm-none-eabi/lib/thumb2/libc.a(lib_a-memmove.o)
 .debug_frame   0x00005c18       0x2c /home/reymondo/CodeSourcery/Sourcery_G++_Lite/bin/../lib/gcc/arm-none-eabi/4.5.2/../../../../arm-none-eabi/lib/thumb2/libc.a(lib_a-memset.o)
 .debug_frame   0x00005c44       0x30 /home/reymondo/CodeSourcery/Sourcery_G++_Lite/bin/../lib/gcc/arm-none-eabi/4.5.2/../../../../arm-none-eabi/lib/thumb2/libc.a(lib_a-mlock.o)
 .debug_frame   0x00005c74       0x48 /home/reymondo/CodeSourcery/Sourcery_G++_Lite/bin/../lib/gcc/arm-none-eabi/4.5.2/../../../../arm-none-eabi/lib/thumb2/libc.a(lib_a-putc.o)
 .debug_frame   0x00005cbc       0x20 /home/reymondo/CodeSourcery/Sourcery_G++_Lite/bin/../lib/gcc/arm-none-eabi/4.5.2/../../../../arm-none-eabi/lib/thumb2/libc.a(lib_a-realloc.o)
 .debug_frame   0x00005cdc       0x3c /home/reymondo/CodeSourcery/Sourcery_G++_Lite/bin/../lib/gcc/arm-none-eabi/4.5.2/../../../../arm-none-eabi/lib/thumb2/libc.a(lib_a-reallocr.o)
 .debug_frame   0x00005d18       0x68 /home/reymondo/CodeSourcery/Sourcery_G++_Lite/bin/../lib/gcc/arm-none-eabi/4.5.2/../../../../arm-none-eabi/lib/thumb2/libc.a(lib_a-reent.o)
 .debug_frame   0x00005d80       0xc0 /home/reymondo/CodeSourcery/Sourcery_G++_Lite/bin/../lib/gcc/arm-none-eabi/4.5.2/../../../../arm-none-eabi/lib/thumb2/libc.a(lib_a-signal.o)
 .debug_frame   0x00005e40       0x64 /home/reymondo/CodeSourcery/Sourcery_G++_Lite/bin/../lib/gcc/arm-none-eabi/4.5.2/../../../../arm-none-eabi/lib/thumb2/libc.a(lib_a-sprintf.o)
 .debug_frame   0x00005ea4       0x30 /home/reymondo/CodeSourcery/Sourcery_G++_Lite/bin/../lib/gcc/arm-none-eabi/4.5.2/../../../../arm-none-eabi/lib/thumb2/libc.a(lib_a-strcmp.o)
 .debug_frame   0x00005ed4       0x20 /home/reymondo/CodeSourcery/Sourcery_G++_Lite/bin/../lib/gcc/arm-none-eabi/4.5.2/../../../../arm-none-eabi/lib/thumb2/libc.a(lib_a-strcpy.o)
 .debug_frame   0x00005ef4       0x20 /home/reymondo/CodeSourcery/Sourcery_G++_Lite/bin/../lib/gcc/arm-none-eabi/4.5.2/../../../../arm-none-eabi/lib/thumb2/libc.a(lib_a-strlen.o)
 .debug_frame   0x00005f14       0x2c /home/reymondo/CodeSourcery/Sourcery_G++_Lite/bin/../lib/gcc/arm-none-eabi/4.5.2/../../../../arm-none-eabi/lib/thumb2/libc.a(lib_a-strncmp.o)
 .debug_frame   0x00005f40       0x3c /home/reymondo/CodeSourcery/Sourcery_G++_Lite/bin/../lib/gcc/arm-none-eabi/4.5.2/../../../../arm-none-eabi/lib/thumb2/libc.a(lib_a-svfprintf.o)
 .debug_frame   0x00005f7c       0x28 /home/reymondo/CodeSourcery/Sourcery_G++_Lite/bin/../lib/gcc/arm-none-eabi/4.5.2/../../../../arm-none-eabi/lib/thumb2/libc.a(lib_a-syswrite.o)
 .debug_frame   0x00005fa4       0x3c /home/reymondo/CodeSourcery/Sourcery_G++_Lite/bin/../lib/gcc/arm-none-eabi/4.5.2/../../../../arm-none-eabi/lib/thumb2/libc.a(lib_a-wbuf.o)
 .debug_frame   0x00005fe0       0x2c /home/reymondo/CodeSourcery/Sourcery_G++_Lite/bin/../lib/gcc/arm-none-eabi/4.5.2/../../../../arm-none-eabi/lib/thumb2/libc.a(lib_a-wsetup.o)
 .debug_frame   0x0000600c       0x68 /home/reymondo/CodeSourcery/Sourcery_G++_Lite/bin/../lib/gcc/arm-none-eabi/4.5.2/../../../../arm-none-eabi/lib/thumb2/libc.a(lib_a-dtoa.o)
 .debug_frame   0x00006074       0x40 /home/reymondo/CodeSourcery/Sourcery_G++_Lite/bin/../lib/gcc/arm-none-eabi/4.5.2/../../../../arm-none-eabi/lib/thumb2/libc.a(lib_a-fflush.o)
 .debug_frame   0x000060b4      0x114 /home/reymondo/CodeSourcery/Sourcery_G++_Lite/bin/../lib/gcc/arm-none-eabi/4.5.2/../../../../arm-none-eabi/lib/thumb2/libc.a(lib_a-findfp.o)
 .debug_frame   0x000061c8       0x50 /home/reymondo/CodeSourcery/Sourcery_G++_Lite/bin/../lib/gcc/arm-none-eabi/4.5.2/../../../../arm-none-eabi/lib/thumb2/libc.a(lib_a-freer.o)
 .debug_frame   0x00006218       0x58 /home/reymondo/CodeSourcery/Sourcery_G++_Lite/bin/../lib/gcc/arm-none-eabi/4.5.2/../../../../arm-none-eabi/lib/thumb2/libc.a(lib_a-fwalk.o)
 .debug_frame   0x00006270       0x98 /home/reymondo/CodeSourcery/Sourcery_G++_Lite/bin/../lib/gcc/arm-none-eabi/4.5.2/../../../../arm-none-eabi/lib/thumb2/libc.a(lib_a-locale.o)
 .debug_frame   0x00006308       0x34 /home/reymondo/CodeSourcery/Sourcery_G++_Lite/bin/../lib/gcc/arm-none-eabi/4.5.2/../../../../arm-none-eabi/lib/thumb2/libc.a(lib_a-makebuf.o)
 .debug_frame   0x0000633c      0x244 /home/reymondo/CodeSourcery/Sourcery_G++_Lite/bin/../lib/gcc/arm-none-eabi/4.5.2/../../../../arm-none-eabi/lib/thumb2/libc.a(lib_a-mprec.o)
 .debug_frame   0x00006580       0x28 /home/reymondo/CodeSourcery/Sourcery_G++_Lite/bin/../lib/gcc/arm-none-eabi/4.5.2/../../../../arm-none-eabi/lib/thumb2/libc.a(lib_a-s_fpclassify.o)
 .debug_frame   0x000065a8       0x80 /home/reymondo/CodeSourcery/Sourcery_G++_Lite/bin/../lib/gcc/arm-none-eabi/4.5.2/../../../../arm-none-eabi/lib/thumb2/libc.a(lib_a-stdio.o)
 .debug_frame   0x00006628       0x68 /home/reymondo/CodeSourcery/Sourcery_G++_Lite/bin/../lib/gcc/arm-none-eabi/4.5.2/../../../../arm-none-eabi/lib/thumb2/libc.a(lib_a-svfiprintf.o)
 .debug_frame   0x00006690       0x2c /home/reymondo/CodeSourcery/Sourcery_G++_Lite/bin/../lib/gcc/arm-none-eabi/4.5.2/../../../../arm-none-eabi/lib/thumb2/libc.a(lib_a-callocr.o)
 .debug_frame   0x000066bc       0x3c /home/reymondo/CodeSourcery/Sourcery_G++_Lite/bin/../lib/gcc/arm-none-eabi/4.5.2/../../../../arm-none-eabi/lib/thumb2/libc.a(lib_a-fclose.o)
 .debug_frame   0x000066f8       0x20 /home/reymondo/CodeSourcery/Sourcery_G++_Lite/bin/../lib/gcc/arm-none-eabi/4.5.2/thumb2/libgcc.a(_udivsi3.o)
 .debug_frame   0x00006718       0x50 /home/reymondo/CodeSourcery/Sourcery_G++_Lite/bin/../lib/gcc/arm-none-eabi/4.5.2/thumb2/libgcc.a(bpabi.o)
 .debug_frame   0x00006768       0x3c /home/reymondo/CodeSourcery/Sourcery_G++_Lite/bin/../lib/gcc/arm-none-eabi/4.5.2/thumb2/libgcc.a(_divdi3.o)
 .debug_frame   0x000067a4       0x3c /home/reymondo/CodeSourcery/Sourcery_G++_Lite/bin/../lib/gcc/arm-none-eabi/4.5.2/thumb2/libgcc.a(_udivdi3.o)

.debug_str      0x00000000     0x691b
 *(.debug_str)
 .debug_str     0x00000000      0x16d out/stm32f10x_it.o
                                0x1a1 (size before relaxing)
 .debug_str     0x0000016d      0x5d7 out/syscalls.o
                                0x6f7 (size before relaxing)
 .debug_str     0x00000744       0x35 out/vectors.o
                                 0x79 (size before relaxing)
 .debug_str     0x00000779      0x173 out/core_cm3.o
                                0x246 (size before relaxing)
 .debug_str     0x000008ec      0x1a9 out/system_stm32f10x.o
                                0x2a4 (size before relaxing)
 .debug_str     0x00000a95      0x201 out/misc.o
                                0x340 (size before relaxing)
 .debug_str     0x00000c96      0x53a out/stm32f10x_adc.o
                                0x678 (size before relaxing)
 .debug_str     0x000011d0      0x3c4 out/stm32f10x_bkp.o
                                0x532 (size before relaxing)
 .debug_str     0x00001594      0x51e out/stm32f10x_can.o
                                0x6ab (size before relaxing)
 .debug_str     0x00001ab2      0x1ac out/stm32f10x_cec.o
                                0x2f3 (size before relaxing)
 .debug_str     0x00001c5e       0xbc out/stm32f10x_crc.o
                                0x1b8 (size before relaxing)
 .debug_str     0x00001d1a      0x20d out/stm32f10x_dac.o
                                0x32c (size before relaxing)
 .debug_str     0x00001f27       0x90 out/stm32f10x_dbgmcu.o
                                0x184 (size before relaxing)
 .debug_str     0x00001fb7      0x216 out/stm32f10x_dma.o
                                0x33e (size before relaxing)
 .debug_str     0x000021cd      0x1bf out/stm32f10x_exti.o
                                0x2db (size before relaxing)
 .debug_str     0x0000238c      0x3fb out/stm32f10x_flash.o
                                0x565 (size before relaxing)
 .debug_str     0x00002787      0x5cd out/stm32f10x_fsmc.o
                                0x701 (size before relaxing)
 .debug_str     0x00002d54      0x365 out/stm32f10x_gpio.o
                                0x496 (size before relaxing)
 .debug_str     0x000030b9      0x431 out/stm32f10x_i2c.o
                                0x5e3 (size before relaxing)
 .debug_str     0x000034ea       0xda out/stm32f10x_iwdg.o
                                0x1d9 (size before relaxing)
 .debug_str     0x000035c4      0x11a out/stm32f10x_pwr.o
                                0x28f (size before relaxing)
 .debug_str     0x000036de      0x46c out/stm32f10x_rcc.o
                                0x6df (size before relaxing)
 .debug_str     0x00003b4a      0x192 out/stm32f10x_rtc.o
                                0x31f (size before relaxing)
 .debug_str     0x00003cdc      0x473 out/stm32f10x_sdio.o
                                0x5b8 (size before relaxing)
 .debug_str     0x0000414f      0x363 out/stm32f10x_spi.o
                                0x5c7 (size before relaxing)
 .debug_str     0x000044b2      0xaf4 out/stm32f10x_tim.o
                                0xd5a (size before relaxing)
 .debug_str     0x00004fa6      0x410 out/stm32f10x_usart.o
                                0x60d (size before relaxing)
 .debug_str     0x000053b6       0xd6 out/stm32f10x_wwdg.o
                                0x1e5 (size before relaxing)
 .debug_str     0x0000548c      0xba8 out/main.o
                                0xf8d (size before relaxing)
 .debug_str     0x00006034       0x38 out/CGpioManager.o
                                0x42a (size before relaxing)
 .debug_str     0x0000606c       0x41 out/CRccManager.o
                                0x280 (size before relaxing)
 .debug_str     0x000060ad      0x197 out/CUsartIrqHandler.o
                                0x65f (size before relaxing)
 .debug_str     0x00006244      0x275 out/CUsartStateRunning.o
                                0xbec (size before relaxing)
 .debug_str     0x000064b9      0x235 out/CUsartStateUnusable.o
                                0xbdc (size before relaxing)
 .debug_str     0x000066ee      0x22d out/CUsartStateUsable.o
                                0xc2e (size before relaxing)

.debug_loc      0x00000000     0x88b6
 *(.debug_loc)
 .debug_loc     0x00000000      0x1e4 out/stm32f10x_it.o
 .debug_loc     0x000001e4      0x3f0 out/syscalls.o
 .debug_loc     0x000005d4       0x2c out/vectors.o
 .debug_loc     0x00000600      0x3f0 out/core_cm3.o
 .debug_loc     0x000009f0       0xc8 out/system_stm32f10x.o
 .debug_loc     0x00000ab8      0x118 out/misc.o
 .debug_loc     0x00000bd0      0x7d4 out/stm32f10x_adc.o
 .debug_loc     0x000013a4      0x264 out/stm32f10x_bkp.o
 .debug_loc     0x00001608      0x578 out/stm32f10x_can.o
 .debug_loc     0x00001b80      0x2ec out/stm32f10x_cec.o
 .debug_loc     0x00001e6c      0x12c out/stm32f10x_crc.o
 .debug_loc     0x00001f98      0x294 out/stm32f10x_dac.o
 .debug_loc     0x0000222c       0x90 out/stm32f10x_dbgmcu.o
 .debug_loc     0x000022bc      0x268 out/stm32f10x_dma.o
 .debug_loc     0x00002524      0x1b4 out/stm32f10x_exti.o
 .debug_loc     0x000026d8      0x5d8 out/stm32f10x_flash.o
 .debug_loc     0x00002cb0      0x41c out/stm32f10x_fsmc.o
 .debug_loc     0x000030cc      0x3e4 out/stm32f10x_gpio.o
 .debug_loc     0x000034b0      0x738 out/stm32f10x_i2c.o
 .debug_loc     0x00003be8      0x138 out/stm32f10x_iwdg.o
 .debug_loc     0x00003d20      0x238 out/stm32f10x_pwr.o
 .debug_loc     0x00003f58      0x8d4 out/stm32f10x_rcc.o
 .debug_loc     0x0000482c      0x2e0 out/stm32f10x_rtc.o
 .debug_loc     0x00004b0c      0x648 out/stm32f10x_sdio.o
 .debug_loc     0x00005154      0x508 out/stm32f10x_spi.o
 .debug_loc     0x0000565c     0x13e8 out/stm32f10x_tim.o
 .debug_loc     0x00006a44      0x658 out/stm32f10x_usart.o
 .debug_loc     0x0000709c      0x190 out/stm32f10x_wwdg.o
 .debug_loc     0x0000722c      0x65a out/main.o
 .debug_loc     0x00007886      0x230 out/CGpioManager.o
 .debug_loc     0x00007ab6      0x1c0 out/CRccManager.o
 .debug_loc     0x00007c76      0x188 out/CUsartIrqHandler.o
 .debug_loc     0x00007dfe      0x380 out/CUsartStateRunning.o
 .debug_loc     0x0000817e      0x380 out/CUsartStateUnusable.o
 .debug_loc     0x000084fe      0x3b8 out/CUsartStateUsable.o

.debug_macinfo  0x00000000   0x8af955
 *(.debug_macinfo)
 .debug_macinfo
                0x00000000    0x44699 out/stm32f10x_it.o
 .debug_macinfo
                0x00044699     0x532b out/syscalls.o
 .debug_macinfo
                0x000499c4     0x21f4 out/vectors.o
 .debug_macinfo
                0x0004bbb8     0x2aea out/core_cm3.o
 .debug_macinfo
                0x0004e6a2    0x446b5 out/system_stm32f10x.o
 .debug_macinfo
                0x00092d57    0x446b1 out/misc.o
 .debug_macinfo
                0x000d7408    0x46e80 out/stm32f10x_adc.o
 .debug_macinfo
                0x0011e288    0x4542f out/stm32f10x_bkp.o
 .debug_macinfo
                0x001636b7    0x464aa out/stm32f10x_can.o
 .debug_macinfo
                0x001a9b61    0x44fc5 out/stm32f10x_cec.o
 .debug_macinfo
                0x001eeb26    0x4469a out/stm32f10x_crc.o
 .debug_macinfo
                0x002331c0    0x45828 out/stm32f10x_dac.o
 .debug_macinfo
                0x002789e8    0x44b70 out/stm32f10x_dbgmcu.o
 .debug_macinfo
                0x002bd558    0x46f80 out/stm32f10x_dma.o
 .debug_macinfo
                0x003044d8    0x446a9 out/stm32f10x_exti.o
 .debug_macinfo
                0x00348b81    0x461c2 out/stm32f10x_flash.o
 .debug_macinfo
                0x0038ed43    0x4602b out/stm32f10x_fsmc.o
 .debug_macinfo
                0x003d4d6e    0x448e0 out/stm32f10x_gpio.o
 .debug_macinfo
                0x0041964e    0x46899 out/stm32f10x_i2c.o
 .debug_macinfo
                0x0045fee7    0x44a91 out/stm32f10x_iwdg.o
 .debug_macinfo
                0x004a4978    0x44d68 out/stm32f10x_pwr.o
 .debug_macinfo
                0x004e96e0    0x450ad out/stm32f10x_rcc.o
 .debug_macinfo
                0x0052e78d    0x449c4 out/stm32f10x_rtc.o
 .debug_macinfo
                0x00573151    0x46cfa out/stm32f10x_sdio.o
 .debug_macinfo
                0x005b9e4b    0x46154 out/stm32f10x_spi.o
 .debug_macinfo
                0x005fff9f    0x4470e out/stm32f10x_tim.o
 .debug_macinfo
                0x006446ad    0x44a9b out/stm32f10x_usart.o
 .debug_macinfo
                0x00689148    0x449a0 out/stm32f10x_wwdg.o
 .debug_macinfo
                0x006cdae8    0x44de0 out/main.o
 .debug_macinfo
                0x007128c8    0x44d15 out/CGpioManager.o
 .debug_macinfo
                0x007575dd    0x44cfd out/CRccManager.o
 .debug_macinfo
                0x0079c2da    0x44d97 out/CUsartIrqHandler.o
 .debug_macinfo
                0x007e1071    0x44d8c out/CUsartStateRunning.o
 .debug_macinfo
                0x00825dfd    0x44dac out/CUsartStateUnusable.o
 .debug_macinfo
                0x0086aba9    0x44dac out/CUsartStateUsable.o

.debug_weaknames
 *(.debug_weaknames)

.debug_funcnames
 *(.debug_funcnames)

.debug_typenames
 *(.debug_typenames)

.debug_varnames
 *(.debug_varnames)
OUTPUT(out/objectiveStm32.elf elf32-littlearm)

.debug_ranges   0x00000000     0x1548
 .debug_ranges  0x00000000       0x20 out/startup_stm32f10x_cl.o
 .debug_ranges  0x00000020       0x60 out/stm32f10x_it.o
 .debug_ranges  0x00000080       0x98 out/syscalls.o
 .debug_ranges  0x00000118       0x10 out/vectors.o
 .debug_ranges  0x00000128       0xb8 out/core_cm3.o
 .debug_ranges  0x000001e0       0x28 out/system_stm32f10x.o
 .debug_ranges  0x00000208       0x30 out/misc.o
 .debug_ranges  0x00000238      0x128 out/stm32f10x_adc.o
 .debug_ranges  0x00000360       0x68 out/stm32f10x_bkp.o
 .debug_ranges  0x000003c8       0xd0 out/stm32f10x_can.o
 .debug_ranges  0x00000498       0x78 out/stm32f10x_cec.o
 .debug_ranges  0x00000510       0x38 out/stm32f10x_crc.o
 .debug_ranges  0x00000548       0x68 out/stm32f10x_dac.o
 .debug_ranges  0x000005b0       0x20 out/stm32f10x_dbgmcu.o
 .debug_ranges  0x000005d0       0x60 out/stm32f10x_dma.o
 .debug_ranges  0x00000630       0x48 out/stm32f10x_exti.o
 .debug_ranges  0x00000678       0xe8 out/stm32f10x_flash.o
 .debug_ranges  0x00000760       0xa0 out/stm32f10x_fsmc.o
 .debug_ranges  0x00000800       0x98 out/stm32f10x_gpio.o
 .debug_ranges  0x00000898      0x110 out/stm32f10x_i2c.o
 .debug_ranges  0x000009a8       0x38 out/stm32f10x_iwdg.o
 .debug_ranges  0x000009e0       0x60 out/stm32f10x_pwr.o
 .debug_ranges  0x00000a40      0x150 out/stm32f10x_rcc.o
 .debug_ranges  0x00000b90       0x78 out/stm32f10x_rtc.o
 .debug_ranges  0x00000c08       0xf8 out/stm32f10x_sdio.o
 .debug_ranges  0x00000d00       0xc0 out/stm32f10x_spi.o
 .debug_ranges  0x00000dc0      0x2e0 out/stm32f10x_tim.o
 .debug_ranges  0x000010a0       0xf0 out/stm32f10x_usart.o
 .debug_ranges  0x00001190       0x48 out/stm32f10x_wwdg.o
 .debug_ranges  0x000011d8       0xf0 out/main.o
 .debug_ranges  0x000012c8       0x58 out/CGpioManager.o
 .debug_ranges  0x00001320       0x48 out/CRccManager.o
 .debug_ranges  0x00001368       0x40 out/CUsartIrqHandler.o
 .debug_ranges  0x000013a8       0x88 out/CUsartStateRunning.o
 .debug_ranges  0x00001430       0x88 out/CUsartStateUnusable.o
 .debug_ranges  0x000014b8       0x90 out/CUsartStateUsable.o

.debug_pubtypes
                0x00000000     0x15d6
 .debug_pubtypes
                0x00000000       0x12 out/stm32f10x_it.o
 .debug_pubtypes
                0x00000012      0x1c7 out/syscalls.o
 .debug_pubtypes
                0x000001d9       0x50 out/core_cm3.o
 .debug_pubtypes
                0x00000229       0x67 out/system_stm32f10x.o
 .debug_pubtypes
                0x00000290       0x80 out/misc.o
 .debug_pubtypes
                0x00000310       0x8c out/stm32f10x_adc.o
 .debug_pubtypes
                0x0000039c       0x78 out/stm32f10x_bkp.o
 .debug_pubtypes
                0x00000414      0x115 out/stm32f10x_can.o
 .debug_pubtypes
                0x00000529       0x8c out/stm32f10x_cec.o
 .debug_pubtypes
                0x000005b5       0x48 out/stm32f10x_crc.o
 .debug_pubtypes
                0x000005fd       0x70 out/stm32f10x_dac.o
 .debug_pubtypes
                0x0000066d       0x46 out/stm32f10x_dbgmcu.o
 .debug_pubtypes
                0x000006b3       0x98 out/stm32f10x_dma.o
 .debug_pubtypes
                0x0000074b       0xa2 out/stm32f10x_exti.o
 .debug_pubtypes
                0x000007ed       0x8d out/stm32f10x_flash.o
 .debug_pubtypes
                0x0000087a      0x168 out/stm32f10x_fsmc.o
 .debug_pubtypes
                0x000009e2       0xc3 out/stm32f10x_gpio.o
 .debug_pubtypes
                0x00000aa5       0xb2 out/stm32f10x_i2c.o
 .debug_pubtypes
                0x00000b57       0x58 out/stm32f10x_iwdg.o
 .debug_pubtypes
                0x00000baf       0x78 out/stm32f10x_pwr.o
 .debug_pubtypes
                0x00000c27       0x9e out/stm32f10x_rcc.o
 .debug_pubtypes
                0x00000cc5       0x78 out/stm32f10x_rtc.o
 .debug_pubtypes
                0x00000d3d       0xb2 out/stm32f10x_sdio.o
 .debug_pubtypes
                0x00000def       0xc6 out/stm32f10x_spi.o
 .debug_pubtypes
                0x00000eb5       0xd8 out/stm32f10x_tim.o
 .debug_pubtypes
                0x00000f8d       0xc9 out/stm32f10x_usart.o
 .debug_pubtypes
                0x00001056       0x4b out/stm32f10x_wwdg.o
 .debug_pubtypes
                0x000010a1      0x15d out/main.o
 .debug_pubtypes
                0x000011fe       0x49 out/CGpioManager.o
 .debug_pubtypes
                0x00001247       0x3b out/CRccManager.o
 .debug_pubtypes
                0x00001282       0xcb out/CUsartIrqHandler.o
 .debug_pubtypes
                0x0000134d       0xd0 out/CUsartStateRunning.o
 .debug_pubtypes
                0x0000141d       0xd1 out/CUsartStateUnusable.o
 .debug_pubtypes
                0x000014ee       0xe8 out/CUsartStateUsable.o

Cross Reference Table

Symbol                                            File
ADC1_2_IRQHandler                                 out/startup_stm32f10x_cl.o
ADC3_IRQHandler                                   out/vectors.o
ADC_AnalogWatchdogCmd                             out/stm32f10x_adc.o
ADC_AnalogWatchdogSingleChannelConfig             out/stm32f10x_adc.o
ADC_AnalogWatchdogThresholdsConfig                out/stm32f10x_adc.o
ADC_AutoInjectedConvCmd                           out/stm32f10x_adc.o
ADC_ClearFlag                                     out/stm32f10x_adc.o
ADC_ClearITPendingBit                             out/stm32f10x_adc.o
ADC_Cmd                                           out/stm32f10x_adc.o
ADC_DMACmd                                        out/stm32f10x_adc.o
ADC_DeInit                                        out/stm32f10x_adc.o
ADC_DiscModeChannelCountConfig                    out/stm32f10x_adc.o
ADC_DiscModeCmd                                   out/stm32f10x_adc.o
ADC_ExternalTrigConvCmd                           out/stm32f10x_adc.o
ADC_ExternalTrigInjectedConvCmd                   out/stm32f10x_adc.o
ADC_ExternalTrigInjectedConvConfig                out/stm32f10x_adc.o
ADC_GetCalibrationStatus                          out/stm32f10x_adc.o
ADC_GetConversionValue                            out/stm32f10x_adc.o
ADC_GetDualModeConversionValue                    out/stm32f10x_adc.o
ADC_GetFlagStatus                                 out/stm32f10x_adc.o
ADC_GetITStatus                                   out/stm32f10x_adc.o
ADC_GetInjectedConversionValue                    out/stm32f10x_adc.o
ADC_GetResetCalibrationStatus                     out/stm32f10x_adc.o
ADC_GetSoftwareStartConvStatus                    out/stm32f10x_adc.o
ADC_GetSoftwareStartInjectedConvCmdStatus         out/stm32f10x_adc.o
ADC_ITConfig                                      out/stm32f10x_adc.o
ADC_Init                                          out/stm32f10x_adc.o
ADC_InjectedChannelConfig                         out/stm32f10x_adc.o
ADC_InjectedDiscModeCmd                           out/stm32f10x_adc.o
ADC_InjectedSequencerLengthConfig                 out/stm32f10x_adc.o
ADC_RegularChannelConfig                          out/stm32f10x_adc.o
ADC_ResetCalibration                              out/stm32f10x_adc.o
ADC_SetInjectedOffset                             out/stm32f10x_adc.o
ADC_SoftwareStartConvCmd                          out/stm32f10x_adc.o
ADC_SoftwareStartInjectedConvCmd                  out/stm32f10x_adc.o
ADC_StartCalibration                              out/stm32f10x_adc.o
ADC_StructInit                                    out/stm32f10x_adc.o
ADC_TempSensorVrefintCmd                          out/stm32f10x_adc.o
AHBPrescTable                                     out/system_stm32f10x.o
BKP_ClearFlag                                     out/stm32f10x_bkp.o
BKP_ClearITPendingBit                             out/stm32f10x_bkp.o
BKP_DeInit                                        out/stm32f10x_bkp.o
BKP_GetFlagStatus                                 out/stm32f10x_bkp.o
BKP_GetITStatus                                   out/stm32f10x_bkp.o
BKP_ITConfig                                      out/stm32f10x_bkp.o
BKP_RTCOutputConfig                               out/stm32f10x_bkp.o
BKP_ReadBackupRegister                            out/stm32f10x_bkp.o
BKP_SetRTCCalibrationValue                        out/stm32f10x_bkp.o
BKP_TamperPinCmd                                  out/stm32f10x_bkp.o
BKP_TamperPinLevelConfig                          out/stm32f10x_bkp.o
BKP_WriteBackupRegister                           out/stm32f10x_bkp.o
BusFault_Handler                                  out/stm32f10x_it.o
                                                  out/startup_stm32f10x_cl.o
CAN1_RX0_IRQHandler                               out/startup_stm32f10x_cl.o
CAN1_RX1_IRQHandler                               out/startup_stm32f10x_cl.o
CAN1_SCE_IRQHandler                               out/startup_stm32f10x_cl.o
CAN1_TX_IRQHandler                                out/startup_stm32f10x_cl.o
CAN2_RX0_IRQHandler                               out/startup_stm32f10x_cl.o
CAN2_RX1_IRQHandler                               out/startup_stm32f10x_cl.o
CAN2_SCE_IRQHandler                               out/startup_stm32f10x_cl.o
CAN2_TX_IRQHandler                                out/startup_stm32f10x_cl.o
CAN_CancelTransmit                                out/stm32f10x_can.o
CAN_ClearFlag                                     out/stm32f10x_can.o
CAN_ClearITPendingBit                             out/stm32f10x_can.o
CAN_DBGFreeze                                     out/stm32f10x_can.o
CAN_DeInit                                        out/stm32f10x_can.o
CAN_FIFORelease                                   out/stm32f10x_can.o
CAN_FilterInit                                    out/stm32f10x_can.o
CAN_GetFlagStatus                                 out/stm32f10x_can.o
CAN_GetITStatus                                   out/stm32f10x_can.o
CAN_GetLSBTransmitErrorCounter                    out/stm32f10x_can.o
CAN_GetLastErrorCode                              out/stm32f10x_can.o
CAN_GetReceiveErrorCounter                        out/stm32f10x_can.o
CAN_ITConfig                                      out/stm32f10x_can.o
CAN_Init                                          out/stm32f10x_can.o
CAN_MessagePending                                out/stm32f10x_can.o
CAN_OperatingModeRequest                          out/stm32f10x_can.o
CAN_RX1_IRQHandler                                out/vectors.o
CAN_Receive                                       out/stm32f10x_can.o
CAN_SCE_IRQHandler                                out/vectors.o
CAN_SlaveStartBank                                out/stm32f10x_can.o
CAN_Sleep                                         out/stm32f10x_can.o
CAN_StructInit                                    out/stm32f10x_can.o
CAN_TTComModeCmd                                  out/stm32f10x_can.o
CAN_Transmit                                      out/stm32f10x_can.o
CAN_TransmitStatus                                out/stm32f10x_can.o
CAN_WakeUp                                        out/stm32f10x_can.o
CEC_ClearFlag                                     out/stm32f10x_cec.o
CEC_ClearITPendingBit                             out/stm32f10x_cec.o
CEC_Cmd                                           out/stm32f10x_cec.o
CEC_DeInit                                        out/stm32f10x_cec.o
CEC_EndOfMessageCmd                               out/stm32f10x_cec.o
CEC_GetFlagStatus                                 out/stm32f10x_cec.o
CEC_GetITStatus                                   out/stm32f10x_cec.o
CEC_ITConfig                                      out/stm32f10x_cec.o
CEC_Init                                          out/stm32f10x_cec.o
CEC_OwnAddressConfig                              out/stm32f10x_cec.o
CEC_ReceiveDataByte                               out/stm32f10x_cec.o
CEC_SendDataByte                                  out/stm32f10x_cec.o
CEC_SetPrescaler                                  out/stm32f10x_cec.o
CEC_StartOfMessage                                out/stm32f10x_cec.o
CGpioManager::CGpioManager()                      out/CGpioManager.o
                                                  out/main.o
CGpioManager::CGpioManager()                      out/CGpioManager.o
CGpioManager::CGpioManager(CGpioManager const&)   out/CGpioManager.o
CGpioManager::CGpioManager(CGpioManager const&)   out/CGpioManager.o
CGpioManager::checkPortPinAvailability(unsigned char, unsigned char) out/CGpioManager.o
CGpioManager::getGpio(unsigned char, unsigned char) out/CGpioManager.o
                                                  out/main.o
CGpioManager::initGpio(unsigned char, GPIO_InitTypeDef*) out/CGpioManager.o
                                                  out/CUsartStateUsable.o
CGpioManager::operator=(CGpioManager const&)      out/CGpioManager.o
                                                  out/main.o
CGpioManager::releaseGpio(unsigned char, unsigned char) out/CGpioManager.o
                                                  out/main.o
CGpioManager::remap(unsigned long)                out/CGpioManager.o
                                                  out/CUsartStateUsable.o
CGpioManager::setPortPinUnused(unsigned char, unsigned char) out/CGpioManager.o
CGpioManager::setPortPinUsed(unsigned char, unsigned char) out/CGpioManager.o
CRC_CalcBlockCRC                                  out/stm32f10x_crc.o
CRC_CalcCRC                                       out/stm32f10x_crc.o
CRC_GetCRC                                        out/stm32f10x_crc.o
CRC_GetIDRegister                                 out/stm32f10x_crc.o
CRC_ResetDR                                       out/stm32f10x_crc.o
CRC_SetIDRegister                                 out/stm32f10x_crc.o
CRccManager::CRccManager()                        out/CRccManager.o
CRccManager::CRccManager()                        out/CRccManager.o
                                                  out/main.o
CRccManager::CRccManager(CRccManager const&)      out/CRccManager.o
CRccManager::CRccManager(CRccManager const&)      out/CRccManager.o
CRccManager::apb1Disable(unsigned long)           out/CRccManager.o
                                                  out/CUsartStateUsable.o
CRccManager::apb1Enable(unsigned long)            out/CRccManager.o
                                                  out/CUsartStateUsable.o
CRccManager::apb2Disable(unsigned long)           out/CRccManager.o
                                                  out/CUsartStateUsable.o
CRccManager::apb2Enable(unsigned long)            out/CRccManager.o
                                                  out/CUsartStateUsable.o
CRccManager::increaseUseCount(unsigned long*, unsigned long) out/CRccManager.o
CRccManager::operator=(CRccManager const&)        out/CRccManager.o
                                                  out/main.o
CUsart<SUsart1>::CUsart(CGpioManager&, CRccManager&) out/main.o
CUsart<SUsart1>::CUsart(CGpioManager&, CRccManager&) out/main.o
CUsart<SUsart1>::checkInterruptSource(unsigned short) out/main.o
CUsart<SUsart1>::configureInterrupts(unsigned short) out/main.o
CUsart<SUsart1>::deconfigureInterrupts(unsigned short) out/main.o
CUsart<SUsart1>::deinit()                         out/main.o
CUsart<SUsart1>::getIndex()                       out/main.o
CUsart<SUsart1>::getState()                       out/main.o
CUsart<SUsart1>::init(GPIO_InitTypeDef*, SPeriphConfig*) out/main.o
CUsart<SUsart1>::interruptsOff()                  out/main.o
CUsart<SUsart1>::interruptsOn(unsigned char, unsigned char) out/main.o
CUsart<SUsart1>::read(unsigned short*, unsigned char) out/main.o
CUsart<SUsart1>::setIds()                         out/main.o
CUsart<SUsart1>::write(unsigned short*, unsigned char) out/main.o
CUsart<SUsart1>::~CUsart()                        out/main.o
CUsart<SUsart1>::~CUsart()                        out/main.o
CUsart<SUsart1>::~CUsart()                        out/main.o
CUsart<SUsart2>::setIds()                         out/main.o
CUsart<SUsart3>::setIds()                         out/main.o
CUsart<SUsart4>::setIds()                         out/main.o
CUsart<SUsart5>::setIds()                         out/main.o
CUsart<SUsart6>::setIds()                         out/main.o
CUsart<SUsart7>::setIds()                         out/main.o
CUsartIrqHandler::CUsartIrqHandler()              out/CUsartIrqHandler.o
CUsartIrqHandler::CUsartIrqHandler()              out/CUsartIrqHandler.o
CUsartIrqHandler::CUsartIrqHandler(IPeripheral*)  out/CUsartIrqHandler.o
CUsartIrqHandler::CUsartIrqHandler(IPeripheral*)  out/CUsartIrqHandler.o
CUsartIrqHandler::m_usart                         out/CUsartIrqHandler.o
CUsartIrqHandler::registerPeripheral(IPeripheral*) out/CUsartIrqHandler.o
CUsartIrqHandler::unregisterPeripheral(IPeripheral*) out/CUsartIrqHandler.o
CUsartIrqHandler::~CUsartIrqHandler()             out/CUsartIrqHandler.o
CUsartIrqHandler::~CUsartIrqHandler()             out/CUsartIrqHandler.o
CUsartIrqHandler::~CUsartIrqHandler()             out/CUsartIrqHandler.o
CUsartState::CUsartState()                        out/main.o
                                                  out/CUsartStateUsable.o
                                                  out/CUsartStateUnusable.o
                                                  out/CUsartStateRunning.o
CUsartState::CUsartState()                        out/main.o
                                                  out/CUsartStateUsable.o
                                                  out/CUsartStateUnusable.o
                                                  out/CUsartStateRunning.o
CUsartState::~CUsartState()                       out/main.o
                                                  out/CUsartStateUsable.o
                                                  out/CUsartStateUnusable.o
                                                  out/CUsartStateRunning.o
CUsartState::~CUsartState()                       out/main.o
                                                  out/CUsartStateUsable.o
                                                  out/CUsartStateUnusable.o
                                                  out/CUsartStateRunning.o
CUsartState::~CUsartState()                       out/main.o
                                                  out/CUsartStateUsable.o
                                                  out/CUsartStateUnusable.o
                                                  out/CUsartStateRunning.o
CUsartStateRunning::CUsartStateRunning(CGpioManager*, CRccManager*) out/CUsartStateUsable.o
CUsartStateRunning::CUsartStateRunning(CGpioManager*, CRccManager*) out/CUsartStateUsable.o
CUsartStateRunning::apbEnable(unsigned long, unsigned long) out/CUsartStateRunning.o
CUsartStateRunning::deinit(USART_TypeDef*, unsigned long, unsigned long, CUsartState*) out/CUsartStateRunning.o
CUsartStateRunning::getState()                    out/CUsartStateRunning.o
CUsartStateRunning::gpioInit(unsigned char, unsigned char, GPIO_InitTypeDef&) out/CUsartStateRunning.o
CUsartStateRunning::init(USART_TypeDef*, USART_InitTypeDef&) out/CUsartStateRunning.o
CUsartStateRunning::interruptsConfig(NVIC_InitTypeDef&) out/CUsartStateRunning.o
CUsartStateRunning::nextState(CUsartState*, bool) out/CUsartStateRunning.o
CUsartStateRunning::read(USART_TypeDef*, unsigned short*, unsigned char) out/CUsartStateRunning.o
CUsartStateRunning::remap(unsigned long)          out/CUsartStateRunning.o
CUsartStateRunning::write(USART_TypeDef*, unsigned short*, unsigned char) out/CUsartStateRunning.o
CUsartStateRunning::~CUsartStateRunning()         out/CUsartStateRunning.o
CUsartStateRunning::~CUsartStateRunning()         out/CUsartStateRunning.o
CUsartStateRunning::~CUsartStateRunning()         out/CUsartStateRunning.o
CUsartStateUnusable::CUsartStateUnusable(CGpioManager*, CRccManager*) out/main.o
                                                  out/CUsartStateUsable.o
CUsartStateUnusable::CUsartStateUnusable(CGpioManager*, CRccManager*) out/main.o
                                                  out/CUsartStateUsable.o
CUsartStateUnusable::apbEnable(unsigned long, unsigned long) out/CUsartStateUnusable.o
CUsartStateUnusable::deinit(USART_TypeDef*, unsigned long, unsigned long, CUsartState*) out/CUsartStateUnusable.o
CUsartStateUnusable::getState()                   out/CUsartStateUnusable.o
CUsartStateUnusable::gpioInit(unsigned char, unsigned char, GPIO_InitTypeDef&) out/CUsartStateUnusable.o
CUsartStateUnusable::init(USART_TypeDef*, USART_InitTypeDef&) out/CUsartStateUnusable.o
CUsartStateUnusable::interruptsConfig(NVIC_InitTypeDef&) out/CUsartStateUnusable.o
CUsartStateUnusable::nextState(CUsartState*, bool) out/CUsartStateUnusable.o
CUsartStateUnusable::read(USART_TypeDef*, unsigned short*, unsigned char) out/CUsartStateUnusable.o
CUsartStateUnusable::remap(unsigned long)         out/CUsartStateUnusable.o
CUsartStateUnusable::write(USART_TypeDef*, unsigned short*, unsigned char) out/CUsartStateUnusable.o
CUsartStateUnusable::~CUsartStateUnusable()       out/CUsartStateUnusable.o
CUsartStateUnusable::~CUsartStateUnusable()       out/CUsartStateUnusable.o
CUsartStateUnusable::~CUsartStateUnusable()       out/CUsartStateUnusable.o
CUsartStateUsable::CUsartStateUsable(CGpioManager*, CRccManager*) out/CUsartStateRunning.o
                                                  out/CUsartStateUnusable.o
CUsartStateUsable::CUsartStateUsable(CGpioManager*, CRccManager*) out/CUsartStateRunning.o
                                                  out/CUsartStateUnusable.o
CUsartStateUsable::apbEnable(unsigned long, unsigned long) out/CUsartStateUsable.o
CUsartStateUsable::deinit(USART_TypeDef*, unsigned long, unsigned long, CUsartState*) out/CUsartStateUsable.o
CUsartStateUsable::getState()                     out/CUsartStateUsable.o
CUsartStateUsable::gpioInit(unsigned char, unsigned char, GPIO_InitTypeDef&) out/CUsartStateUsable.o
CUsartStateUsable::init(USART_TypeDef*, USART_InitTypeDef&) out/CUsartStateUsable.o
CUsartStateUsable::interruptsConfig(NVIC_InitTypeDef&) out/CUsartStateUsable.o
CUsartStateUsable::nextState(CUsartState*, bool)  out/CUsartStateUsable.o
CUsartStateUsable::read(USART_TypeDef*, unsigned short*, unsigned char) out/CUsartStateUsable.o
CUsartStateUsable::remap(unsigned long)           out/CUsartStateUsable.o
CUsartStateUsable::write(USART_TypeDef*, unsigned short*, unsigned char) out/CUsartStateUsable.o
CUsartStateUsable::~CUsartStateUsable()           out/CUsartStateUsable.o
CUsartStateUsable::~CUsartStateUsable()           out/CUsartStateUsable.o
CUsartStateUsable::~CUsartStateUsable()           out/CUsartStateUsable.o
DAC_Cmd                                           out/stm32f10x_dac.o
DAC_DMACmd                                        out/stm32f10x_dac.o
DAC_DeInit                                        out/stm32f10x_dac.o
DAC_DualSoftwareTriggerCmd                        out/stm32f10x_dac.o
DAC_GetDataOutputValue                            out/stm32f10x_dac.o
DAC_Init                                          out/stm32f10x_dac.o
DAC_SetChannel1Data                               out/stm32f10x_dac.o
DAC_SetChannel2Data                               out/stm32f10x_dac.o
DAC_SetDualChannelData                            out/stm32f10x_dac.o
DAC_SoftwareTriggerCmd                            out/stm32f10x_dac.o
DAC_StructInit                                    out/stm32f10x_dac.o
DAC_WaveGenerationCmd                             out/stm32f10x_dac.o
DBGMCU_Config                                     out/stm32f10x_dbgmcu.o
DBGMCU_GetDEVID                                   out/stm32f10x_dbgmcu.o
DBGMCU_GetREVID                                   out/stm32f10x_dbgmcu.o
DMA1_Channel1_IRQHandler                          out/startup_stm32f10x_cl.o
DMA1_Channel2_IRQHandler                          out/startup_stm32f10x_cl.o
DMA1_Channel3_IRQHandler                          out/startup_stm32f10x_cl.o
DMA1_Channel4_IRQHandler                          out/startup_stm32f10x_cl.o
DMA1_Channel5_IRQHandler                          out/startup_stm32f10x_cl.o
DMA1_Channel6_IRQHandler                          out/startup_stm32f10x_cl.o
DMA1_Channel7_IRQHandler                          out/startup_stm32f10x_cl.o
DMA2_Channel1_IRQHandler                          out/startup_stm32f10x_cl.o
DMA2_Channel2_IRQHandler                          out/startup_stm32f10x_cl.o
DMA2_Channel3_IRQHandler                          out/startup_stm32f10x_cl.o
DMA2_Channel4_5_IRQHandler                        out/vectors.o
DMA2_Channel4_IRQHandler                          out/startup_stm32f10x_cl.o
DMA2_Channel5_IRQHandler                          out/startup_stm32f10x_cl.o
DMA_ClearFlag                                     out/stm32f10x_dma.o
DMA_ClearITPendingBit                             out/stm32f10x_dma.o
DMA_Cmd                                           out/stm32f10x_dma.o
DMA_DeInit                                        out/stm32f10x_dma.o
DMA_GetCurrDataCounter                            out/stm32f10x_dma.o
DMA_GetFlagStatus                                 out/stm32f10x_dma.o
DMA_GetITStatus                                   out/stm32f10x_dma.o
DMA_ITConfig                                      out/stm32f10x_dma.o
DMA_Init                                          out/stm32f10x_dma.o
DMA_SetCurrDataCounter                            out/stm32f10x_dma.o
DMA_StructInit                                    out/stm32f10x_dma.o
DebugMon_Handler                                  out/stm32f10x_it.o
                                                  out/startup_stm32f10x_cl.o
Default_Handler                                   out/startup_stm32f10x_cl.o
ETH_IRQHandler                                    out/startup_stm32f10x_cl.o
ETH_WKUP_IRQHandler                               out/startup_stm32f10x_cl.o
EXTI0_IRQHandler                                  out/startup_stm32f10x_cl.o
EXTI15_10_IRQHandler                              out/startup_stm32f10x_cl.o
EXTI1_IRQHandler                                  out/startup_stm32f10x_cl.o
EXTI2_IRQHandler                                  out/startup_stm32f10x_cl.o
EXTI3_IRQHandler                                  out/startup_stm32f10x_cl.o
EXTI4_IRQHandler                                  out/startup_stm32f10x_cl.o
EXTI9_5_IRQHandler                                out/startup_stm32f10x_cl.o
EXTI_ClearFlag                                    out/stm32f10x_exti.o
EXTI_ClearITPendingBit                            out/stm32f10x_exti.o
EXTI_DeInit                                       out/stm32f10x_exti.o
EXTI_GenerateSWInterrupt                          out/stm32f10x_exti.o
EXTI_GetFlagStatus                                out/stm32f10x_exti.o
EXTI_GetITStatus                                  out/stm32f10x_exti.o
EXTI_Init                                         out/stm32f10x_exti.o
EXTI_StructInit                                   out/stm32f10x_exti.o
FLASH_ClearFlag                                   out/stm32f10x_flash.o
FLASH_EnableWriteProtection                       out/stm32f10x_flash.o
FLASH_EraseAllBank1Pages                          out/stm32f10x_flash.o
FLASH_EraseAllPages                               out/stm32f10x_flash.o
FLASH_EraseOptionBytes                            out/stm32f10x_flash.o
FLASH_ErasePage                                   out/stm32f10x_flash.o
FLASH_GetBank1Status                              out/stm32f10x_flash.o
FLASH_GetFlagStatus                               out/stm32f10x_flash.o
FLASH_GetPrefetchBufferStatus                     out/stm32f10x_flash.o
FLASH_GetReadOutProtectionStatus                  out/stm32f10x_flash.o
FLASH_GetStatus                                   out/stm32f10x_flash.o
FLASH_GetUserOptionByte                           out/stm32f10x_flash.o
FLASH_GetWriteProtectionOptionByte                out/stm32f10x_flash.o
FLASH_HalfCycleAccessCmd                          out/stm32f10x_flash.o
FLASH_IRQHandler                                  out/startup_stm32f10x_cl.o
FLASH_ITConfig                                    out/stm32f10x_flash.o
FLASH_Lock                                        out/stm32f10x_flash.o
FLASH_LockBank1                                   out/stm32f10x_flash.o
FLASH_PrefetchBufferCmd                           out/stm32f10x_flash.o
FLASH_ProgramHalfWord                             out/stm32f10x_flash.o
FLASH_ProgramOptionByteData                       out/stm32f10x_flash.o
FLASH_ProgramWord                                 out/stm32f10x_flash.o
FLASH_ReadOutProtection                           out/stm32f10x_flash.o
FLASH_SetLatency                                  out/stm32f10x_flash.o
FLASH_Unlock                                      out/stm32f10x_flash.o
FLASH_UnlockBank1                                 out/stm32f10x_flash.o
FLASH_UserOptionByteConfig                        out/stm32f10x_flash.o
FLASH_WaitForLastBank1Operation                   out/stm32f10x_flash.o
FLASH_WaitForLastOperation                        out/stm32f10x_flash.o
FSMC_ClearFlag                                    out/stm32f10x_fsmc.o
FSMC_ClearITPendingBit                            out/stm32f10x_fsmc.o
FSMC_GetECC                                       out/stm32f10x_fsmc.o
FSMC_GetFlagStatus                                out/stm32f10x_fsmc.o
FSMC_GetITStatus                                  out/stm32f10x_fsmc.o
FSMC_IRQHandler                                   out/vectors.o
FSMC_ITConfig                                     out/stm32f10x_fsmc.o
FSMC_NANDCmd                                      out/stm32f10x_fsmc.o
FSMC_NANDDeInit                                   out/stm32f10x_fsmc.o
FSMC_NANDECCCmd                                   out/stm32f10x_fsmc.o
FSMC_NANDInit                                     out/stm32f10x_fsmc.o
FSMC_NANDStructInit                               out/stm32f10x_fsmc.o
FSMC_NORSRAMCmd                                   out/stm32f10x_fsmc.o
FSMC_NORSRAMDeInit                                out/stm32f10x_fsmc.o
FSMC_NORSRAMInit                                  out/stm32f10x_fsmc.o
FSMC_NORSRAMStructInit                            out/stm32f10x_fsmc.o
FSMC_PCCARDCmd                                    out/stm32f10x_fsmc.o
FSMC_PCCARDDeInit                                 out/stm32f10x_fsmc.o
FSMC_PCCARDInit                                   out/stm32f10x_fsmc.o
FSMC_PCCARDStructInit                             out/stm32f10x_fsmc.o
GPIO_AFIODeInit                                   out/stm32f10x_gpio.o
GPIO_DeInit                                       out/stm32f10x_gpio.o
GPIO_ETH_MediaInterfaceConfig                     out/stm32f10x_gpio.o
GPIO_EXTILineConfig                               out/stm32f10x_gpio.o
GPIO_EventOutputCmd                               out/stm32f10x_gpio.o
GPIO_EventOutputConfig                            out/stm32f10x_gpio.o
GPIO_Init                                         out/stm32f10x_gpio.o
                                                  out/CGpioManager.o
GPIO_PinLockConfig                                out/stm32f10x_gpio.o
GPIO_PinRemapConfig                               out/stm32f10x_gpio.o
                                                  out/CGpioManager.o
GPIO_ReadInputData                                out/stm32f10x_gpio.o
GPIO_ReadInputDataBit                             out/stm32f10x_gpio.o
GPIO_ReadOutputData                               out/stm32f10x_gpio.o
GPIO_ReadOutputDataBit                            out/stm32f10x_gpio.o
GPIO_ResetBits                                    out/stm32f10x_gpio.o
GPIO_SetBits                                      out/stm32f10x_gpio.o
GPIO_StructInit                                   out/stm32f10x_gpio.o
GPIO_Write                                        out/stm32f10x_gpio.o
GPIO_WriteBit                                     out/stm32f10x_gpio.o
HardFault_Handler                                 out/stm32f10x_it.o
                                                  out/startup_stm32f10x_cl.o
I2C1_ER_IRQHandler                                out/startup_stm32f10x_cl.o
I2C1_EV_IRQHandler                                out/startup_stm32f10x_cl.o
I2C2_ER_IRQHandler                                out/startup_stm32f10x_cl.o
I2C2_EV_IRQHandler                                out/startup_stm32f10x_cl.o
I2C_ARPCmd                                        out/stm32f10x_i2c.o
I2C_AcknowledgeConfig                             out/stm32f10x_i2c.o
I2C_CalculatePEC                                  out/stm32f10x_i2c.o
I2C_CheckEvent                                    out/stm32f10x_i2c.o
I2C_ClearFlag                                     out/stm32f10x_i2c.o
I2C_ClearITPendingBit                             out/stm32f10x_i2c.o
I2C_Cmd                                           out/stm32f10x_i2c.o
I2C_DMACmd                                        out/stm32f10x_i2c.o
I2C_DMALastTransferCmd                            out/stm32f10x_i2c.o
I2C_DeInit                                        out/stm32f10x_i2c.o
I2C_DualAddressCmd                                out/stm32f10x_i2c.o
I2C_FastModeDutyCycleConfig                       out/stm32f10x_i2c.o
I2C_GeneralCallCmd                                out/stm32f10x_i2c.o
I2C_GenerateSTART                                 out/stm32f10x_i2c.o
I2C_GenerateSTOP                                  out/stm32f10x_i2c.o
I2C_GetFlagStatus                                 out/stm32f10x_i2c.o
I2C_GetITStatus                                   out/stm32f10x_i2c.o
I2C_GetLastEvent                                  out/stm32f10x_i2c.o
I2C_GetPEC                                        out/stm32f10x_i2c.o
I2C_ITConfig                                      out/stm32f10x_i2c.o
I2C_Init                                          out/stm32f10x_i2c.o
I2C_NACKPositionConfig                            out/stm32f10x_i2c.o
I2C_OwnAddress2Config                             out/stm32f10x_i2c.o
I2C_PECPositionConfig                             out/stm32f10x_i2c.o
I2C_ReadRegister                                  out/stm32f10x_i2c.o
I2C_ReceiveData                                   out/stm32f10x_i2c.o
I2C_SMBusAlertConfig                              out/stm32f10x_i2c.o
I2C_Send7bitAddress                               out/stm32f10x_i2c.o
I2C_SendData                                      out/stm32f10x_i2c.o
I2C_SoftwareResetCmd                              out/stm32f10x_i2c.o
I2C_StretchClockCmd                               out/stm32f10x_i2c.o
I2C_StructInit                                    out/stm32f10x_i2c.o
I2C_TransmitPEC                                   out/stm32f10x_i2c.o
I2S_Cmd                                           out/stm32f10x_spi.o
I2S_Init                                          out/stm32f10x_spi.o
I2S_StructInit                                    out/stm32f10x_spi.o
IIrqHandler::IIrqHandler()                        out/CUsartIrqHandler.o
IIrqHandler::IIrqHandler()                        out/CUsartIrqHandler.o
IIrqHandler::~IIrqHandler()                       out/CUsartIrqHandler.o
IPeripheral::IPeripheral()                        out/main.o
IPeripheral::IPeripheral()                        out/main.o
IPeripheral::~IPeripheral()                       out/main.o
IPeripheral::~IPeripheral()                       out/main.o
IPeripheral::~IPeripheral()                       out/main.o
IWDG_Enable                                       out/stm32f10x_iwdg.o
IWDG_GetFlagStatus                                out/stm32f10x_iwdg.o
IWDG_ReloadCounter                                out/stm32f10x_iwdg.o
IWDG_SetPrescaler                                 out/stm32f10x_iwdg.o
IWDG_SetReload                                    out/stm32f10x_iwdg.o
IWDG_WriteAccessCmd                               out/stm32f10x_iwdg.o
MemManage_Handler                                 out/stm32f10x_it.o
                                                  out/startup_stm32f10x_cl.o
NMI_Handler                                       out/stm32f10x_it.o
                                                  out/startup_stm32f10x_cl.o
NVIC_Init                                         out/misc.o
                                                  out/CUsartStateUsable.o
                                                  out/CUsartStateRunning.o
NVIC_PriorityGroupConfig                          out/misc.o
NVIC_SetVectorTable                               out/misc.o
NVIC_SystemLPConfig                               out/misc.o
OTG_FS_IRQHandler                                 out/startup_stm32f10x_cl.o
OTG_FS_WKUP_IRQHandler                            out/startup_stm32f10x_cl.o
PVD_IRQHandler                                    out/startup_stm32f10x_cl.o
PWR_BackupAccessCmd                               out/stm32f10x_pwr.o
PWR_ClearFlag                                     out/stm32f10x_pwr.o
PWR_DeInit                                        out/stm32f10x_pwr.o
PWR_EnterSTANDBYMode                              out/stm32f10x_pwr.o
PWR_EnterSTOPMode                                 out/stm32f10x_pwr.o
PWR_GetFlagStatus                                 out/stm32f10x_pwr.o
PWR_PVDCmd                                        out/stm32f10x_pwr.o
PWR_PVDLevelConfig                                out/stm32f10x_pwr.o
PWR_WakeUpPinCmd                                  out/stm32f10x_pwr.o
PendSV_Handler                                    out/stm32f10x_it.o
                                                  out/startup_stm32f10x_cl.o
RCC_ADCCLKConfig                                  out/stm32f10x_rcc.o
RCC_AHBPeriphClockCmd                             out/stm32f10x_rcc.o
RCC_AHBPeriphResetCmd                             out/stm32f10x_rcc.o
RCC_APB1PeriphClockCmd                            out/stm32f10x_rcc.o
                                                  out/CRccManager.o
RCC_APB1PeriphResetCmd                            out/stm32f10x_rcc.o
                                                  out/stm32f10x_wwdg.o
                                                  out/stm32f10x_usart.o
                                                  out/stm32f10x_tim.o
                                                  out/stm32f10x_spi.o
                                                  out/stm32f10x_pwr.o
                                                  out/stm32f10x_i2c.o
                                                  out/stm32f10x_dac.o
                                                  out/stm32f10x_cec.o
                                                  out/stm32f10x_can.o
RCC_APB2PeriphClockCmd                            out/stm32f10x_rcc.o
                                                  out/CRccManager.o
RCC_APB2PeriphResetCmd                            out/stm32f10x_rcc.o
                                                  out/stm32f10x_usart.o
                                                  out/stm32f10x_tim.o
                                                  out/stm32f10x_spi.o
                                                  out/stm32f10x_gpio.o
                                                  out/stm32f10x_adc.o
RCC_AdjustHSICalibrationValue                     out/stm32f10x_rcc.o
RCC_BackupResetCmd                                out/stm32f10x_rcc.o
                                                  out/stm32f10x_bkp.o
RCC_ClearFlag                                     out/stm32f10x_rcc.o
RCC_ClearITPendingBit                             out/stm32f10x_rcc.o
RCC_ClockSecuritySystemCmd                        out/stm32f10x_rcc.o
RCC_DeInit                                        out/stm32f10x_rcc.o
RCC_GetClocksFreq                                 out/stm32f10x_rcc.o
                                                  out/stm32f10x_usart.o
                                                  out/stm32f10x_spi.o
                                                  out/stm32f10x_i2c.o
RCC_GetFlagStatus                                 out/stm32f10x_rcc.o
RCC_GetITStatus                                   out/stm32f10x_rcc.o
RCC_GetSYSCLKSource                               out/stm32f10x_rcc.o
RCC_HCLKConfig                                    out/stm32f10x_rcc.o
RCC_HSEConfig                                     out/stm32f10x_rcc.o
RCC_HSICmd                                        out/stm32f10x_rcc.o
RCC_I2S2CLKConfig                                 out/stm32f10x_rcc.o
RCC_I2S3CLKConfig                                 out/stm32f10x_rcc.o
RCC_IRQHandler                                    out/startup_stm32f10x_cl.o
RCC_ITConfig                                      out/stm32f10x_rcc.o
RCC_LSEConfig                                     out/stm32f10x_rcc.o
RCC_LSICmd                                        out/stm32f10x_rcc.o
RCC_MCOConfig                                     out/stm32f10x_rcc.o
RCC_OTGFSCLKConfig                                out/stm32f10x_rcc.o
RCC_PCLK1Config                                   out/stm32f10x_rcc.o
RCC_PCLK2Config                                   out/stm32f10x_rcc.o
RCC_PLL2Cmd                                       out/stm32f10x_rcc.o
RCC_PLL2Config                                    out/stm32f10x_rcc.o
RCC_PLL3Cmd                                       out/stm32f10x_rcc.o
RCC_PLL3Config                                    out/stm32f10x_rcc.o
RCC_PLLCmd                                        out/stm32f10x_rcc.o
RCC_PLLConfig                                     out/stm32f10x_rcc.o
RCC_PREDIV1Config                                 out/stm32f10x_rcc.o
RCC_PREDIV2Config                                 out/stm32f10x_rcc.o
RCC_RTCCLKCmd                                     out/stm32f10x_rcc.o
RCC_RTCCLKConfig                                  out/stm32f10x_rcc.o
RCC_SYSCLKConfig                                  out/stm32f10x_rcc.o
RCC_WaitForHSEStartUp                             out/stm32f10x_rcc.o
RTCAlarm_IRQHandler                               out/startup_stm32f10x_cl.o
RTC_ClearFlag                                     out/stm32f10x_rtc.o
RTC_ClearITPendingBit                             out/stm32f10x_rtc.o
RTC_EnterConfigMode                               out/stm32f10x_rtc.o
RTC_ExitConfigMode                                out/stm32f10x_rtc.o
RTC_GetCounter                                    out/stm32f10x_rtc.o
RTC_GetDivider                                    out/stm32f10x_rtc.o
RTC_GetFlagStatus                                 out/stm32f10x_rtc.o
RTC_GetITStatus                                   out/stm32f10x_rtc.o
RTC_IRQHandler                                    out/startup_stm32f10x_cl.o
RTC_ITConfig                                      out/stm32f10x_rtc.o
RTC_SetAlarm                                      out/stm32f10x_rtc.o
RTC_SetCounter                                    out/stm32f10x_rtc.o
RTC_SetPrescaler                                  out/stm32f10x_rtc.o
RTC_WaitForLastTask                               out/stm32f10x_rtc.o
RTC_WaitForSynchro                                out/stm32f10x_rtc.o
Reset_Handler                                     out/startup_stm32f10x_cl.o
                                                  out/vectors.o
SDIO_CEATAITCmd                                   out/stm32f10x_sdio.o
SDIO_ClearFlag                                    out/stm32f10x_sdio.o
SDIO_ClearITPendingBit                            out/stm32f10x_sdio.o
SDIO_ClockCmd                                     out/stm32f10x_sdio.o
SDIO_CmdStructInit                                out/stm32f10x_sdio.o
SDIO_CommandCompletionCmd                         out/stm32f10x_sdio.o
SDIO_DMACmd                                       out/stm32f10x_sdio.o
SDIO_DataConfig                                   out/stm32f10x_sdio.o
SDIO_DataStructInit                               out/stm32f10x_sdio.o
SDIO_DeInit                                       out/stm32f10x_sdio.o
SDIO_GetCommandResponse                           out/stm32f10x_sdio.o
SDIO_GetDataCounter                               out/stm32f10x_sdio.o
SDIO_GetFIFOCount                                 out/stm32f10x_sdio.o
SDIO_GetFlagStatus                                out/stm32f10x_sdio.o
SDIO_GetITStatus                                  out/stm32f10x_sdio.o
SDIO_GetPowerState                                out/stm32f10x_sdio.o
SDIO_GetResponse                                  out/stm32f10x_sdio.o
SDIO_IRQHandler                                   out/vectors.o
SDIO_ITConfig                                     out/stm32f10x_sdio.o
SDIO_Init                                         out/stm32f10x_sdio.o
SDIO_ReadData                                     out/stm32f10x_sdio.o
SDIO_SendCEATACmd                                 out/stm32f10x_sdio.o
SDIO_SendCommand                                  out/stm32f10x_sdio.o
SDIO_SendSDIOSuspendCmd                           out/stm32f10x_sdio.o
SDIO_SetPowerState                                out/stm32f10x_sdio.o
SDIO_SetSDIOOperation                             out/stm32f10x_sdio.o
SDIO_SetSDIOReadWaitMode                          out/stm32f10x_sdio.o
SDIO_StartSDIOReadWait                            out/stm32f10x_sdio.o
SDIO_StopSDIOReadWait                             out/stm32f10x_sdio.o
SDIO_StructInit                                   out/stm32f10x_sdio.o
SDIO_WriteData                                    out/stm32f10x_sdio.o
SPI1_IRQHandler                                   out/startup_stm32f10x_cl.o
SPI2_IRQHandler                                   out/startup_stm32f10x_cl.o
SPI3_IRQHandler                                   out/startup_stm32f10x_cl.o
SPI_BiDirectionalLineConfig                       out/stm32f10x_spi.o
SPI_CalculateCRC                                  out/stm32f10x_spi.o
SPI_Cmd                                           out/stm32f10x_spi.o
SPI_DataSizeConfig                                out/stm32f10x_spi.o
SPI_GetCRC                                        out/stm32f10x_spi.o
SPI_GetCRCPolynomial                              out/stm32f10x_spi.o
SPI_I2S_ClearFlag                                 out/stm32f10x_spi.o
SPI_I2S_ClearITPendingBit                         out/stm32f10x_spi.o
SPI_I2S_DMACmd                                    out/stm32f10x_spi.o
SPI_I2S_DeInit                                    out/stm32f10x_spi.o
SPI_I2S_GetFlagStatus                             out/stm32f10x_spi.o
SPI_I2S_GetITStatus                               out/stm32f10x_spi.o
SPI_I2S_ITConfig                                  out/stm32f10x_spi.o
SPI_I2S_ReceiveData                               out/stm32f10x_spi.o
SPI_I2S_SendData                                  out/stm32f10x_spi.o
SPI_Init                                          out/stm32f10x_spi.o
SPI_NSSInternalSoftwareConfig                     out/stm32f10x_spi.o
SPI_SSOutputCmd                                   out/stm32f10x_spi.o
SPI_StructInit                                    out/stm32f10x_spi.o
SPI_TransmitCRC                                   out/stm32f10x_spi.o
SVC_Handler                                       out/stm32f10x_it.o
                                                  out/startup_stm32f10x_cl.o
SysTickCnt                                        out/stm32f10x_it.o
SysTick_CLKSourceConfig                           out/misc.o
SysTick_Handler                                   out/stm32f10x_it.o
                                                  out/startup_stm32f10x_cl.o
SystemCoreClock                                   out/system_stm32f10x.o
SystemCoreClockUpdate                             out/system_stm32f10x.o
SystemInit                                        out/system_stm32f10x.o
                                                  out/startup_stm32f10x_cl.o
TAMPER_IRQHandler                                 out/startup_stm32f10x_cl.o
TIM1_BRK_IRQHandler                               out/startup_stm32f10x_cl.o
TIM1_CC_IRQHandler                                out/startup_stm32f10x_cl.o
TIM1_TRG_COM_IRQHandler                           out/startup_stm32f10x_cl.o
TIM1_UP_IRQHandler                                out/startup_stm32f10x_cl.o
TIM2_IRQHandler                                   out/stm32f10x_it.o
                                                  out/startup_stm32f10x_cl.o
TIM3_IRQHandler                                   out/startup_stm32f10x_cl.o
TIM4_IRQHandler                                   out/startup_stm32f10x_cl.o
TIM5_IRQHandler                                   out/startup_stm32f10x_cl.o
TIM6_IRQHandler                                   out/startup_stm32f10x_cl.o
TIM7_IRQHandler                                   out/startup_stm32f10x_cl.o
TIM8_BRK_IRQHandler                               out/vectors.o
TIM8_CC_IRQHandler                                out/vectors.o
TIM8_TRG_COM_IRQHandler                           out/vectors.o
TIM8_UP_IRQHandler                                out/vectors.o
TIM_ARRPreloadConfig                              out/stm32f10x_tim.o
TIM_BDTRConfig                                    out/stm32f10x_tim.o
TIM_BDTRStructInit                                out/stm32f10x_tim.o
TIM_CCPreloadControl                              out/stm32f10x_tim.o
TIM_CCxCmd                                        out/stm32f10x_tim.o
TIM_CCxNCmd                                       out/stm32f10x_tim.o
TIM_ClearFlag                                     out/stm32f10x_tim.o
TIM_ClearITPendingBit                             out/stm32f10x_tim.o
TIM_ClearOC1Ref                                   out/stm32f10x_tim.o
TIM_ClearOC2Ref                                   out/stm32f10x_tim.o
TIM_ClearOC3Ref                                   out/stm32f10x_tim.o
TIM_ClearOC4Ref                                   out/stm32f10x_tim.o
TIM_Cmd                                           out/stm32f10x_tim.o
TIM_CounterModeConfig                             out/stm32f10x_tim.o
TIM_CtrlPWMOutputs                                out/stm32f10x_tim.o
TIM_DMACmd                                        out/stm32f10x_tim.o
TIM_DMAConfig                                     out/stm32f10x_tim.o
TIM_DeInit                                        out/stm32f10x_tim.o
TIM_ETRClockMode1Config                           out/stm32f10x_tim.o
TIM_ETRClockMode2Config                           out/stm32f10x_tim.o
TIM_ETRConfig                                     out/stm32f10x_tim.o
TIM_EncoderInterfaceConfig                        out/stm32f10x_tim.o
TIM_ForcedOC1Config                               out/stm32f10x_tim.o
TIM_ForcedOC2Config                               out/stm32f10x_tim.o
TIM_ForcedOC3Config                               out/stm32f10x_tim.o
TIM_ForcedOC4Config                               out/stm32f10x_tim.o
TIM_GenerateEvent                                 out/stm32f10x_tim.o
TIM_GetCapture1                                   out/stm32f10x_tim.o
TIM_GetCapture2                                   out/stm32f10x_tim.o
TIM_GetCapture3                                   out/stm32f10x_tim.o
TIM_GetCapture4                                   out/stm32f10x_tim.o
TIM_GetCounter                                    out/stm32f10x_tim.o
TIM_GetFlagStatus                                 out/stm32f10x_tim.o
TIM_GetITStatus                                   out/stm32f10x_tim.o
TIM_GetPrescaler                                  out/stm32f10x_tim.o
TIM_ICInit                                        out/stm32f10x_tim.o
TIM_ICStructInit                                  out/stm32f10x_tim.o
TIM_ITConfig                                      out/stm32f10x_tim.o
TIM_ITRxExternalClockConfig                       out/stm32f10x_tim.o
TIM_InternalClockConfig                           out/stm32f10x_tim.o
TIM_OC1FastConfig                                 out/stm32f10x_tim.o
TIM_OC1Init                                       out/stm32f10x_tim.o
TIM_OC1NPolarityConfig                            out/stm32f10x_tim.o
TIM_OC1PolarityConfig                             out/stm32f10x_tim.o
TIM_OC1PreloadConfig                              out/stm32f10x_tim.o
TIM_OC2FastConfig                                 out/stm32f10x_tim.o
TIM_OC2Init                                       out/stm32f10x_tim.o
TIM_OC2NPolarityConfig                            out/stm32f10x_tim.o
TIM_OC2PolarityConfig                             out/stm32f10x_tim.o
TIM_OC2PreloadConfig                              out/stm32f10x_tim.o
TIM_OC3FastConfig                                 out/stm32f10x_tim.o
TIM_OC3Init                                       out/stm32f10x_tim.o
TIM_OC3NPolarityConfig                            out/stm32f10x_tim.o
TIM_OC3PolarityConfig                             out/stm32f10x_tim.o
TIM_OC3PreloadConfig                              out/stm32f10x_tim.o
TIM_OC4FastConfig                                 out/stm32f10x_tim.o
TIM_OC4Init                                       out/stm32f10x_tim.o
TIM_OC4PolarityConfig                             out/stm32f10x_tim.o
TIM_OC4PreloadConfig                              out/stm32f10x_tim.o
TIM_OCStructInit                                  out/stm32f10x_tim.o
TIM_PWMIConfig                                    out/stm32f10x_tim.o
TIM_PrescalerConfig                               out/stm32f10x_tim.o
TIM_SelectCCDMA                                   out/stm32f10x_tim.o
TIM_SelectCOM                                     out/stm32f10x_tim.o
TIM_SelectHallSensor                              out/stm32f10x_tim.o
TIM_SelectInputTrigger                            out/stm32f10x_tim.o
TIM_SelectMasterSlaveMode                         out/stm32f10x_tim.o
TIM_SelectOCxM                                    out/stm32f10x_tim.o
TIM_SelectOnePulseMode                            out/stm32f10x_tim.o
TIM_SelectOutputTrigger                           out/stm32f10x_tim.o
TIM_SelectSlaveMode                               out/stm32f10x_tim.o
TIM_SetAutoreload                                 out/stm32f10x_tim.o
TIM_SetClockDivision                              out/stm32f10x_tim.o
TIM_SetCompare1                                   out/stm32f10x_tim.o
TIM_SetCompare2                                   out/stm32f10x_tim.o
TIM_SetCompare3                                   out/stm32f10x_tim.o
TIM_SetCompare4                                   out/stm32f10x_tim.o
TIM_SetCounter                                    out/stm32f10x_tim.o
TIM_SetIC1Prescaler                               out/stm32f10x_tim.o
TIM_SetIC2Prescaler                               out/stm32f10x_tim.o
TIM_SetIC3Prescaler                               out/stm32f10x_tim.o
TIM_SetIC4Prescaler                               out/stm32f10x_tim.o
TIM_TIxExternalClockConfig                        out/stm32f10x_tim.o
TIM_TimeBaseInit                                  out/stm32f10x_tim.o
TIM_TimeBaseStructInit                            out/stm32f10x_tim.o
TIM_UpdateDisableConfig                           out/stm32f10x_tim.o
TIM_UpdateRequestConfig                           out/stm32f10x_tim.o
Tim2Cnt                                           out/stm32f10x_it.o
UART4_IRQHandler                                  out/startup_stm32f10x_cl.o
UART5_IRQHandler                                  out/startup_stm32f10x_cl.o
USART1_IRQHandler                                 out/startup_stm32f10x_cl.o
USART2_IRQHandler                                 out/stm32f10x_it.o
                                                  out/startup_stm32f10x_cl.o
USART3_IRQHandler                                 out/startup_stm32f10x_cl.o
USART_ClearFlag                                   out/stm32f10x_usart.o
USART_ClearITPendingBit                           out/stm32f10x_usart.o
USART_ClockInit                                   out/stm32f10x_usart.o
                                                  out/CUsartStateUsable.o
USART_ClockStructInit                             out/stm32f10x_usart.o
                                                  out/CUsartStateUsable.o
USART_Cmd                                         out/stm32f10x_usart.o
                                                  out/CUsartStateUsable.o
USART_DMACmd                                      out/stm32f10x_usart.o
USART_DeInit                                      out/stm32f10x_usart.o
USART_GetFlagStatus                               out/stm32f10x_usart.o
                                                  out/CUsartStateRunning.o
USART_GetITStatus                                 out/stm32f10x_usart.o
                                                  out/main.o
USART_HalfDuplexCmd                               out/stm32f10x_usart.o
USART_ITConfig                                    out/stm32f10x_usart.o
                                                  out/main.o
USART_Init                                        out/stm32f10x_usart.o
                                                  out/CUsartStateUsable.o
USART_IrDACmd                                     out/stm32f10x_usart.o
USART_IrDAConfig                                  out/stm32f10x_usart.o
USART_LINBreakDetectLengthConfig                  out/stm32f10x_usart.o
USART_LINCmd                                      out/stm32f10x_usart.o
USART_OneBitMethodCmd                             out/stm32f10x_usart.o
USART_OverSampling8Cmd                            out/stm32f10x_usart.o
USART_ReceiveData                                 out/stm32f10x_usart.o
                                                  out/CUsartStateRunning.o
USART_ReceiverWakeUpCmd                           out/stm32f10x_usart.o
USART_SendBreak                                   out/stm32f10x_usart.o
USART_SendData                                    out/stm32f10x_usart.o
                                                  out/CUsartStateRunning.o
USART_SetAddress                                  out/stm32f10x_usart.o
USART_SetGuardTime                                out/stm32f10x_usart.o
USART_SetPrescaler                                out/stm32f10x_usart.o
USART_SmartCardCmd                                out/stm32f10x_usart.o
USART_SmartCardNACKCmd                            out/stm32f10x_usart.o
USART_StructInit                                  out/stm32f10x_usart.o
USART_WakeUpConfig                                out/stm32f10x_usart.o
USBWakeup_IRQHandler                              out/vectors.o
USB_HP_CAN_TX_IRQHandler                          out/vectors.o
USB_LP_CAN_RX0_IRQHandler                         out/vectors.o
UsageFault_Handler                                out/stm32f10x_it.o
                                                  out/startup_stm32f10x_cl.o
WWDG_ClearFlag                                    out/stm32f10x_wwdg.o
WWDG_DeInit                                       out/stm32f10x_wwdg.o
WWDG_Enable                                       out/stm32f10x_wwdg.o
WWDG_EnableIT                                     out/stm32f10x_wwdg.o
WWDG_GetFlagStatus                                out/stm32f10x_wwdg.o
WWDG_IRQHandler                                   out/startup_stm32f10x_cl.o
WWDG_SetCounter                                   out/stm32f10x_wwdg.o
WWDG_SetPrescaler                                 out/stm32f10x_wwdg.o
WWDG_SetWindowValue                               out/stm32f10x_wwdg.o
_Balloc                                           /home/reymondo/CodeSourcery/Sourcery_G++_Lite/bin/../lib/gcc/arm-none-eabi/4.5.2/../../../../arm-none-eabi/lib/thumb2/libc.a(lib_a-mprec.o)
                                                  /home/reymondo/CodeSourcery/Sourcery_G++_Lite/bin/../lib/gcc/arm-none-eabi/4.5.2/../../../../arm-none-eabi/lib/thumb2/libc.a(lib_a-dtoa.o)
_Bfree                                            /home/reymondo/CodeSourcery/Sourcery_G++_Lite/bin/../lib/gcc/arm-none-eabi/4.5.2/../../../../arm-none-eabi/lib/thumb2/libc.a(lib_a-mprec.o)
                                                  /home/reymondo/CodeSourcery/Sourcery_G++_Lite/bin/../lib/gcc/arm-none-eabi/4.5.2/../../../../arm-none-eabi/lib/thumb2/libc.a(lib_a-dtoa.o)
_Jv_RegisterClasses                               /home/reymondo/CodeSourcery/Sourcery_G++_Lite/bin/../lib/gcc/arm-none-eabi/4.5.2/thumb2/crtbegin.o
_PathLocale                                       /home/reymondo/CodeSourcery/Sourcery_G++_Lite/bin/../lib/gcc/arm-none-eabi/4.5.2/../../../../arm-none-eabi/lib/thumb2/libc.a(lib_a-locale.o)
_Unwind_Backtrace                                 /home/reymondo/CodeSourcery/Sourcery_G++_Lite/bin/../lib/gcc/arm-none-eabi/4.5.2/thumb2/libgcc.a(libunwind.o)
_Unwind_Complete                                  /home/reymondo/CodeSourcery/Sourcery_G++_Lite/bin/../lib/gcc/arm-none-eabi/4.5.2/thumb2/libgcc.a(unwind-arm.o)
                                                  /home/reymondo/CodeSourcery/Sourcery_G++_Lite/bin/../lib/gcc/arm-none-eabi/4.5.2/../../../../arm-none-eabi/lib/thumb2/libstdc++.a(eh_catch.o)
_Unwind_DeleteException                           /home/reymondo/CodeSourcery/Sourcery_G++_Lite/bin/../lib/gcc/arm-none-eabi/4.5.2/thumb2/libgcc.a(unwind-arm.o)
                                                  /home/reymondo/CodeSourcery/Sourcery_G++_Lite/bin/../lib/gcc/arm-none-eabi/4.5.2/../../../../arm-none-eabi/lib/thumb2/libstdc++.a(eh_catch.o)
_Unwind_ForcedUnwind                              /home/reymondo/CodeSourcery/Sourcery_G++_Lite/bin/../lib/gcc/arm-none-eabi/4.5.2/thumb2/libgcc.a(libunwind.o)
_Unwind_GetCFA                                    /home/reymondo/CodeSourcery/Sourcery_G++_Lite/bin/../lib/gcc/arm-none-eabi/4.5.2/thumb2/libgcc.a(unwind-arm.o)
_Unwind_GetDataRelBase                            /home/reymondo/CodeSourcery/Sourcery_G++_Lite/bin/../lib/gcc/arm-none-eabi/4.5.2/thumb2/libgcc.a(pr-support.o)
                                                  /home/reymondo/CodeSourcery/Sourcery_G++_Lite/bin/../lib/gcc/arm-none-eabi/4.5.2/../../../../arm-none-eabi/lib/thumb2/libstdc++.a(eh_personality.o)
_Unwind_GetLanguageSpecificData                   /home/reymondo/CodeSourcery/Sourcery_G++_Lite/bin/../lib/gcc/arm-none-eabi/4.5.2/thumb2/libgcc.a(pr-support.o)
                                                  /home/reymondo/CodeSourcery/Sourcery_G++_Lite/bin/../lib/gcc/arm-none-eabi/4.5.2/../../../../arm-none-eabi/lib/thumb2/libstdc++.a(eh_personality.o)
_Unwind_GetRegionStart                            /home/reymondo/CodeSourcery/Sourcery_G++_Lite/bin/../lib/gcc/arm-none-eabi/4.5.2/thumb2/libgcc.a(pr-support.o)
                                                  /home/reymondo/CodeSourcery/Sourcery_G++_Lite/bin/../lib/gcc/arm-none-eabi/4.5.2/../../../../arm-none-eabi/lib/thumb2/libstdc++.a(eh_personality.o)
_Unwind_GetTextRelBase                            /home/reymondo/CodeSourcery/Sourcery_G++_Lite/bin/../lib/gcc/arm-none-eabi/4.5.2/thumb2/libgcc.a(pr-support.o)
                                                  /home/reymondo/CodeSourcery/Sourcery_G++_Lite/bin/../lib/gcc/arm-none-eabi/4.5.2/../../../../arm-none-eabi/lib/thumb2/libstdc++.a(eh_personality.o)
_Unwind_RaiseException                            /home/reymondo/CodeSourcery/Sourcery_G++_Lite/bin/../lib/gcc/arm-none-eabi/4.5.2/thumb2/libgcc.a(libunwind.o)
                                                  /home/reymondo/CodeSourcery/Sourcery_G++_Lite/bin/../lib/gcc/arm-none-eabi/4.5.2/../../../../arm-none-eabi/lib/thumb2/libstdc++.a(eh_throw.o)
_Unwind_Resume                                    /home/reymondo/CodeSourcery/Sourcery_G++_Lite/bin/../lib/gcc/arm-none-eabi/4.5.2/thumb2/libgcc.a(libunwind.o)
                                                  /home/reymondo/CodeSourcery/Sourcery_G++_Lite/bin/../lib/gcc/arm-none-eabi/4.5.2/../../../../arm-none-eabi/lib/thumb2/libstdc++.a(eh_arm.o)
_Unwind_Resume_or_Rethrow                         /home/reymondo/CodeSourcery/Sourcery_G++_Lite/bin/../lib/gcc/arm-none-eabi/4.5.2/thumb2/libgcc.a(libunwind.o)
                                                  /home/reymondo/CodeSourcery/Sourcery_G++_Lite/bin/../lib/gcc/arm-none-eabi/4.5.2/../../../../arm-none-eabi/lib/thumb2/libstdc++.a(eh_throw.o)
_Unwind_VRS_Get                                   /home/reymondo/CodeSourcery/Sourcery_G++_Lite/bin/../lib/gcc/arm-none-eabi/4.5.2/thumb2/libgcc.a(unwind-arm.o)
                                                  /home/reymondo/CodeSourcery/Sourcery_G++_Lite/bin/../lib/gcc/arm-none-eabi/4.5.2/thumb2/libgcc.a(pr-support.o)
                                                  /home/reymondo/CodeSourcery/Sourcery_G++_Lite/bin/../lib/gcc/arm-none-eabi/4.5.2/../../../../arm-none-eabi/lib/thumb2/libstdc++.a(eh_personality.o)
_Unwind_VRS_Pop                                   /home/reymondo/CodeSourcery/Sourcery_G++_Lite/bin/../lib/gcc/arm-none-eabi/4.5.2/thumb2/libgcc.a(unwind-arm.o)
                                                  /home/reymondo/CodeSourcery/Sourcery_G++_Lite/bin/../lib/gcc/arm-none-eabi/4.5.2/thumb2/libgcc.a(pr-support.o)
_Unwind_VRS_Set                                   /home/reymondo/CodeSourcery/Sourcery_G++_Lite/bin/../lib/gcc/arm-none-eabi/4.5.2/thumb2/libgcc.a(unwind-arm.o)
                                                  /home/reymondo/CodeSourcery/Sourcery_G++_Lite/bin/../lib/gcc/arm-none-eabi/4.5.2/thumb2/libgcc.a(pr-support.o)
                                                  /home/reymondo/CodeSourcery/Sourcery_G++_Lite/bin/../lib/gcc/arm-none-eabi/4.5.2/../../../../arm-none-eabi/lib/thumb2/libstdc++.a(eh_personality.o)
__LDREXB                                          out/core_cm3.o
__LDREXH                                          out/core_cm3.o
__LDREXW                                          out/core_cm3.o
__RBIT                                            out/core_cm3.o
__REV                                             out/core_cm3.o
__REV16                                           out/core_cm3.o
__REVSH                                           out/core_cm3.o
__Reserved_0x1C_Handler                           out/vectors.o
__Reserved_0x20_Handler                           out/vectors.o
__Reserved_0x24_Handler                           out/vectors.o
__Reserved_0x28_Handler                           out/vectors.o
__Reserved_0x34_Handler                           out/vectors.o
__STREXB                                          out/core_cm3.o
__STREXH                                          out/core_cm3.o
__STREXW                                          out/core_cm3.o
___Unwind_Backtrace                               /home/reymondo/CodeSourcery/Sourcery_G++_Lite/bin/../lib/gcc/arm-none-eabi/4.5.2/thumb2/libgcc.a(libunwind.o)
___Unwind_ForcedUnwind                            /home/reymondo/CodeSourcery/Sourcery_G++_Lite/bin/../lib/gcc/arm-none-eabi/4.5.2/thumb2/libgcc.a(libunwind.o)
___Unwind_RaiseException                          /home/reymondo/CodeSourcery/Sourcery_G++_Lite/bin/../lib/gcc/arm-none-eabi/4.5.2/thumb2/libgcc.a(libunwind.o)
___Unwind_Resume                                  /home/reymondo/CodeSourcery/Sourcery_G++_Lite/bin/../lib/gcc/arm-none-eabi/4.5.2/thumb2/libgcc.a(libunwind.o)
___Unwind_Resume_or_Rethrow                       /home/reymondo/CodeSourcery/Sourcery_G++_Lite/bin/../lib/gcc/arm-none-eabi/4.5.2/thumb2/libgcc.a(libunwind.o)
__adddf3                                          /home/reymondo/CodeSourcery/Sourcery_G++_Lite/bin/../lib/gcc/arm-none-eabi/4.5.2/thumb2/libgcc.a(_arm_addsubdf3.o)
__aeabi_cdcmpeq                                   /home/reymondo/CodeSourcery/Sourcery_G++_Lite/bin/../lib/gcc/arm-none-eabi/4.5.2/thumb2/libgcc.a(_arm_cmpdf2.o)
__aeabi_cdcmple                                   /home/reymondo/CodeSourcery/Sourcery_G++_Lite/bin/../lib/gcc/arm-none-eabi/4.5.2/thumb2/libgcc.a(_arm_cmpdf2.o)
__aeabi_cdrcmple                                  /home/reymondo/CodeSourcery/Sourcery_G++_Lite/bin/../lib/gcc/arm-none-eabi/4.5.2/thumb2/libgcc.a(_arm_cmpdf2.o)
__aeabi_d2iz                                      /home/reymondo/CodeSourcery/Sourcery_G++_Lite/bin/../lib/gcc/arm-none-eabi/4.5.2/thumb2/libgcc.a(_arm_fixdfsi.o)
                                                  /home/reymondo/CodeSourcery/Sourcery_G++_Lite/bin/../lib/gcc/arm-none-eabi/4.5.2/../../../../arm-none-eabi/lib/thumb2/libc.a(lib_a-dtoa.o)
__aeabi_dadd                                      /home/reymondo/CodeSourcery/Sourcery_G++_Lite/bin/../lib/gcc/arm-none-eabi/4.5.2/thumb2/libgcc.a(_arm_addsubdf3.o)
                                                  /home/reymondo/CodeSourcery/Sourcery_G++_Lite/bin/../lib/gcc/arm-none-eabi/4.5.2/../../../../arm-none-eabi/lib/thumb2/libc.a(lib_a-dtoa.o)
__aeabi_dcmpeq                                    /home/reymondo/CodeSourcery/Sourcery_G++_Lite/bin/../lib/gcc/arm-none-eabi/4.5.2/thumb2/libgcc.a(_arm_cmpdf2.o)
                                                  /home/reymondo/CodeSourcery/Sourcery_G++_Lite/bin/../lib/gcc/arm-none-eabi/4.5.2/../../../../arm-none-eabi/lib/thumb2/libc.a(lib_a-dtoa.o)
                                                  /home/reymondo/CodeSourcery/Sourcery_G++_Lite/bin/../lib/gcc/arm-none-eabi/4.5.2/../../../../arm-none-eabi/lib/thumb2/libc.a(lib_a-svfprintf.o)
__aeabi_dcmpge                                    /home/reymondo/CodeSourcery/Sourcery_G++_Lite/bin/../lib/gcc/arm-none-eabi/4.5.2/thumb2/libgcc.a(_arm_cmpdf2.o)
                                                  /home/reymondo/CodeSourcery/Sourcery_G++_Lite/bin/../lib/gcc/arm-none-eabi/4.5.2/../../../../arm-none-eabi/lib/thumb2/libc.a(lib_a-dtoa.o)
__aeabi_dcmpgt                                    /home/reymondo/CodeSourcery/Sourcery_G++_Lite/bin/../lib/gcc/arm-none-eabi/4.5.2/thumb2/libgcc.a(_arm_cmpdf2.o)
                                                  /home/reymondo/CodeSourcery/Sourcery_G++_Lite/bin/../lib/gcc/arm-none-eabi/4.5.2/../../../../arm-none-eabi/lib/thumb2/libc.a(lib_a-dtoa.o)
__aeabi_dcmple                                    /home/reymondo/CodeSourcery/Sourcery_G++_Lite/bin/../lib/gcc/arm-none-eabi/4.5.2/thumb2/libgcc.a(_arm_cmpdf2.o)
__aeabi_dcmplt                                    /home/reymondo/CodeSourcery/Sourcery_G++_Lite/bin/../lib/gcc/arm-none-eabi/4.5.2/thumb2/libgcc.a(_arm_cmpdf2.o)
                                                  /home/reymondo/CodeSourcery/Sourcery_G++_Lite/bin/../lib/gcc/arm-none-eabi/4.5.2/../../../../arm-none-eabi/lib/thumb2/libc.a(lib_a-dtoa.o)
                                                  /home/reymondo/CodeSourcery/Sourcery_G++_Lite/bin/../lib/gcc/arm-none-eabi/4.5.2/../../../../arm-none-eabi/lib/thumb2/libc.a(lib_a-svfprintf.o)
__aeabi_ddiv                                      /home/reymondo/CodeSourcery/Sourcery_G++_Lite/bin/../lib/gcc/arm-none-eabi/4.5.2/thumb2/libgcc.a(_arm_muldivdf3.o)
                                                  /home/reymondo/CodeSourcery/Sourcery_G++_Lite/bin/../lib/gcc/arm-none-eabi/4.5.2/../../../../arm-none-eabi/lib/thumb2/libc.a(lib_a-mprec.o)
                                                  /home/reymondo/CodeSourcery/Sourcery_G++_Lite/bin/../lib/gcc/arm-none-eabi/4.5.2/../../../../arm-none-eabi/lib/thumb2/libc.a(lib_a-dtoa.o)
__aeabi_dmul                                      /home/reymondo/CodeSourcery/Sourcery_G++_Lite/bin/../lib/gcc/arm-none-eabi/4.5.2/thumb2/libgcc.a(_arm_muldivdf3.o)
                                                  /home/reymondo/CodeSourcery/Sourcery_G++_Lite/bin/../lib/gcc/arm-none-eabi/4.5.2/../../../../arm-none-eabi/lib/thumb2/libc.a(lib_a-mprec.o)
                                                  /home/reymondo/CodeSourcery/Sourcery_G++_Lite/bin/../lib/gcc/arm-none-eabi/4.5.2/../../../../arm-none-eabi/lib/thumb2/libc.a(lib_a-dtoa.o)
__aeabi_drsub                                     /home/reymondo/CodeSourcery/Sourcery_G++_Lite/bin/../lib/gcc/arm-none-eabi/4.5.2/thumb2/libgcc.a(_arm_addsubdf3.o)
__aeabi_dsub                                      /home/reymondo/CodeSourcery/Sourcery_G++_Lite/bin/../lib/gcc/arm-none-eabi/4.5.2/thumb2/libgcc.a(_arm_addsubdf3.o)
                                                  /home/reymondo/CodeSourcery/Sourcery_G++_Lite/bin/../lib/gcc/arm-none-eabi/4.5.2/../../../../arm-none-eabi/lib/thumb2/libc.a(lib_a-dtoa.o)
__aeabi_f2d                                       /home/reymondo/CodeSourcery/Sourcery_G++_Lite/bin/../lib/gcc/arm-none-eabi/4.5.2/thumb2/libgcc.a(_arm_addsubdf3.o)
__aeabi_i2d                                       /home/reymondo/CodeSourcery/Sourcery_G++_Lite/bin/../lib/gcc/arm-none-eabi/4.5.2/thumb2/libgcc.a(_arm_addsubdf3.o)
                                                  /home/reymondo/CodeSourcery/Sourcery_G++_Lite/bin/../lib/gcc/arm-none-eabi/4.5.2/../../../../arm-none-eabi/lib/thumb2/libc.a(lib_a-dtoa.o)
__aeabi_idiv0                                     /home/reymondo/CodeSourcery/Sourcery_G++_Lite/bin/../lib/gcc/arm-none-eabi/4.5.2/thumb2/libgcc.a(_dvmd_tls.o)
                                                  /home/reymondo/CodeSourcery/Sourcery_G++_Lite/bin/../lib/gcc/arm-none-eabi/4.5.2/thumb2/libgcc.a(_udivsi3.o)
__aeabi_l2d                                       /home/reymondo/CodeSourcery/Sourcery_G++_Lite/bin/../lib/gcc/arm-none-eabi/4.5.2/thumb2/libgcc.a(_arm_addsubdf3.o)
__aeabi_ldiv0                                     /home/reymondo/CodeSourcery/Sourcery_G++_Lite/bin/../lib/gcc/arm-none-eabi/4.5.2/thumb2/libgcc.a(_dvmd_tls.o)
                                                  /home/reymondo/CodeSourcery/Sourcery_G++_Lite/bin/../lib/gcc/arm-none-eabi/4.5.2/thumb2/libgcc.a(_aeabi_uldivmod.o)
__aeabi_ui2d                                      /home/reymondo/CodeSourcery/Sourcery_G++_Lite/bin/../lib/gcc/arm-none-eabi/4.5.2/thumb2/libgcc.a(_arm_addsubdf3.o)
                                                  /home/reymondo/CodeSourcery/Sourcery_G++_Lite/bin/../lib/gcc/arm-none-eabi/4.5.2/../../../../arm-none-eabi/lib/thumb2/libc.a(lib_a-dtoa.o)
__aeabi_uidiv                                     /home/reymondo/CodeSourcery/Sourcery_G++_Lite/bin/../lib/gcc/arm-none-eabi/4.5.2/thumb2/libgcc.a(_udivsi3.o)
                                                  /home/reymondo/CodeSourcery/Sourcery_G++_Lite/bin/../lib/gcc/arm-none-eabi/4.5.2/thumb2/libgcc.a(_udivdi3.o)
                                                  /home/reymondo/CodeSourcery/Sourcery_G++_Lite/bin/../lib/gcc/arm-none-eabi/4.5.2/thumb2/libgcc.a(_divdi3.o)
                                                  /home/reymondo/CodeSourcery/Sourcery_G++_Lite/bin/../lib/gcc/arm-none-eabi/4.5.2/../../../../arm-none-eabi/lib/thumb2/libc.a(lib_a-dtoa.o)
                                                  /home/reymondo/CodeSourcery/Sourcery_G++_Lite/bin/../lib/gcc/arm-none-eabi/4.5.2/../../../../arm-none-eabi/lib/thumb2/libc.a(lib_a-fwrite.o)
__aeabi_uidivmod                                  /home/reymondo/CodeSourcery/Sourcery_G++_Lite/bin/../lib/gcc/arm-none-eabi/4.5.2/thumb2/libgcc.a(_udivsi3.o)
                                                  /home/reymondo/CodeSourcery/Sourcery_G++_Lite/bin/../lib/gcc/arm-none-eabi/4.5.2/thumb2/libgcc.a(_udivdi3.o)
                                                  /home/reymondo/CodeSourcery/Sourcery_G++_Lite/bin/../lib/gcc/arm-none-eabi/4.5.2/thumb2/libgcc.a(_divdi3.o)
__aeabi_ul2d                                      /home/reymondo/CodeSourcery/Sourcery_G++_Lite/bin/../lib/gcc/arm-none-eabi/4.5.2/thumb2/libgcc.a(_arm_addsubdf3.o)
__aeabi_uldivmod                                  /home/reymondo/CodeSourcery/Sourcery_G++_Lite/bin/../lib/gcc/arm-none-eabi/4.5.2/thumb2/libgcc.a(_aeabi_uldivmod.o)
                                                  /home/reymondo/CodeSourcery/Sourcery_G++_Lite/bin/../lib/gcc/arm-none-eabi/4.5.2/../../../../arm-none-eabi/lib/thumb2/libc.a(lib_a-svfiprintf.o)
                                                  /home/reymondo/CodeSourcery/Sourcery_G++_Lite/bin/../lib/gcc/arm-none-eabi/4.5.2/../../../../arm-none-eabi/lib/thumb2/libc.a(lib_a-svfprintf.o)
__aeabi_unwind_cpp_pr0                            /home/reymondo/CodeSourcery/Sourcery_G++_Lite/bin/../lib/gcc/arm-none-eabi/4.5.2/thumb2/libgcc.a(unwind-arm.o)
                                                  /home/reymondo/CodeSourcery/Sourcery_G++_Lite/bin/../lib/gcc/arm-none-eabi/4.5.2/thumb2/libgcc.a(pr-support.o)
                                                  /home/reymondo/CodeSourcery/Sourcery_G++_Lite/bin/../lib/gcc/arm-none-eabi/4.5.2/../../../../arm-none-eabi/lib/thumb2/libstdc++.a(class_type_info.o)
                                                  /home/reymondo/CodeSourcery/Sourcery_G++_Lite/bin/../lib/gcc/arm-none-eabi/4.5.2/../../../../arm-none-eabi/lib/thumb2/libstdc++.a(si_class_type_info.o)
                                                  /home/reymondo/CodeSourcery/Sourcery_G++_Lite/bin/../lib/gcc/arm-none-eabi/4.5.2/../../../../arm-none-eabi/lib/thumb2/libstdc++.a(eh_arm.o)
                                                  /home/reymondo/CodeSourcery/Sourcery_G++_Lite/bin/../lib/gcc/arm-none-eabi/4.5.2/../../../../arm-none-eabi/lib/thumb2/libstdc++.a(eh_throw.o)
                                                  /home/reymondo/CodeSourcery/Sourcery_G++_Lite/bin/../lib/gcc/arm-none-eabi/4.5.2/../../../../arm-none-eabi/lib/thumb2/libstdc++.a(eh_personality.o)
__aeabi_unwind_cpp_pr1                            /home/reymondo/CodeSourcery/Sourcery_G++_Lite/bin/../lib/gcc/arm-none-eabi/4.5.2/thumb2/libgcc.a(unwind-arm.o)
                                                  /home/reymondo/CodeSourcery/Sourcery_G++_Lite/bin/../lib/gcc/arm-none-eabi/4.5.2/thumb2/libgcc.a(pr-support.o)
                                                  /home/reymondo/CodeSourcery/Sourcery_G++_Lite/bin/../lib/gcc/arm-none-eabi/4.5.2/../../../../arm-none-eabi/lib/thumb2/libstdc++.a(eh_terminate.o)
                                                  /home/reymondo/CodeSourcery/Sourcery_G++_Lite/bin/../lib/gcc/arm-none-eabi/4.5.2/../../../../arm-none-eabi/lib/thumb2/libstdc++.a(pure.o)
__aeabi_unwind_cpp_pr2                            /home/reymondo/CodeSourcery/Sourcery_G++_Lite/bin/../lib/gcc/arm-none-eabi/4.5.2/thumb2/libgcc.a(unwind-arm.o)
__any_on                                          /home/reymondo/CodeSourcery/Sourcery_G++_Lite/bin/../lib/gcc/arm-none-eabi/4.5.2/../../../../arm-none-eabi/lib/thumb2/libc.a(lib_a-mprec.o)
__b2d                                             /home/reymondo/CodeSourcery/Sourcery_G++_Lite/bin/../lib/gcc/arm-none-eabi/4.5.2/../../../../arm-none-eabi/lib/thumb2/libc.a(lib_a-mprec.o)
__cmpdf2                                          /home/reymondo/CodeSourcery/Sourcery_G++_Lite/bin/../lib/gcc/arm-none-eabi/4.5.2/thumb2/libgcc.a(_arm_cmpdf2.o)
__copybits                                        /home/reymondo/CodeSourcery/Sourcery_G++_Lite/bin/../lib/gcc/arm-none-eabi/4.5.2/../../../../arm-none-eabi/lib/thumb2/libc.a(lib_a-mprec.o)
__cxa_allocate_dependent_exception                /home/reymondo/CodeSourcery/Sourcery_G++_Lite/bin/../lib/gcc/arm-none-eabi/4.5.2/../../../../arm-none-eabi/lib/thumb2/libstdc++.a(eh_alloc.o)
__cxa_allocate_exception                          /home/reymondo/CodeSourcery/Sourcery_G++_Lite/bin/../lib/gcc/arm-none-eabi/4.5.2/../../../../arm-none-eabi/lib/thumb2/libstdc++.a(eh_alloc.o)
                                                  /home/reymondo/CodeSourcery/Sourcery_G++_Lite/bin/../lib/gcc/arm-none-eabi/4.5.2/../../../../arm-none-eabi/lib/thumb2/libstdc++.a(eh_call.o)
                                                  /home/reymondo/CodeSourcery/Sourcery_G++_Lite/bin/../lib/gcc/arm-none-eabi/4.5.2/../../../../arm-none-eabi/lib/thumb2/libstdc++.a(new_op.o)
__cxa_begin_catch                                 /home/reymondo/CodeSourcery/Sourcery_G++_Lite/bin/../lib/gcc/arm-none-eabi/4.5.2/../../../../arm-none-eabi/lib/thumb2/libstdc++.a(eh_catch.o)
                                                  /home/reymondo/CodeSourcery/Sourcery_G++_Lite/bin/../lib/gcc/arm-none-eabi/4.5.2/../../../../arm-none-eabi/lib/thumb2/libstdc++.a(vterminate.o)
                                                  /home/reymondo/CodeSourcery/Sourcery_G++_Lite/bin/../lib/gcc/arm-none-eabi/4.5.2/../../../../arm-none-eabi/lib/thumb2/libstdc++.a(eh_call.o)
                                                  /home/reymondo/CodeSourcery/Sourcery_G++_Lite/bin/../lib/gcc/arm-none-eabi/4.5.2/../../../../arm-none-eabi/lib/thumb2/libstdc++.a(eh_terminate.o)
                                                  /home/reymondo/CodeSourcery/Sourcery_G++_Lite/bin/../lib/gcc/arm-none-eabi/4.5.2/../../../../arm-none-eabi/lib/thumb2/libstdc++.a(eh_throw.o)
                                                  /home/reymondo/CodeSourcery/Sourcery_G++_Lite/bin/../lib/gcc/arm-none-eabi/4.5.2/../../../../arm-none-eabi/lib/thumb2/libstdc++.a(eh_personality.o)
__cxa_begin_cleanup                               /home/reymondo/CodeSourcery/Sourcery_G++_Lite/bin/../lib/gcc/arm-none-eabi/4.5.2/../../../../arm-none-eabi/lib/thumb2/libstdc++.a(eh_arm.o)
                                                  /home/reymondo/CodeSourcery/Sourcery_G++_Lite/bin/../lib/gcc/arm-none-eabi/4.5.2/thumb2/libgcc.a(unwind-arm.o)
                                                  /home/reymondo/CodeSourcery/Sourcery_G++_Lite/bin/../lib/gcc/arm-none-eabi/4.5.2/../../../../arm-none-eabi/lib/thumb2/libstdc++.a(eh_personality.o)
__cxa_call_terminate                              /home/reymondo/CodeSourcery/Sourcery_G++_Lite/bin/../lib/gcc/arm-none-eabi/4.5.2/../../../../arm-none-eabi/lib/thumb2/libstdc++.a(eh_call.o)
                                                  /home/reymondo/CodeSourcery/Sourcery_G++_Lite/bin/../lib/gcc/arm-none-eabi/4.5.2/../../../../arm-none-eabi/lib/thumb2/libstdc++.a(eh_personality.o)
__cxa_call_unexpected                             /home/reymondo/CodeSourcery/Sourcery_G++_Lite/bin/../lib/gcc/arm-none-eabi/4.5.2/../../../../arm-none-eabi/lib/thumb2/libstdc++.a(eh_call.o)
                                                  /home/reymondo/CodeSourcery/Sourcery_G++_Lite/bin/../lib/gcc/arm-none-eabi/4.5.2/thumb2/libgcc.a(unwind-arm.o)
                                                  /home/reymondo/CodeSourcery/Sourcery_G++_Lite/bin/../lib/gcc/arm-none-eabi/4.5.2/../../../../arm-none-eabi/lib/thumb2/libstdc++.a(eh_terminate.o)
                                                  /home/reymondo/CodeSourcery/Sourcery_G++_Lite/bin/../lib/gcc/arm-none-eabi/4.5.2/../../../../arm-none-eabi/lib/thumb2/libstdc++.a(eh_catch.o)
                                                  /home/reymondo/CodeSourcery/Sourcery_G++_Lite/bin/../lib/gcc/arm-none-eabi/4.5.2/../../../../arm-none-eabi/lib/thumb2/libstdc++.a(new_op.o)
__cxa_current_exception_type                      /home/reymondo/CodeSourcery/Sourcery_G++_Lite/bin/../lib/gcc/arm-none-eabi/4.5.2/../../../../arm-none-eabi/lib/thumb2/libstdc++.a(eh_type.o)
                                                  /home/reymondo/CodeSourcery/Sourcery_G++_Lite/bin/../lib/gcc/arm-none-eabi/4.5.2/../../../../arm-none-eabi/lib/thumb2/libstdc++.a(vterminate.o)
__cxa_demangle                                    /home/reymondo/CodeSourcery/Sourcery_G++_Lite/bin/../lib/gcc/arm-none-eabi/4.5.2/../../../../arm-none-eabi/lib/thumb2/libstdc++.a(cp-demangle.o)
                                                  /home/reymondo/CodeSourcery/Sourcery_G++_Lite/bin/../lib/gcc/arm-none-eabi/4.5.2/../../../../arm-none-eabi/lib/thumb2/libstdc++.a(vterminate.o)
__cxa_end_catch                                   /home/reymondo/CodeSourcery/Sourcery_G++_Lite/bin/../lib/gcc/arm-none-eabi/4.5.2/../../../../arm-none-eabi/lib/thumb2/libstdc++.a(eh_catch.o)
                                                  /home/reymondo/CodeSourcery/Sourcery_G++_Lite/bin/../lib/gcc/arm-none-eabi/4.5.2/../../../../arm-none-eabi/lib/thumb2/libstdc++.a(vterminate.o)
                                                  /home/reymondo/CodeSourcery/Sourcery_G++_Lite/bin/../lib/gcc/arm-none-eabi/4.5.2/../../../../arm-none-eabi/lib/thumb2/libstdc++.a(eh_call.o)
                                                  /home/reymondo/CodeSourcery/Sourcery_G++_Lite/bin/../lib/gcc/arm-none-eabi/4.5.2/../../../../arm-none-eabi/lib/thumb2/libstdc++.a(eh_terminate.o)
__cxa_end_cleanup                                 /home/reymondo/CodeSourcery/Sourcery_G++_Lite/bin/../lib/gcc/arm-none-eabi/4.5.2/../../../../arm-none-eabi/lib/thumb2/libstdc++.a(eh_arm.o)
                                                  /home/reymondo/CodeSourcery/Sourcery_G++_Lite/bin/../lib/gcc/arm-none-eabi/4.5.2/../../../../arm-none-eabi/lib/thumb2/libstdc++.a(vterminate.o)
                                                  /home/reymondo/CodeSourcery/Sourcery_G++_Lite/bin/../lib/gcc/arm-none-eabi/4.5.2/../../../../arm-none-eabi/lib/thumb2/libstdc++.a(eh_call.o)
                                                  /home/reymondo/CodeSourcery/Sourcery_G++_Lite/bin/../lib/gcc/arm-none-eabi/4.5.2/../../../../arm-none-eabi/lib/thumb2/libstdc++.a(eh_terminate.o)
                                                  /home/reymondo/CodeSourcery/Sourcery_G++_Lite/bin/../lib/gcc/arm-none-eabi/4.5.2/../../../../arm-none-eabi/lib/thumb2/libstdc++.a(eh_catch.o)
                                                  /home/reymondo/CodeSourcery/Sourcery_G++_Lite/bin/../lib/gcc/arm-none-eabi/4.5.2/../../../../arm-none-eabi/lib/thumb2/libstdc++.a(new_op.o)
__cxa_free_dependent_exception                    /home/reymondo/CodeSourcery/Sourcery_G++_Lite/bin/../lib/gcc/arm-none-eabi/4.5.2/../../../../arm-none-eabi/lib/thumb2/libstdc++.a(eh_alloc.o)
__cxa_free_exception                              /home/reymondo/CodeSourcery/Sourcery_G++_Lite/bin/../lib/gcc/arm-none-eabi/4.5.2/../../../../arm-none-eabi/lib/thumb2/libstdc++.a(eh_alloc.o)
                                                  /home/reymondo/CodeSourcery/Sourcery_G++_Lite/bin/../lib/gcc/arm-none-eabi/4.5.2/../../../../arm-none-eabi/lib/thumb2/libstdc++.a(eh_throw.o)
__cxa_get_exception_ptr                           /home/reymondo/CodeSourcery/Sourcery_G++_Lite/bin/../lib/gcc/arm-none-eabi/4.5.2/../../../../arm-none-eabi/lib/thumb2/libstdc++.a(eh_catch.o)
__cxa_get_globals                                 /home/reymondo/CodeSourcery/Sourcery_G++_Lite/bin/../lib/gcc/arm-none-eabi/4.5.2/../../../../arm-none-eabi/lib/thumb2/libstdc++.a(eh_globals.o)
                                                  /home/reymondo/CodeSourcery/Sourcery_G++_Lite/bin/../lib/gcc/arm-none-eabi/4.5.2/../../../../arm-none-eabi/lib/thumb2/libstdc++.a(eh_type.o)
                                                  /home/reymondo/CodeSourcery/Sourcery_G++_Lite/bin/../lib/gcc/arm-none-eabi/4.5.2/../../../../arm-none-eabi/lib/thumb2/libstdc++.a(eh_alloc.o)
                                                  /home/reymondo/CodeSourcery/Sourcery_G++_Lite/bin/../lib/gcc/arm-none-eabi/4.5.2/../../../../arm-none-eabi/lib/thumb2/libstdc++.a(eh_arm.o)
                                                  /home/reymondo/CodeSourcery/Sourcery_G++_Lite/bin/../lib/gcc/arm-none-eabi/4.5.2/../../../../arm-none-eabi/lib/thumb2/libstdc++.a(eh_catch.o)
                                                  /home/reymondo/CodeSourcery/Sourcery_G++_Lite/bin/../lib/gcc/arm-none-eabi/4.5.2/../../../../arm-none-eabi/lib/thumb2/libstdc++.a(eh_throw.o)
__cxa_get_globals_fast                            /home/reymondo/CodeSourcery/Sourcery_G++_Lite/bin/../lib/gcc/arm-none-eabi/4.5.2/../../../../arm-none-eabi/lib/thumb2/libstdc++.a(eh_globals.o)
                                                  /home/reymondo/CodeSourcery/Sourcery_G++_Lite/bin/../lib/gcc/arm-none-eabi/4.5.2/../../../../arm-none-eabi/lib/thumb2/libstdc++.a(eh_call.o)
                                                  /home/reymondo/CodeSourcery/Sourcery_G++_Lite/bin/../lib/gcc/arm-none-eabi/4.5.2/../../../../arm-none-eabi/lib/thumb2/libstdc++.a(eh_catch.o)
__cxa_pure_virtual                                /home/reymondo/CodeSourcery/Sourcery_G++_Lite/bin/../lib/gcc/arm-none-eabi/4.5.2/../../../../arm-none-eabi/lib/thumb2/libstdc++.a(pure.o)
                                                  /home/reymondo/CodeSourcery/Sourcery_G++_Lite/bin/../lib/gcc/arm-none-eabi/4.5.2/../../../../arm-none-eabi/lib/thumb2/libstdc++.a(eh_exception.o)
                                                  out/CUsartStateUsable.o
                                                  out/CUsartStateUnusable.o
                                                  out/CUsartStateRunning.o
                                                  out/main.o
__cxa_rethrow                                     /home/reymondo/CodeSourcery/Sourcery_G++_Lite/bin/../lib/gcc/arm-none-eabi/4.5.2/../../../../arm-none-eabi/lib/thumb2/libstdc++.a(eh_throw.o)
                                                  /home/reymondo/CodeSourcery/Sourcery_G++_Lite/bin/../lib/gcc/arm-none-eabi/4.5.2/../../../../arm-none-eabi/lib/thumb2/libstdc++.a(vterminate.o)
                                                  /home/reymondo/CodeSourcery/Sourcery_G++_Lite/bin/../lib/gcc/arm-none-eabi/4.5.2/../../../../arm-none-eabi/lib/thumb2/libstdc++.a(eh_call.o)
__cxa_throw                                       /home/reymondo/CodeSourcery/Sourcery_G++_Lite/bin/../lib/gcc/arm-none-eabi/4.5.2/../../../../arm-none-eabi/lib/thumb2/libstdc++.a(eh_throw.o)
                                                  /home/reymondo/CodeSourcery/Sourcery_G++_Lite/bin/../lib/gcc/arm-none-eabi/4.5.2/../../../../arm-none-eabi/lib/thumb2/libstdc++.a(eh_call.o)
                                                  /home/reymondo/CodeSourcery/Sourcery_G++_Lite/bin/../lib/gcc/arm-none-eabi/4.5.2/../../../../arm-none-eabi/lib/thumb2/libstdc++.a(new_op.o)
__cxa_type_match                                  /home/reymondo/CodeSourcery/Sourcery_G++_Lite/bin/../lib/gcc/arm-none-eabi/4.5.2/../../../../arm-none-eabi/lib/thumb2/libstdc++.a(eh_arm.o)
                                                  /home/reymondo/CodeSourcery/Sourcery_G++_Lite/bin/../lib/gcc/arm-none-eabi/4.5.2/thumb2/libgcc.a(unwind-arm.o)
                                                  /home/reymondo/CodeSourcery/Sourcery_G++_Lite/bin/../lib/gcc/arm-none-eabi/4.5.2/../../../../arm-none-eabi/lib/thumb2/libstdc++.a(eh_call.o)
                                                  /home/reymondo/CodeSourcery/Sourcery_G++_Lite/bin/../lib/gcc/arm-none-eabi/4.5.2/../../../../arm-none-eabi/lib/thumb2/libstdc++.a(eh_personality.o)
__cxxabiv1::__class_type_info::__do_catch(std::type_info const*, void**, unsigned int) const /home/reymondo/CodeSourcery/Sourcery_G++_Lite/bin/../lib/gcc/arm-none-eabi/4.5.2/../../../../arm-none-eabi/lib/thumb2/libstdc++.a(class_type_info.o)
                                                  /home/reymondo/CodeSourcery/Sourcery_G++_Lite/bin/../lib/gcc/arm-none-eabi/4.5.2/../../../../arm-none-eabi/lib/thumb2/libstdc++.a(si_class_type_info.o)
__cxxabiv1::__class_type_info::__do_dyncast(int, __cxxabiv1::__class_type_info::__sub_kind, __cxxabiv1::__class_type_info const*, void const*, __cxxabiv1::__class_type_info const*, void const*, __cxxabiv1::__class_type_info::__dyncast_result&) const /home/reymondo/CodeSourcery/Sourcery_G++_Lite/bin/../lib/gcc/arm-none-eabi/4.5.2/../../../../arm-none-eabi/lib/thumb2/libstdc++.a(class_type_info.o)
__cxxabiv1::__class_type_info::__do_find_public_src(int, void const*, __cxxabiv1::__class_type_info const*, void const*) const /home/reymondo/CodeSourcery/Sourcery_G++_Lite/bin/../lib/gcc/arm-none-eabi/4.5.2/../../../../arm-none-eabi/lib/thumb2/libstdc++.a(class_type_info.o)
__cxxabiv1::__class_type_info::__do_upcast(__cxxabiv1::__class_type_info const*, void const*, __cxxabiv1::__class_type_info::__upcast_result&) const /home/reymondo/CodeSourcery/Sourcery_G++_Lite/bin/../lib/gcc/arm-none-eabi/4.5.2/../../../../arm-none-eabi/lib/thumb2/libstdc++.a(class_type_info.o)
                                                  /home/reymondo/CodeSourcery/Sourcery_G++_Lite/bin/../lib/gcc/arm-none-eabi/4.5.2/../../../../arm-none-eabi/lib/thumb2/libstdc++.a(si_class_type_info.o)
__cxxabiv1::__class_type_info::__do_upcast(__cxxabiv1::__class_type_info const*, void**) const /home/reymondo/CodeSourcery/Sourcery_G++_Lite/bin/../lib/gcc/arm-none-eabi/4.5.2/../../../../arm-none-eabi/lib/thumb2/libstdc++.a(class_type_info.o)
                                                  /home/reymondo/CodeSourcery/Sourcery_G++_Lite/bin/../lib/gcc/arm-none-eabi/4.5.2/../../../../arm-none-eabi/lib/thumb2/libstdc++.a(si_class_type_info.o)
__cxxabiv1::__class_type_info::~__class_type_info() /home/reymondo/CodeSourcery/Sourcery_G++_Lite/bin/../lib/gcc/arm-none-eabi/4.5.2/../../../../arm-none-eabi/lib/thumb2/libstdc++.a(class_type_info.o)
__cxxabiv1::__class_type_info::~__class_type_info() /home/reymondo/CodeSourcery/Sourcery_G++_Lite/bin/../lib/gcc/arm-none-eabi/4.5.2/../../../../arm-none-eabi/lib/thumb2/libstdc++.a(class_type_info.o)
                                                  /home/reymondo/CodeSourcery/Sourcery_G++_Lite/bin/../lib/gcc/arm-none-eabi/4.5.2/../../../../arm-none-eabi/lib/thumb2/libstdc++.a(si_class_type_info.o)
__cxxabiv1::__class_type_info::~__class_type_info() /home/reymondo/CodeSourcery/Sourcery_G++_Lite/bin/../lib/gcc/arm-none-eabi/4.5.2/../../../../arm-none-eabi/lib/thumb2/libstdc++.a(class_type_info.o)
__cxxabiv1::__forced_unwind::~__forced_unwind()   /home/reymondo/CodeSourcery/Sourcery_G++_Lite/bin/../lib/gcc/arm-none-eabi/4.5.2/../../../../arm-none-eabi/lib/thumb2/libstdc++.a(eh_exception.o)
__cxxabiv1::__forced_unwind::~__forced_unwind()   /home/reymondo/CodeSourcery/Sourcery_G++_Lite/bin/../lib/gcc/arm-none-eabi/4.5.2/../../../../arm-none-eabi/lib/thumb2/libstdc++.a(eh_exception.o)
__cxxabiv1::__forced_unwind::~__forced_unwind()   /home/reymondo/CodeSourcery/Sourcery_G++_Lite/bin/../lib/gcc/arm-none-eabi/4.5.2/../../../../arm-none-eabi/lib/thumb2/libstdc++.a(eh_exception.o)
__cxxabiv1::__foreign_exception::~__foreign_exception() /home/reymondo/CodeSourcery/Sourcery_G++_Lite/bin/../lib/gcc/arm-none-eabi/4.5.2/../../../../arm-none-eabi/lib/thumb2/libstdc++.a(eh_exception.o)
__cxxabiv1::__foreign_exception::~__foreign_exception() /home/reymondo/CodeSourcery/Sourcery_G++_Lite/bin/../lib/gcc/arm-none-eabi/4.5.2/../../../../arm-none-eabi/lib/thumb2/libstdc++.a(eh_exception.o)
__cxxabiv1::__foreign_exception::~__foreign_exception() /home/reymondo/CodeSourcery/Sourcery_G++_Lite/bin/../lib/gcc/arm-none-eabi/4.5.2/../../../../arm-none-eabi/lib/thumb2/libstdc++.a(eh_exception.o)
__cxxabiv1::__si_class_type_info::__do_dyncast(int, __cxxabiv1::__class_type_info::__sub_kind, __cxxabiv1::__class_type_info const*, void const*, __cxxabiv1::__class_type_info const*, void const*, __cxxabiv1::__class_type_info::__dyncast_result&) const /home/reymondo/CodeSourcery/Sourcery_G++_Lite/bin/../lib/gcc/arm-none-eabi/4.5.2/../../../../arm-none-eabi/lib/thumb2/libstdc++.a(si_class_type_info.o)
__cxxabiv1::__si_class_type_info::__do_find_public_src(int, void const*, __cxxabiv1::__class_type_info const*, void const*) const /home/reymondo/CodeSourcery/Sourcery_G++_Lite/bin/../lib/gcc/arm-none-eabi/4.5.2/../../../../arm-none-eabi/lib/thumb2/libstdc++.a(si_class_type_info.o)
__cxxabiv1::__si_class_type_info::__do_upcast(__cxxabiv1::__class_type_info const*, void const*, __cxxabiv1::__class_type_info::__upcast_result&) const /home/reymondo/CodeSourcery/Sourcery_G++_Lite/bin/../lib/gcc/arm-none-eabi/4.5.2/../../../../arm-none-eabi/lib/thumb2/libstdc++.a(si_class_type_info.o)
__cxxabiv1::__si_class_type_info::~__si_class_type_info() /home/reymondo/CodeSourcery/Sourcery_G++_Lite/bin/../lib/gcc/arm-none-eabi/4.5.2/../../../../arm-none-eabi/lib/thumb2/libstdc++.a(si_class_type_info.o)
__cxxabiv1::__si_class_type_info::~__si_class_type_info() /home/reymondo/CodeSourcery/Sourcery_G++_Lite/bin/../lib/gcc/arm-none-eabi/4.5.2/../../../../arm-none-eabi/lib/thumb2/libstdc++.a(si_class_type_info.o)
__cxxabiv1::__si_class_type_info::~__si_class_type_info() /home/reymondo/CodeSourcery/Sourcery_G++_Lite/bin/../lib/gcc/arm-none-eabi/4.5.2/../../../../arm-none-eabi/lib/thumb2/libstdc++.a(si_class_type_info.o)
__cxxabiv1::__terminate(void (*)())               /home/reymondo/CodeSourcery/Sourcery_G++_Lite/bin/../lib/gcc/arm-none-eabi/4.5.2/../../../../arm-none-eabi/lib/thumb2/libstdc++.a(eh_terminate.o)
                                                  /home/reymondo/CodeSourcery/Sourcery_G++_Lite/bin/../lib/gcc/arm-none-eabi/4.5.2/../../../../arm-none-eabi/lib/thumb2/libstdc++.a(eh_call.o)
                                                  /home/reymondo/CodeSourcery/Sourcery_G++_Lite/bin/../lib/gcc/arm-none-eabi/4.5.2/../../../../arm-none-eabi/lib/thumb2/libstdc++.a(eh_throw.o)
__cxxabiv1::__terminate_handler                   /home/reymondo/CodeSourcery/Sourcery_G++_Lite/bin/../lib/gcc/arm-none-eabi/4.5.2/../../../../arm-none-eabi/lib/thumb2/libstdc++.a(eh_term_handler.o)
                                                  /home/reymondo/CodeSourcery/Sourcery_G++_Lite/bin/../lib/gcc/arm-none-eabi/4.5.2/../../../../arm-none-eabi/lib/thumb2/libstdc++.a(eh_terminate.o)
                                                  /home/reymondo/CodeSourcery/Sourcery_G++_Lite/bin/../lib/gcc/arm-none-eabi/4.5.2/../../../../arm-none-eabi/lib/thumb2/libstdc++.a(eh_throw.o)
__cxxabiv1::__unexpected(void (*)())              /home/reymondo/CodeSourcery/Sourcery_G++_Lite/bin/../lib/gcc/arm-none-eabi/4.5.2/../../../../arm-none-eabi/lib/thumb2/libstdc++.a(eh_terminate.o)
                                                  /home/reymondo/CodeSourcery/Sourcery_G++_Lite/bin/../lib/gcc/arm-none-eabi/4.5.2/../../../../arm-none-eabi/lib/thumb2/libstdc++.a(eh_call.o)
__cxxabiv1::__unexpected_handler                  /home/reymondo/CodeSourcery/Sourcery_G++_Lite/bin/../lib/gcc/arm-none-eabi/4.5.2/../../../../arm-none-eabi/lib/thumb2/libstdc++.a(eh_unex_handler.o)
                                                  /home/reymondo/CodeSourcery/Sourcery_G++_Lite/bin/../lib/gcc/arm-none-eabi/4.5.2/../../../../arm-none-eabi/lib/thumb2/libstdc++.a(eh_terminate.o)
                                                  /home/reymondo/CodeSourcery/Sourcery_G++_Lite/bin/../lib/gcc/arm-none-eabi/4.5.2/../../../../arm-none-eabi/lib/thumb2/libstdc++.a(eh_throw.o)
__d2b                                             /home/reymondo/CodeSourcery/Sourcery_G++_Lite/bin/../lib/gcc/arm-none-eabi/4.5.2/../../../../arm-none-eabi/lib/thumb2/libc.a(lib_a-mprec.o)
                                                  /home/reymondo/CodeSourcery/Sourcery_G++_Lite/bin/../lib/gcc/arm-none-eabi/4.5.2/../../../../arm-none-eabi/lib/thumb2/libc.a(lib_a-dtoa.o)
__divdf3                                          /home/reymondo/CodeSourcery/Sourcery_G++_Lite/bin/../lib/gcc/arm-none-eabi/4.5.2/thumb2/libgcc.a(_arm_muldivdf3.o)
__divdi3                                          /home/reymondo/CodeSourcery/Sourcery_G++_Lite/bin/../lib/gcc/arm-none-eabi/4.5.2/thumb2/libgcc.a(_divdi3.o)
                                                  /home/reymondo/CodeSourcery/Sourcery_G++_Lite/bin/../lib/gcc/arm-none-eabi/4.5.2/thumb2/libgcc.a(bpabi.o)
__dso_handle                                      /home/reymondo/CodeSourcery/Sourcery_G++_Lite/bin/../lib/gcc/arm-none-eabi/4.5.2/thumb2/crtbegin.o
__eqdf2                                           /home/reymondo/CodeSourcery/Sourcery_G++_Lite/bin/../lib/gcc/arm-none-eabi/4.5.2/thumb2/libgcc.a(_arm_cmpdf2.o)
__exidx_end                                       /home/reymondo/CodeSourcery/Sourcery_G++_Lite/bin/../lib/gcc/arm-none-eabi/4.5.2/thumb2/libgcc.a(unwind-arm.o)
__exidx_start                                     /home/reymondo/CodeSourcery/Sourcery_G++_Lite/bin/../lib/gcc/arm-none-eabi/4.5.2/thumb2/libgcc.a(unwind-arm.o)
__extendsfdf2                                     /home/reymondo/CodeSourcery/Sourcery_G++_Lite/bin/../lib/gcc/arm-none-eabi/4.5.2/thumb2/libgcc.a(_arm_addsubdf3.o)
__fixdfsi                                         /home/reymondo/CodeSourcery/Sourcery_G++_Lite/bin/../lib/gcc/arm-none-eabi/4.5.2/thumb2/libgcc.a(_arm_fixdfsi.o)
__floatdidf                                       /home/reymondo/CodeSourcery/Sourcery_G++_Lite/bin/../lib/gcc/arm-none-eabi/4.5.2/thumb2/libgcc.a(_arm_addsubdf3.o)
__floatsidf                                       /home/reymondo/CodeSourcery/Sourcery_G++_Lite/bin/../lib/gcc/arm-none-eabi/4.5.2/thumb2/libgcc.a(_arm_addsubdf3.o)
__floatundidf                                     /home/reymondo/CodeSourcery/Sourcery_G++_Lite/bin/../lib/gcc/arm-none-eabi/4.5.2/thumb2/libgcc.a(_arm_addsubdf3.o)
__floatunsidf                                     /home/reymondo/CodeSourcery/Sourcery_G++_Lite/bin/../lib/gcc/arm-none-eabi/4.5.2/thumb2/libgcc.a(_arm_addsubdf3.o)
__fp_lock_all                                     /home/reymondo/CodeSourcery/Sourcery_G++_Lite/bin/../lib/gcc/arm-none-eabi/4.5.2/../../../../arm-none-eabi/lib/thumb2/libc.a(lib_a-findfp.o)
__fp_unlock_all                                   /home/reymondo/CodeSourcery/Sourcery_G++_Lite/bin/../lib/gcc/arm-none-eabi/4.5.2/../../../../arm-none-eabi/lib/thumb2/libc.a(lib_a-findfp.o)
__fpclassifyd                                     /home/reymondo/CodeSourcery/Sourcery_G++_Lite/bin/../lib/gcc/arm-none-eabi/4.5.2/../../../../arm-none-eabi/lib/thumb2/libc.a(lib_a-s_fpclassify.o)
                                                  /home/reymondo/CodeSourcery/Sourcery_G++_Lite/bin/../lib/gcc/arm-none-eabi/4.5.2/../../../../arm-none-eabi/lib/thumb2/libc.a(lib_a-svfprintf.o)
__gcclibcxx_demangle_callback                     /home/reymondo/CodeSourcery/Sourcery_G++_Lite/bin/../lib/gcc/arm-none-eabi/4.5.2/../../../../arm-none-eabi/lib/thumb2/libstdc++.a(cp-demangle.o)
__gedf2                                           /home/reymondo/CodeSourcery/Sourcery_G++_Lite/bin/../lib/gcc/arm-none-eabi/4.5.2/thumb2/libgcc.a(_arm_cmpdf2.o)
__get_BASEPRI                                     out/core_cm3.o
__get_CONTROL                                     out/core_cm3.o
__get_FAULTMASK                                   out/core_cm3.o
__get_MSP                                         out/core_cm3.o
__get_PRIMASK                                     out/core_cm3.o
__get_PSP                                         out/core_cm3.o
__gnu_Unwind_Backtrace                            /home/reymondo/CodeSourcery/Sourcery_G++_Lite/bin/../lib/gcc/arm-none-eabi/4.5.2/thumb2/libgcc.a(unwind-arm.o)
                                                  /home/reymondo/CodeSourcery/Sourcery_G++_Lite/bin/../lib/gcc/arm-none-eabi/4.5.2/thumb2/libgcc.a(libunwind.o)
__gnu_Unwind_Find_exidx                           /home/reymondo/CodeSourcery/Sourcery_G++_Lite/bin/../lib/gcc/arm-none-eabi/4.5.2/thumb2/libgcc.a(unwind-arm.o)
__gnu_Unwind_ForcedUnwind                         /home/reymondo/CodeSourcery/Sourcery_G++_Lite/bin/../lib/gcc/arm-none-eabi/4.5.2/thumb2/libgcc.a(unwind-arm.o)
                                                  /home/reymondo/CodeSourcery/Sourcery_G++_Lite/bin/../lib/gcc/arm-none-eabi/4.5.2/thumb2/libgcc.a(libunwind.o)
__gnu_Unwind_RaiseException                       /home/reymondo/CodeSourcery/Sourcery_G++_Lite/bin/../lib/gcc/arm-none-eabi/4.5.2/thumb2/libgcc.a(unwind-arm.o)
                                                  /home/reymondo/CodeSourcery/Sourcery_G++_Lite/bin/../lib/gcc/arm-none-eabi/4.5.2/thumb2/libgcc.a(libunwind.o)
__gnu_Unwind_Restore_VFP                          /home/reymondo/CodeSourcery/Sourcery_G++_Lite/bin/../lib/gcc/arm-none-eabi/4.5.2/thumb2/libgcc.a(libunwind.o)
                                                  /home/reymondo/CodeSourcery/Sourcery_G++_Lite/bin/../lib/gcc/arm-none-eabi/4.5.2/thumb2/libgcc.a(unwind-arm.o)
__gnu_Unwind_Restore_VFP_D                        /home/reymondo/CodeSourcery/Sourcery_G++_Lite/bin/../lib/gcc/arm-none-eabi/4.5.2/thumb2/libgcc.a(libunwind.o)
                                                  /home/reymondo/CodeSourcery/Sourcery_G++_Lite/bin/../lib/gcc/arm-none-eabi/4.5.2/thumb2/libgcc.a(unwind-arm.o)
__gnu_Unwind_Restore_VFP_D_16_to_31               /home/reymondo/CodeSourcery/Sourcery_G++_Lite/bin/../lib/gcc/arm-none-eabi/4.5.2/thumb2/libgcc.a(libunwind.o)
                                                  /home/reymondo/CodeSourcery/Sourcery_G++_Lite/bin/../lib/gcc/arm-none-eabi/4.5.2/thumb2/libgcc.a(unwind-arm.o)
__gnu_Unwind_Restore_WMMXC                        /home/reymondo/CodeSourcery/Sourcery_G++_Lite/bin/../lib/gcc/arm-none-eabi/4.5.2/thumb2/libgcc.a(libunwind.o)
                                                  /home/reymondo/CodeSourcery/Sourcery_G++_Lite/bin/../lib/gcc/arm-none-eabi/4.5.2/thumb2/libgcc.a(unwind-arm.o)
__gnu_Unwind_Restore_WMMXD                        /home/reymondo/CodeSourcery/Sourcery_G++_Lite/bin/../lib/gcc/arm-none-eabi/4.5.2/thumb2/libgcc.a(libunwind.o)
                                                  /home/reymondo/CodeSourcery/Sourcery_G++_Lite/bin/../lib/gcc/arm-none-eabi/4.5.2/thumb2/libgcc.a(unwind-arm.o)
__gnu_Unwind_Resume                               /home/reymondo/CodeSourcery/Sourcery_G++_Lite/bin/../lib/gcc/arm-none-eabi/4.5.2/thumb2/libgcc.a(unwind-arm.o)
                                                  /home/reymondo/CodeSourcery/Sourcery_G++_Lite/bin/../lib/gcc/arm-none-eabi/4.5.2/thumb2/libgcc.a(libunwind.o)
__gnu_Unwind_Resume_or_Rethrow                    /home/reymondo/CodeSourcery/Sourcery_G++_Lite/bin/../lib/gcc/arm-none-eabi/4.5.2/thumb2/libgcc.a(unwind-arm.o)
                                                  /home/reymondo/CodeSourcery/Sourcery_G++_Lite/bin/../lib/gcc/arm-none-eabi/4.5.2/thumb2/libgcc.a(libunwind.o)
__gnu_Unwind_Save_VFP                             /home/reymondo/CodeSourcery/Sourcery_G++_Lite/bin/../lib/gcc/arm-none-eabi/4.5.2/thumb2/libgcc.a(libunwind.o)
                                                  /home/reymondo/CodeSourcery/Sourcery_G++_Lite/bin/../lib/gcc/arm-none-eabi/4.5.2/thumb2/libgcc.a(unwind-arm.o)
__gnu_Unwind_Save_VFP_D                           /home/reymondo/CodeSourcery/Sourcery_G++_Lite/bin/../lib/gcc/arm-none-eabi/4.5.2/thumb2/libgcc.a(libunwind.o)
                                                  /home/reymondo/CodeSourcery/Sourcery_G++_Lite/bin/../lib/gcc/arm-none-eabi/4.5.2/thumb2/libgcc.a(unwind-arm.o)
__gnu_Unwind_Save_VFP_D_16_to_31                  /home/reymondo/CodeSourcery/Sourcery_G++_Lite/bin/../lib/gcc/arm-none-eabi/4.5.2/thumb2/libgcc.a(libunwind.o)
                                                  /home/reymondo/CodeSourcery/Sourcery_G++_Lite/bin/../lib/gcc/arm-none-eabi/4.5.2/thumb2/libgcc.a(unwind-arm.o)
__gnu_Unwind_Save_WMMXC                           /home/reymondo/CodeSourcery/Sourcery_G++_Lite/bin/../lib/gcc/arm-none-eabi/4.5.2/thumb2/libgcc.a(libunwind.o)
                                                  /home/reymondo/CodeSourcery/Sourcery_G++_Lite/bin/../lib/gcc/arm-none-eabi/4.5.2/thumb2/libgcc.a(unwind-arm.o)
__gnu_Unwind_Save_WMMXD                           /home/reymondo/CodeSourcery/Sourcery_G++_Lite/bin/../lib/gcc/arm-none-eabi/4.5.2/thumb2/libgcc.a(libunwind.o)
                                                  /home/reymondo/CodeSourcery/Sourcery_G++_Lite/bin/../lib/gcc/arm-none-eabi/4.5.2/thumb2/libgcc.a(unwind-arm.o)
__gnu_cxx::__verbose_terminate_handler()          /home/reymondo/CodeSourcery/Sourcery_G++_Lite/bin/../lib/gcc/arm-none-eabi/4.5.2/../../../../arm-none-eabi/lib/thumb2/libstdc++.a(vterminate.o)
                                                  /home/reymondo/CodeSourcery/Sourcery_G++_Lite/bin/../lib/gcc/arm-none-eabi/4.5.2/../../../../arm-none-eabi/lib/thumb2/libstdc++.a(eh_term_handler.o)
__gnu_end_cleanup                                 /home/reymondo/CodeSourcery/Sourcery_G++_Lite/bin/../lib/gcc/arm-none-eabi/4.5.2/../../../../arm-none-eabi/lib/thumb2/libstdc++.a(eh_arm.o)
__gnu_ldivmod_helper                              /home/reymondo/CodeSourcery/Sourcery_G++_Lite/bin/../lib/gcc/arm-none-eabi/4.5.2/thumb2/libgcc.a(bpabi.o)
__gnu_uldivmod_helper                             /home/reymondo/CodeSourcery/Sourcery_G++_Lite/bin/../lib/gcc/arm-none-eabi/4.5.2/thumb2/libgcc.a(bpabi.o)
                                                  /home/reymondo/CodeSourcery/Sourcery_G++_Lite/bin/../lib/gcc/arm-none-eabi/4.5.2/thumb2/libgcc.a(_aeabi_uldivmod.o)
__gnu_unwind_execute                              /home/reymondo/CodeSourcery/Sourcery_G++_Lite/bin/../lib/gcc/arm-none-eabi/4.5.2/thumb2/libgcc.a(pr-support.o)
                                                  /home/reymondo/CodeSourcery/Sourcery_G++_Lite/bin/../lib/gcc/arm-none-eabi/4.5.2/thumb2/libgcc.a(unwind-arm.o)
__gnu_unwind_frame                                /home/reymondo/CodeSourcery/Sourcery_G++_Lite/bin/../lib/gcc/arm-none-eabi/4.5.2/thumb2/libgcc.a(pr-support.o)
                                                  /home/reymondo/CodeSourcery/Sourcery_G++_Lite/bin/../lib/gcc/arm-none-eabi/4.5.2/../../../../arm-none-eabi/lib/thumb2/libstdc++.a(eh_personality.o)
__gtdf2                                           /home/reymondo/CodeSourcery/Sourcery_G++_Lite/bin/../lib/gcc/arm-none-eabi/4.5.2/thumb2/libgcc.a(_arm_cmpdf2.o)
__gxx_personality_v0                              /home/reymondo/CodeSourcery/Sourcery_G++_Lite/bin/../lib/gcc/arm-none-eabi/4.5.2/../../../../arm-none-eabi/lib/thumb2/libstdc++.a(eh_personality.o)
                                                  /home/reymondo/CodeSourcery/Sourcery_G++_Lite/bin/../lib/gcc/arm-none-eabi/4.5.2/../../../../arm-none-eabi/lib/thumb2/libstdc++.a(vterminate.o)
                                                  /home/reymondo/CodeSourcery/Sourcery_G++_Lite/bin/../lib/gcc/arm-none-eabi/4.5.2/../../../../arm-none-eabi/lib/thumb2/libstdc++.a(eh_call.o)
                                                  /home/reymondo/CodeSourcery/Sourcery_G++_Lite/bin/../lib/gcc/arm-none-eabi/4.5.2/../../../../arm-none-eabi/lib/thumb2/libstdc++.a(eh_terminate.o)
                                                  /home/reymondo/CodeSourcery/Sourcery_G++_Lite/bin/../lib/gcc/arm-none-eabi/4.5.2/../../../../arm-none-eabi/lib/thumb2/libstdc++.a(eh_catch.o)
                                                  /home/reymondo/CodeSourcery/Sourcery_G++_Lite/bin/../lib/gcc/arm-none-eabi/4.5.2/../../../../arm-none-eabi/lib/thumb2/libstdc++.a(new_op.o)
__heap_end                                        out/syscalls.o
__heap_start                                      out/syscalls.o
__hi0bits                                         /home/reymondo/CodeSourcery/Sourcery_G++_Lite/bin/../lib/gcc/arm-none-eabi/4.5.2/../../../../arm-none-eabi/lib/thumb2/libc.a(lib_a-mprec.o)
                                                  /home/reymondo/CodeSourcery/Sourcery_G++_Lite/bin/../lib/gcc/arm-none-eabi/4.5.2/../../../../arm-none-eabi/lib/thumb2/libc.a(lib_a-dtoa.o)
__i2b                                             /home/reymondo/CodeSourcery/Sourcery_G++_Lite/bin/../lib/gcc/arm-none-eabi/4.5.2/../../../../arm-none-eabi/lib/thumb2/libc.a(lib_a-mprec.o)
                                                  /home/reymondo/CodeSourcery/Sourcery_G++_Lite/bin/../lib/gcc/arm-none-eabi/4.5.2/../../../../arm-none-eabi/lib/thumb2/libc.a(lib_a-dtoa.o)
__ledf2                                           /home/reymondo/CodeSourcery/Sourcery_G++_Lite/bin/../lib/gcc/arm-none-eabi/4.5.2/thumb2/libgcc.a(_arm_cmpdf2.o)
__lo0bits                                         /home/reymondo/CodeSourcery/Sourcery_G++_Lite/bin/../lib/gcc/arm-none-eabi/4.5.2/../../../../arm-none-eabi/lib/thumb2/libc.a(lib_a-mprec.o)
__locale_charset                                  /home/reymondo/CodeSourcery/Sourcery_G++_Lite/bin/../lib/gcc/arm-none-eabi/4.5.2/../../../../arm-none-eabi/lib/thumb2/libc.a(lib_a-locale.o)
__locale_cjk_lang                                 /home/reymondo/CodeSourcery/Sourcery_G++_Lite/bin/../lib/gcc/arm-none-eabi/4.5.2/../../../../arm-none-eabi/lib/thumb2/libc.a(lib_a-locale.o)
__locale_mb_cur_max                               /home/reymondo/CodeSourcery/Sourcery_G++_Lite/bin/../lib/gcc/arm-none-eabi/4.5.2/../../../../arm-none-eabi/lib/thumb2/libc.a(lib_a-locale.o)
__locale_msgcharset                               /home/reymondo/CodeSourcery/Sourcery_G++_Lite/bin/../lib/gcc/arm-none-eabi/4.5.2/../../../../arm-none-eabi/lib/thumb2/libc.a(lib_a-locale.o)
__lshift                                          /home/reymondo/CodeSourcery/Sourcery_G++_Lite/bin/../lib/gcc/arm-none-eabi/4.5.2/../../../../arm-none-eabi/lib/thumb2/libc.a(lib_a-mprec.o)
                                                  /home/reymondo/CodeSourcery/Sourcery_G++_Lite/bin/../lib/gcc/arm-none-eabi/4.5.2/../../../../arm-none-eabi/lib/thumb2/libc.a(lib_a-dtoa.o)
__ltdf2                                           /home/reymondo/CodeSourcery/Sourcery_G++_Lite/bin/../lib/gcc/arm-none-eabi/4.5.2/thumb2/libgcc.a(_arm_cmpdf2.o)
__main_stack_end                                  out/vectors.o
__malloc_av_                                      /home/reymondo/CodeSourcery/Sourcery_G++_Lite/bin/../lib/gcc/arm-none-eabi/4.5.2/../../../../arm-none-eabi/lib/thumb2/libc.a(lib_a-mallocr.o)
                                                  /home/reymondo/CodeSourcery/Sourcery_G++_Lite/bin/../lib/gcc/arm-none-eabi/4.5.2/../../../../arm-none-eabi/lib/thumb2/libc.a(lib_a-freer.o)
                                                  /home/reymondo/CodeSourcery/Sourcery_G++_Lite/bin/../lib/gcc/arm-none-eabi/4.5.2/../../../../arm-none-eabi/lib/thumb2/libc.a(lib_a-reallocr.o)
__malloc_current_mallinfo                         /home/reymondo/CodeSourcery/Sourcery_G++_Lite/bin/../lib/gcc/arm-none-eabi/4.5.2/../../../../arm-none-eabi/lib/thumb2/libc.a(lib_a-mallocr.o)
                                                  /home/reymondo/CodeSourcery/Sourcery_G++_Lite/bin/../lib/gcc/arm-none-eabi/4.5.2/../../../../arm-none-eabi/lib/thumb2/libc.a(lib_a-freer.o)
__malloc_lock                                     /home/reymondo/CodeSourcery/Sourcery_G++_Lite/bin/../lib/gcc/arm-none-eabi/4.5.2/../../../../arm-none-eabi/lib/thumb2/libc.a(lib_a-mlock.o)
                                                  /home/reymondo/CodeSourcery/Sourcery_G++_Lite/bin/../lib/gcc/arm-none-eabi/4.5.2/../../../../arm-none-eabi/lib/thumb2/libc.a(lib_a-freer.o)
                                                  /home/reymondo/CodeSourcery/Sourcery_G++_Lite/bin/../lib/gcc/arm-none-eabi/4.5.2/../../../../arm-none-eabi/lib/thumb2/libc.a(lib_a-reallocr.o)
                                                  /home/reymondo/CodeSourcery/Sourcery_G++_Lite/bin/../lib/gcc/arm-none-eabi/4.5.2/../../../../arm-none-eabi/lib/thumb2/libc.a(lib_a-mallocr.o)
__malloc_max_sbrked_mem                           /home/reymondo/CodeSourcery/Sourcery_G++_Lite/bin/../lib/gcc/arm-none-eabi/4.5.2/../../../../arm-none-eabi/lib/thumb2/libc.a(lib_a-mallocr.o)
__malloc_max_total_mem                            /home/reymondo/CodeSourcery/Sourcery_G++_Lite/bin/../lib/gcc/arm-none-eabi/4.5.2/../../../../arm-none-eabi/lib/thumb2/libc.a(lib_a-mallocr.o)
__malloc_sbrk_base                                /home/reymondo/CodeSourcery/Sourcery_G++_Lite/bin/../lib/gcc/arm-none-eabi/4.5.2/../../../../arm-none-eabi/lib/thumb2/libc.a(lib_a-mallocr.o)
                                                  /home/reymondo/CodeSourcery/Sourcery_G++_Lite/bin/../lib/gcc/arm-none-eabi/4.5.2/../../../../arm-none-eabi/lib/thumb2/libc.a(lib_a-freer.o)
__malloc_top_pad                                  /home/reymondo/CodeSourcery/Sourcery_G++_Lite/bin/../lib/gcc/arm-none-eabi/4.5.2/../../../../arm-none-eabi/lib/thumb2/libc.a(lib_a-mallocr.o)
                                                  /home/reymondo/CodeSourcery/Sourcery_G++_Lite/bin/../lib/gcc/arm-none-eabi/4.5.2/../../../../arm-none-eabi/lib/thumb2/libc.a(lib_a-freer.o)
__malloc_trim_threshold                           /home/reymondo/CodeSourcery/Sourcery_G++_Lite/bin/../lib/gcc/arm-none-eabi/4.5.2/../../../../arm-none-eabi/lib/thumb2/libc.a(lib_a-mallocr.o)
                                                  /home/reymondo/CodeSourcery/Sourcery_G++_Lite/bin/../lib/gcc/arm-none-eabi/4.5.2/../../../../arm-none-eabi/lib/thumb2/libc.a(lib_a-freer.o)
__malloc_unlock                                   /home/reymondo/CodeSourcery/Sourcery_G++_Lite/bin/../lib/gcc/arm-none-eabi/4.5.2/../../../../arm-none-eabi/lib/thumb2/libc.a(lib_a-mlock.o)
                                                  /home/reymondo/CodeSourcery/Sourcery_G++_Lite/bin/../lib/gcc/arm-none-eabi/4.5.2/../../../../arm-none-eabi/lib/thumb2/libc.a(lib_a-freer.o)
                                                  /home/reymondo/CodeSourcery/Sourcery_G++_Lite/bin/../lib/gcc/arm-none-eabi/4.5.2/../../../../arm-none-eabi/lib/thumb2/libc.a(lib_a-reallocr.o)
                                                  /home/reymondo/CodeSourcery/Sourcery_G++_Lite/bin/../lib/gcc/arm-none-eabi/4.5.2/../../../../arm-none-eabi/lib/thumb2/libc.a(lib_a-mallocr.o)
__mb_cur_max                                      /home/reymondo/CodeSourcery/Sourcery_G++_Lite/bin/../lib/gcc/arm-none-eabi/4.5.2/../../../../arm-none-eabi/lib/thumb2/libc.a(lib_a-locale.o)
__mcmp                                            /home/reymondo/CodeSourcery/Sourcery_G++_Lite/bin/../lib/gcc/arm-none-eabi/4.5.2/../../../../arm-none-eabi/lib/thumb2/libc.a(lib_a-mprec.o)
                                                  /home/reymondo/CodeSourcery/Sourcery_G++_Lite/bin/../lib/gcc/arm-none-eabi/4.5.2/../../../../arm-none-eabi/lib/thumb2/libc.a(lib_a-dtoa.o)
__mdiff                                           /home/reymondo/CodeSourcery/Sourcery_G++_Lite/bin/../lib/gcc/arm-none-eabi/4.5.2/../../../../arm-none-eabi/lib/thumb2/libc.a(lib_a-mprec.o)
                                                  /home/reymondo/CodeSourcery/Sourcery_G++_Lite/bin/../lib/gcc/arm-none-eabi/4.5.2/../../../../arm-none-eabi/lib/thumb2/libc.a(lib_a-dtoa.o)
__mlocale_changed                                 /home/reymondo/CodeSourcery/Sourcery_G++_Lite/bin/../lib/gcc/arm-none-eabi/4.5.2/../../../../arm-none-eabi/lib/thumb2/libc.a(lib_a-locale.o)
__mprec_bigtens                                   /home/reymondo/CodeSourcery/Sourcery_G++_Lite/bin/../lib/gcc/arm-none-eabi/4.5.2/../../../../arm-none-eabi/lib/thumb2/libc.a(lib_a-mprec.o)
                                                  /home/reymondo/CodeSourcery/Sourcery_G++_Lite/bin/../lib/gcc/arm-none-eabi/4.5.2/../../../../arm-none-eabi/lib/thumb2/libc.a(lib_a-dtoa.o)
__mprec_tens                                      /home/reymondo/CodeSourcery/Sourcery_G++_Lite/bin/../lib/gcc/arm-none-eabi/4.5.2/../../../../arm-none-eabi/lib/thumb2/libc.a(lib_a-mprec.o)
                                                  /home/reymondo/CodeSourcery/Sourcery_G++_Lite/bin/../lib/gcc/arm-none-eabi/4.5.2/../../../../arm-none-eabi/lib/thumb2/libc.a(lib_a-dtoa.o)
__mprec_tinytens                                  /home/reymondo/CodeSourcery/Sourcery_G++_Lite/bin/../lib/gcc/arm-none-eabi/4.5.2/../../../../arm-none-eabi/lib/thumb2/libc.a(lib_a-mprec.o)
__muldf3                                          /home/reymondo/CodeSourcery/Sourcery_G++_Lite/bin/../lib/gcc/arm-none-eabi/4.5.2/thumb2/libgcc.a(_arm_muldivdf3.o)
__multadd                                         /home/reymondo/CodeSourcery/Sourcery_G++_Lite/bin/../lib/gcc/arm-none-eabi/4.5.2/../../../../arm-none-eabi/lib/thumb2/libc.a(lib_a-mprec.o)
                                                  /home/reymondo/CodeSourcery/Sourcery_G++_Lite/bin/../lib/gcc/arm-none-eabi/4.5.2/../../../../arm-none-eabi/lib/thumb2/libc.a(lib_a-dtoa.o)
__multiply                                        /home/reymondo/CodeSourcery/Sourcery_G++_Lite/bin/../lib/gcc/arm-none-eabi/4.5.2/../../../../arm-none-eabi/lib/thumb2/libc.a(lib_a-mprec.o)
                                                  /home/reymondo/CodeSourcery/Sourcery_G++_Lite/bin/../lib/gcc/arm-none-eabi/4.5.2/../../../../arm-none-eabi/lib/thumb2/libc.a(lib_a-dtoa.o)
__nedf2                                           /home/reymondo/CodeSourcery/Sourcery_G++_Lite/bin/../lib/gcc/arm-none-eabi/4.5.2/thumb2/libgcc.a(_arm_cmpdf2.o)
__new_handler                                     /home/reymondo/CodeSourcery/Sourcery_G++_Lite/bin/../lib/gcc/arm-none-eabi/4.5.2/../../../../arm-none-eabi/lib/thumb2/libstdc++.a(new_handler.o)
                                                  /home/reymondo/CodeSourcery/Sourcery_G++_Lite/bin/../lib/gcc/arm-none-eabi/4.5.2/../../../../arm-none-eabi/lib/thumb2/libstdc++.a(new_op.o)
__nlocale_changed                                 /home/reymondo/CodeSourcery/Sourcery_G++_Lite/bin/../lib/gcc/arm-none-eabi/4.5.2/../../../../arm-none-eabi/lib/thumb2/libc.a(lib_a-locale.o)
__pow5mult                                        /home/reymondo/CodeSourcery/Sourcery_G++_Lite/bin/../lib/gcc/arm-none-eabi/4.5.2/../../../../arm-none-eabi/lib/thumb2/libc.a(lib_a-mprec.o)
                                                  /home/reymondo/CodeSourcery/Sourcery_G++_Lite/bin/../lib/gcc/arm-none-eabi/4.5.2/../../../../arm-none-eabi/lib/thumb2/libc.a(lib_a-dtoa.o)
__ratio                                           /home/reymondo/CodeSourcery/Sourcery_G++_Lite/bin/../lib/gcc/arm-none-eabi/4.5.2/../../../../arm-none-eabi/lib/thumb2/libc.a(lib_a-mprec.o)
__restore_core_regs                               /home/reymondo/CodeSourcery/Sourcery_G++_Lite/bin/../lib/gcc/arm-none-eabi/4.5.2/thumb2/libgcc.a(libunwind.o)
__s2b                                             /home/reymondo/CodeSourcery/Sourcery_G++_Lite/bin/../lib/gcc/arm-none-eabi/4.5.2/../../../../arm-none-eabi/lib/thumb2/libc.a(lib_a-mprec.o)
__sclose                                          /home/reymondo/CodeSourcery/Sourcery_G++_Lite/bin/../lib/gcc/arm-none-eabi/4.5.2/../../../../arm-none-eabi/lib/thumb2/libc.a(lib_a-stdio.o)
                                                  /home/reymondo/CodeSourcery/Sourcery_G++_Lite/bin/../lib/gcc/arm-none-eabi/4.5.2/../../../../arm-none-eabi/lib/thumb2/libc.a(lib_a-findfp.o)
__seofread                                        /home/reymondo/CodeSourcery/Sourcery_G++_Lite/bin/../lib/gcc/arm-none-eabi/4.5.2/../../../../arm-none-eabi/lib/thumb2/libc.a(lib_a-stdio.o)
__set_BASEPRI                                     out/core_cm3.o
__set_CONTROL                                     out/core_cm3.o
__set_FAULTMASK                                   out/core_cm3.o
__set_MSP                                         out/core_cm3.o
__set_PRIMASK                                     out/core_cm3.o
__set_PSP                                         out/core_cm3.o
__sf_fake_stderr                                  /home/reymondo/CodeSourcery/Sourcery_G++_Lite/bin/../lib/gcc/arm-none-eabi/4.5.2/../../../../arm-none-eabi/lib/thumb2/libc.a(lib_a-findfp.o)
                                                  /home/reymondo/CodeSourcery/Sourcery_G++_Lite/bin/../lib/gcc/arm-none-eabi/4.5.2/../../../../arm-none-eabi/lib/thumb2/libc.a(lib_a-fclose.o)
                                                  /home/reymondo/CodeSourcery/Sourcery_G++_Lite/bin/../lib/gcc/arm-none-eabi/4.5.2/../../../../arm-none-eabi/lib/thumb2/libc.a(lib_a-fflush.o)
                                                  /home/reymondo/CodeSourcery/Sourcery_G++_Lite/bin/../lib/gcc/arm-none-eabi/4.5.2/../../../../arm-none-eabi/lib/thumb2/libc.a(lib_a-wsetup.o)
                                                  /home/reymondo/CodeSourcery/Sourcery_G++_Lite/bin/../lib/gcc/arm-none-eabi/4.5.2/../../../../arm-none-eabi/lib/thumb2/libc.a(lib_a-wbuf.o)
                                                  /home/reymondo/CodeSourcery/Sourcery_G++_Lite/bin/../lib/gcc/arm-none-eabi/4.5.2/../../../../arm-none-eabi/lib/thumb2/libc.a(lib_a-putc.o)
                                                  /home/reymondo/CodeSourcery/Sourcery_G++_Lite/bin/../lib/gcc/arm-none-eabi/4.5.2/../../../../arm-none-eabi/lib/thumb2/libc.a(lib_a-impure.o)
                                                  /home/reymondo/CodeSourcery/Sourcery_G++_Lite/bin/../lib/gcc/arm-none-eabi/4.5.2/../../../../arm-none-eabi/lib/thumb2/libc.a(lib_a-fwrite.o)
                                                  /home/reymondo/CodeSourcery/Sourcery_G++_Lite/bin/../lib/gcc/arm-none-eabi/4.5.2/../../../../arm-none-eabi/lib/thumb2/libc.a(lib_a-fputs.o)
                                                  /home/reymondo/CodeSourcery/Sourcery_G++_Lite/bin/../lib/gcc/arm-none-eabi/4.5.2/../../../../arm-none-eabi/lib/thumb2/libc.a(lib_a-fputc.o)
__sf_fake_stdin                                   /home/reymondo/CodeSourcery/Sourcery_G++_Lite/bin/../lib/gcc/arm-none-eabi/4.5.2/../../../../arm-none-eabi/lib/thumb2/libc.a(lib_a-findfp.o)
                                                  /home/reymondo/CodeSourcery/Sourcery_G++_Lite/bin/../lib/gcc/arm-none-eabi/4.5.2/../../../../arm-none-eabi/lib/thumb2/libc.a(lib_a-fclose.o)
                                                  /home/reymondo/CodeSourcery/Sourcery_G++_Lite/bin/../lib/gcc/arm-none-eabi/4.5.2/../../../../arm-none-eabi/lib/thumb2/libc.a(lib_a-fflush.o)
                                                  /home/reymondo/CodeSourcery/Sourcery_G++_Lite/bin/../lib/gcc/arm-none-eabi/4.5.2/../../../../arm-none-eabi/lib/thumb2/libc.a(lib_a-wsetup.o)
                                                  /home/reymondo/CodeSourcery/Sourcery_G++_Lite/bin/../lib/gcc/arm-none-eabi/4.5.2/../../../../arm-none-eabi/lib/thumb2/libc.a(lib_a-wbuf.o)
                                                  /home/reymondo/CodeSourcery/Sourcery_G++_Lite/bin/../lib/gcc/arm-none-eabi/4.5.2/../../../../arm-none-eabi/lib/thumb2/libc.a(lib_a-putc.o)
                                                  /home/reymondo/CodeSourcery/Sourcery_G++_Lite/bin/../lib/gcc/arm-none-eabi/4.5.2/../../../../arm-none-eabi/lib/thumb2/libc.a(lib_a-impure.o)
                                                  /home/reymondo/CodeSourcery/Sourcery_G++_Lite/bin/../lib/gcc/arm-none-eabi/4.5.2/../../../../arm-none-eabi/lib/thumb2/libc.a(lib_a-fwrite.o)
                                                  /home/reymondo/CodeSourcery/Sourcery_G++_Lite/bin/../lib/gcc/arm-none-eabi/4.5.2/../../../../arm-none-eabi/lib/thumb2/libc.a(lib_a-fputs.o)
                                                  /home/reymondo/CodeSourcery/Sourcery_G++_Lite/bin/../lib/gcc/arm-none-eabi/4.5.2/../../../../arm-none-eabi/lib/thumb2/libc.a(lib_a-fputc.o)
__sf_fake_stdout                                  /home/reymondo/CodeSourcery/Sourcery_G++_Lite/bin/../lib/gcc/arm-none-eabi/4.5.2/../../../../arm-none-eabi/lib/thumb2/libc.a(lib_a-findfp.o)
                                                  /home/reymondo/CodeSourcery/Sourcery_G++_Lite/bin/../lib/gcc/arm-none-eabi/4.5.2/../../../../arm-none-eabi/lib/thumb2/libc.a(lib_a-fclose.o)
                                                  /home/reymondo/CodeSourcery/Sourcery_G++_Lite/bin/../lib/gcc/arm-none-eabi/4.5.2/../../../../arm-none-eabi/lib/thumb2/libc.a(lib_a-fflush.o)
                                                  /home/reymondo/CodeSourcery/Sourcery_G++_Lite/bin/../lib/gcc/arm-none-eabi/4.5.2/../../../../arm-none-eabi/lib/thumb2/libc.a(lib_a-wsetup.o)
                                                  /home/reymondo/CodeSourcery/Sourcery_G++_Lite/bin/../lib/gcc/arm-none-eabi/4.5.2/../../../../arm-none-eabi/lib/thumb2/libc.a(lib_a-wbuf.o)
                                                  /home/reymondo/CodeSourcery/Sourcery_G++_Lite/bin/../lib/gcc/arm-none-eabi/4.5.2/../../../../arm-none-eabi/lib/thumb2/libc.a(lib_a-putc.o)
                                                  /home/reymondo/CodeSourcery/Sourcery_G++_Lite/bin/../lib/gcc/arm-none-eabi/4.5.2/../../../../arm-none-eabi/lib/thumb2/libc.a(lib_a-impure.o)
                                                  /home/reymondo/CodeSourcery/Sourcery_G++_Lite/bin/../lib/gcc/arm-none-eabi/4.5.2/../../../../arm-none-eabi/lib/thumb2/libc.a(lib_a-fwrite.o)
                                                  /home/reymondo/CodeSourcery/Sourcery_G++_Lite/bin/../lib/gcc/arm-none-eabi/4.5.2/../../../../arm-none-eabi/lib/thumb2/libc.a(lib_a-fputs.o)
                                                  /home/reymondo/CodeSourcery/Sourcery_G++_Lite/bin/../lib/gcc/arm-none-eabi/4.5.2/../../../../arm-none-eabi/lib/thumb2/libc.a(lib_a-fputc.o)
__sfmoreglue                                      /home/reymondo/CodeSourcery/Sourcery_G++_Lite/bin/../lib/gcc/arm-none-eabi/4.5.2/../../../../arm-none-eabi/lib/thumb2/libc.a(lib_a-findfp.o)
__sfp                                             /home/reymondo/CodeSourcery/Sourcery_G++_Lite/bin/../lib/gcc/arm-none-eabi/4.5.2/../../../../arm-none-eabi/lib/thumb2/libc.a(lib_a-findfp.o)
__sfp_lock_acquire                                /home/reymondo/CodeSourcery/Sourcery_G++_Lite/bin/../lib/gcc/arm-none-eabi/4.5.2/../../../../arm-none-eabi/lib/thumb2/libc.a(lib_a-findfp.o)
                                                  /home/reymondo/CodeSourcery/Sourcery_G++_Lite/bin/../lib/gcc/arm-none-eabi/4.5.2/../../../../arm-none-eabi/lib/thumb2/libc.a(lib_a-fclose.o)
                                                  /home/reymondo/CodeSourcery/Sourcery_G++_Lite/bin/../lib/gcc/arm-none-eabi/4.5.2/../../../../arm-none-eabi/lib/thumb2/libc.a(lib_a-fwalk.o)
__sfp_lock_release                                /home/reymondo/CodeSourcery/Sourcery_G++_Lite/bin/../lib/gcc/arm-none-eabi/4.5.2/../../../../arm-none-eabi/lib/thumb2/libc.a(lib_a-findfp.o)
                                                  /home/reymondo/CodeSourcery/Sourcery_G++_Lite/bin/../lib/gcc/arm-none-eabi/4.5.2/../../../../arm-none-eabi/lib/thumb2/libc.a(lib_a-fclose.o)
                                                  /home/reymondo/CodeSourcery/Sourcery_G++_Lite/bin/../lib/gcc/arm-none-eabi/4.5.2/../../../../arm-none-eabi/lib/thumb2/libc.a(lib_a-fwalk.o)
__sfvwrite_r                                      /home/reymondo/CodeSourcery/Sourcery_G++_Lite/bin/../lib/gcc/arm-none-eabi/4.5.2/../../../../arm-none-eabi/lib/thumb2/libc.a(lib_a-fvwrite.o)
                                                  /home/reymondo/CodeSourcery/Sourcery_G++_Lite/bin/../lib/gcc/arm-none-eabi/4.5.2/../../../../arm-none-eabi/lib/thumb2/libc.a(lib_a-fwrite.o)
                                                  /home/reymondo/CodeSourcery/Sourcery_G++_Lite/bin/../lib/gcc/arm-none-eabi/4.5.2/../../../../arm-none-eabi/lib/thumb2/libc.a(lib_a-fputs.o)
__sigtramp                                        /home/reymondo/CodeSourcery/Sourcery_G++_Lite/bin/../lib/gcc/arm-none-eabi/4.5.2/../../../../arm-none-eabi/lib/thumb2/libc.a(lib_a-signal.o)
__sigtramp_r                                      /home/reymondo/CodeSourcery/Sourcery_G++_Lite/bin/../lib/gcc/arm-none-eabi/4.5.2/../../../../arm-none-eabi/lib/thumb2/libc.a(lib_a-signal.o)
__sinit                                           /home/reymondo/CodeSourcery/Sourcery_G++_Lite/bin/../lib/gcc/arm-none-eabi/4.5.2/../../../../arm-none-eabi/lib/thumb2/libc.a(lib_a-findfp.o)
                                                  /home/reymondo/CodeSourcery/Sourcery_G++_Lite/bin/../lib/gcc/arm-none-eabi/4.5.2/../../../../arm-none-eabi/lib/thumb2/libc.a(lib_a-fclose.o)
                                                  /home/reymondo/CodeSourcery/Sourcery_G++_Lite/bin/../lib/gcc/arm-none-eabi/4.5.2/../../../../arm-none-eabi/lib/thumb2/libc.a(lib_a-fflush.o)
                                                  /home/reymondo/CodeSourcery/Sourcery_G++_Lite/bin/../lib/gcc/arm-none-eabi/4.5.2/../../../../arm-none-eabi/lib/thumb2/libc.a(lib_a-wsetup.o)
                                                  /home/reymondo/CodeSourcery/Sourcery_G++_Lite/bin/../lib/gcc/arm-none-eabi/4.5.2/../../../../arm-none-eabi/lib/thumb2/libc.a(lib_a-wbuf.o)
                                                  /home/reymondo/CodeSourcery/Sourcery_G++_Lite/bin/../lib/gcc/arm-none-eabi/4.5.2/../../../../arm-none-eabi/lib/thumb2/libc.a(lib_a-putc.o)
                                                  /home/reymondo/CodeSourcery/Sourcery_G++_Lite/bin/../lib/gcc/arm-none-eabi/4.5.2/../../../../arm-none-eabi/lib/thumb2/libc.a(lib_a-fwrite.o)
                                                  /home/reymondo/CodeSourcery/Sourcery_G++_Lite/bin/../lib/gcc/arm-none-eabi/4.5.2/../../../../arm-none-eabi/lib/thumb2/libc.a(lib_a-fputs.o)
                                                  /home/reymondo/CodeSourcery/Sourcery_G++_Lite/bin/../lib/gcc/arm-none-eabi/4.5.2/../../../../arm-none-eabi/lib/thumb2/libc.a(lib_a-fputc.o)
__sinit_lock_acquire                              /home/reymondo/CodeSourcery/Sourcery_G++_Lite/bin/../lib/gcc/arm-none-eabi/4.5.2/../../../../arm-none-eabi/lib/thumb2/libc.a(lib_a-findfp.o)
__sinit_lock_release                              /home/reymondo/CodeSourcery/Sourcery_G++_Lite/bin/../lib/gcc/arm-none-eabi/4.5.2/../../../../arm-none-eabi/lib/thumb2/libc.a(lib_a-findfp.o)
__smakebuf_r                                      /home/reymondo/CodeSourcery/Sourcery_G++_Lite/bin/../lib/gcc/arm-none-eabi/4.5.2/../../../../arm-none-eabi/lib/thumb2/libc.a(lib_a-makebuf.o)
                                                  /home/reymondo/CodeSourcery/Sourcery_G++_Lite/bin/../lib/gcc/arm-none-eabi/4.5.2/../../../../arm-none-eabi/lib/thumb2/libc.a(lib_a-wsetup.o)
__sread                                           /home/reymondo/CodeSourcery/Sourcery_G++_Lite/bin/../lib/gcc/arm-none-eabi/4.5.2/../../../../arm-none-eabi/lib/thumb2/libc.a(lib_a-stdio.o)
                                                  /home/reymondo/CodeSourcery/Sourcery_G++_Lite/bin/../lib/gcc/arm-none-eabi/4.5.2/../../../../arm-none-eabi/lib/thumb2/libc.a(lib_a-findfp.o)
__sseek                                           /home/reymondo/CodeSourcery/Sourcery_G++_Lite/bin/../lib/gcc/arm-none-eabi/4.5.2/../../../../arm-none-eabi/lib/thumb2/libc.a(lib_a-stdio.o)
                                                  /home/reymondo/CodeSourcery/Sourcery_G++_Lite/bin/../lib/gcc/arm-none-eabi/4.5.2/../../../../arm-none-eabi/lib/thumb2/libc.a(lib_a-makebuf.o)
                                                  /home/reymondo/CodeSourcery/Sourcery_G++_Lite/bin/../lib/gcc/arm-none-eabi/4.5.2/../../../../arm-none-eabi/lib/thumb2/libc.a(lib_a-findfp.o)
__ssprint_r                                       /home/reymondo/CodeSourcery/Sourcery_G++_Lite/bin/../lib/gcc/arm-none-eabi/4.5.2/../../../../arm-none-eabi/lib/thumb2/libc.a(lib_a-svfiprintf.o)
                                                  /home/reymondo/CodeSourcery/Sourcery_G++_Lite/bin/../lib/gcc/arm-none-eabi/4.5.2/../../../../arm-none-eabi/lib/thumb2/libc.a(lib_a-svfprintf.o)
__subdf3                                          /home/reymondo/CodeSourcery/Sourcery_G++_Lite/bin/../lib/gcc/arm-none-eabi/4.5.2/thumb2/libgcc.a(_arm_addsubdf3.o)
__swbuf                                           /home/reymondo/CodeSourcery/Sourcery_G++_Lite/bin/../lib/gcc/arm-none-eabi/4.5.2/../../../../arm-none-eabi/lib/thumb2/libc.a(lib_a-wbuf.o)
__swbuf_r                                         /home/reymondo/CodeSourcery/Sourcery_G++_Lite/bin/../lib/gcc/arm-none-eabi/4.5.2/../../../../arm-none-eabi/lib/thumb2/libc.a(lib_a-wbuf.o)
                                                  /home/reymondo/CodeSourcery/Sourcery_G++_Lite/bin/../lib/gcc/arm-none-eabi/4.5.2/../../../../arm-none-eabi/lib/thumb2/libc.a(lib_a-putc.o)
__swrite                                          /home/reymondo/CodeSourcery/Sourcery_G++_Lite/bin/../lib/gcc/arm-none-eabi/4.5.2/../../../../arm-none-eabi/lib/thumb2/libc.a(lib_a-stdio.o)
                                                  /home/reymondo/CodeSourcery/Sourcery_G++_Lite/bin/../lib/gcc/arm-none-eabi/4.5.2/../../../../arm-none-eabi/lib/thumb2/libc.a(lib_a-findfp.o)
__swsetup_r                                       /home/reymondo/CodeSourcery/Sourcery_G++_Lite/bin/../lib/gcc/arm-none-eabi/4.5.2/../../../../arm-none-eabi/lib/thumb2/libc.a(lib_a-wsetup.o)
                                                  /home/reymondo/CodeSourcery/Sourcery_G++_Lite/bin/../lib/gcc/arm-none-eabi/4.5.2/../../../../arm-none-eabi/lib/thumb2/libc.a(lib_a-wbuf.o)
                                                  /home/reymondo/CodeSourcery/Sourcery_G++_Lite/bin/../lib/gcc/arm-none-eabi/4.5.2/../../../../arm-none-eabi/lib/thumb2/libc.a(lib_a-fvwrite.o)
__udivdi3                                         /home/reymondo/CodeSourcery/Sourcery_G++_Lite/bin/../lib/gcc/arm-none-eabi/4.5.2/thumb2/libgcc.a(_udivdi3.o)
                                                  /home/reymondo/CodeSourcery/Sourcery_G++_Lite/bin/../lib/gcc/arm-none-eabi/4.5.2/thumb2/libgcc.a(bpabi.o)
__udivsi3                                         /home/reymondo/CodeSourcery/Sourcery_G++_Lite/bin/../lib/gcc/arm-none-eabi/4.5.2/thumb2/libgcc.a(_udivsi3.o)
__ulp                                             /home/reymondo/CodeSourcery/Sourcery_G++_Lite/bin/../lib/gcc/arm-none-eabi/4.5.2/../../../../arm-none-eabi/lib/thumb2/libc.a(lib_a-mprec.o)
_calloc_r                                         /home/reymondo/CodeSourcery/Sourcery_G++_Lite/bin/../lib/gcc/arm-none-eabi/4.5.2/../../../../arm-none-eabi/lib/thumb2/libc.a(lib_a-callocr.o)
                                                  /home/reymondo/CodeSourcery/Sourcery_G++_Lite/bin/../lib/gcc/arm-none-eabi/4.5.2/../../../../arm-none-eabi/lib/thumb2/libc.a(lib_a-mprec.o)
_cleanup                                          /home/reymondo/CodeSourcery/Sourcery_G++_Lite/bin/../lib/gcc/arm-none-eabi/4.5.2/../../../../arm-none-eabi/lib/thumb2/libc.a(lib_a-findfp.o)
_cleanup_r                                        /home/reymondo/CodeSourcery/Sourcery_G++_Lite/bin/../lib/gcc/arm-none-eabi/4.5.2/../../../../arm-none-eabi/lib/thumb2/libc.a(lib_a-findfp.o)
                                                  /home/reymondo/CodeSourcery/Sourcery_G++_Lite/bin/../lib/gcc/arm-none-eabi/4.5.2/../../../../arm-none-eabi/lib/thumb2/libc.a(lib_a-makebuf.o)
_close_r                                          out/syscalls.o
                                                  /home/reymondo/CodeSourcery/Sourcery_G++_Lite/bin/../lib/gcc/arm-none-eabi/4.5.2/../../../../arm-none-eabi/lib/thumb2/libc.a(lib_a-stdio.o)
_dtoa_r                                           /home/reymondo/CodeSourcery/Sourcery_G++_Lite/bin/../lib/gcc/arm-none-eabi/4.5.2/../../../../arm-none-eabi/lib/thumb2/libc.a(lib_a-dtoa.o)
                                                  /home/reymondo/CodeSourcery/Sourcery_G++_Lite/bin/../lib/gcc/arm-none-eabi/4.5.2/../../../../arm-none-eabi/lib/thumb2/libc.a(lib_a-svfprintf.o)
_ebss                                             out/startup_stm32f10x_cl.o
_edata                                            out/startup_stm32f10x_cl.o
_estack                                           out/startup_stm32f10x_cl.o
_execve_r                                         out/syscalls.o
_exit                                             out/syscalls.o
                                                  /home/reymondo/CodeSourcery/Sourcery_G++_Lite/bin/../lib/gcc/arm-none-eabi/4.5.2/../../../../arm-none-eabi/lib/thumb2/libc.a(lib_a-abort.o)
_fclose_r                                         /home/reymondo/CodeSourcery/Sourcery_G++_Lite/bin/../lib/gcc/arm-none-eabi/4.5.2/../../../../arm-none-eabi/lib/thumb2/libc.a(lib_a-fclose.o)
_fflush_r                                         /home/reymondo/CodeSourcery/Sourcery_G++_Lite/bin/../lib/gcc/arm-none-eabi/4.5.2/../../../../arm-none-eabi/lib/thumb2/libc.a(lib_a-fflush.o)
                                                  /home/reymondo/CodeSourcery/Sourcery_G++_Lite/bin/../lib/gcc/arm-none-eabi/4.5.2/../../../../arm-none-eabi/lib/thumb2/libc.a(lib_a-fclose.o)
                                                  /home/reymondo/CodeSourcery/Sourcery_G++_Lite/bin/../lib/gcc/arm-none-eabi/4.5.2/../../../../arm-none-eabi/lib/thumb2/libc.a(lib_a-wbuf.o)
                                                  /home/reymondo/CodeSourcery/Sourcery_G++_Lite/bin/../lib/gcc/arm-none-eabi/4.5.2/../../../../arm-none-eabi/lib/thumb2/libc.a(lib_a-fvwrite.o)
_fini                                             /home/reymondo/CodeSourcery/Sourcery_G++_Lite/bin/../lib/gcc/arm-none-eabi/4.5.2/thumb2/crti.o
_fork_r                                           out/syscalls.o
_fputc_r                                          /home/reymondo/CodeSourcery/Sourcery_G++_Lite/bin/../lib/gcc/arm-none-eabi/4.5.2/../../../../arm-none-eabi/lib/thumb2/libc.a(lib_a-fputc.o)
_fputs_r                                          /home/reymondo/CodeSourcery/Sourcery_G++_Lite/bin/../lib/gcc/arm-none-eabi/4.5.2/../../../../arm-none-eabi/lib/thumb2/libc.a(lib_a-fputs.o)
_free_r                                           /home/reymondo/CodeSourcery/Sourcery_G++_Lite/bin/../lib/gcc/arm-none-eabi/4.5.2/../../../../arm-none-eabi/lib/thumb2/libc.a(lib_a-freer.o)
                                                  /home/reymondo/CodeSourcery/Sourcery_G++_Lite/bin/../lib/gcc/arm-none-eabi/4.5.2/../../../../arm-none-eabi/lib/thumb2/libc.a(lib_a-fclose.o)
                                                  /home/reymondo/CodeSourcery/Sourcery_G++_Lite/bin/../lib/gcc/arm-none-eabi/4.5.2/../../../../arm-none-eabi/lib/thumb2/libc.a(lib_a-svfiprintf.o)
                                                  /home/reymondo/CodeSourcery/Sourcery_G++_Lite/bin/../lib/gcc/arm-none-eabi/4.5.2/../../../../arm-none-eabi/lib/thumb2/libc.a(lib_a-fflush.o)
                                                  /home/reymondo/CodeSourcery/Sourcery_G++_Lite/bin/../lib/gcc/arm-none-eabi/4.5.2/../../../../arm-none-eabi/lib/thumb2/libc.a(lib_a-wsetup.o)
                                                  /home/reymondo/CodeSourcery/Sourcery_G++_Lite/bin/../lib/gcc/arm-none-eabi/4.5.2/../../../../arm-none-eabi/lib/thumb2/libc.a(lib_a-reent.o)
                                                  /home/reymondo/CodeSourcery/Sourcery_G++_Lite/bin/../lib/gcc/arm-none-eabi/4.5.2/../../../../arm-none-eabi/lib/thumb2/libc.a(lib_a-reallocr.o)
                                                  /home/reymondo/CodeSourcery/Sourcery_G++_Lite/bin/../lib/gcc/arm-none-eabi/4.5.2/../../../../arm-none-eabi/lib/thumb2/libc.a(lib_a-mallocr.o)
                                                  /home/reymondo/CodeSourcery/Sourcery_G++_Lite/bin/../lib/gcc/arm-none-eabi/4.5.2/../../../../arm-none-eabi/lib/thumb2/libc.a(lib_a-malloc.o)
                                                  /home/reymondo/CodeSourcery/Sourcery_G++_Lite/bin/../lib/gcc/arm-none-eabi/4.5.2/../../../../arm-none-eabi/lib/thumb2/libc.a(lib_a-fvwrite.o)
_fstat_r                                          out/syscalls.o
                                                  /home/reymondo/CodeSourcery/Sourcery_G++_Lite/bin/../lib/gcc/arm-none-eabi/4.5.2/../../../../arm-none-eabi/lib/thumb2/libc.a(lib_a-makebuf.o)
_fwalk                                            /home/reymondo/CodeSourcery/Sourcery_G++_Lite/bin/../lib/gcc/arm-none-eabi/4.5.2/../../../../arm-none-eabi/lib/thumb2/libc.a(lib_a-fwalk.o)
                                                  /home/reymondo/CodeSourcery/Sourcery_G++_Lite/bin/../lib/gcc/arm-none-eabi/4.5.2/../../../../arm-none-eabi/lib/thumb2/libc.a(lib_a-findfp.o)
_fwalk_reent                                      /home/reymondo/CodeSourcery/Sourcery_G++_Lite/bin/../lib/gcc/arm-none-eabi/4.5.2/../../../../arm-none-eabi/lib/thumb2/libc.a(lib_a-fwalk.o)
                                                  /home/reymondo/CodeSourcery/Sourcery_G++_Lite/bin/../lib/gcc/arm-none-eabi/4.5.2/../../../../arm-none-eabi/lib/thumb2/libc.a(lib_a-fflush.o)
_fwrite_r                                         /home/reymondo/CodeSourcery/Sourcery_G++_Lite/bin/../lib/gcc/arm-none-eabi/4.5.2/../../../../arm-none-eabi/lib/thumb2/libc.a(lib_a-fwrite.o)
_getpid_r                                         out/syscalls.o
                                                  /home/reymondo/CodeSourcery/Sourcery_G++_Lite/bin/../lib/gcc/arm-none-eabi/4.5.2/../../../../arm-none-eabi/lib/thumb2/libc.a(lib_a-signal.o)
_global_impure_ptr                                /home/reymondo/CodeSourcery/Sourcery_G++_Lite/bin/../lib/gcc/arm-none-eabi/4.5.2/../../../../arm-none-eabi/lib/thumb2/libc.a(lib_a-impure.o)
                                                  /home/reymondo/CodeSourcery/Sourcery_G++_Lite/bin/../lib/gcc/arm-none-eabi/4.5.2/../../../../arm-none-eabi/lib/thumb2/libc.a(lib_a-findfp.o)
                                                  /home/reymondo/CodeSourcery/Sourcery_G++_Lite/bin/../lib/gcc/arm-none-eabi/4.5.2/../../../../arm-none-eabi/lib/thumb2/libc.a(lib_a-fflush.o)
_impure_ptr                                       /home/reymondo/CodeSourcery/Sourcery_G++_Lite/bin/../lib/gcc/arm-none-eabi/4.5.2/../../../../arm-none-eabi/lib/thumb2/libc.a(lib_a-impure.o)
                                                  /home/reymondo/CodeSourcery/Sourcery_G++_Lite/bin/../lib/gcc/arm-none-eabi/4.5.2/../../../../arm-none-eabi/lib/thumb2/libc.a(lib_a-fclose.o)
                                                  /home/reymondo/CodeSourcery/Sourcery_G++_Lite/bin/../lib/gcc/arm-none-eabi/4.5.2/../../../../arm-none-eabi/lib/thumb2/libc.a(lib_a-locale.o)
                                                  /home/reymondo/CodeSourcery/Sourcery_G++_Lite/bin/../lib/gcc/arm-none-eabi/4.5.2/../../../../arm-none-eabi/lib/thumb2/libc.a(lib_a-findfp.o)
                                                  /home/reymondo/CodeSourcery/Sourcery_G++_Lite/bin/../lib/gcc/arm-none-eabi/4.5.2/../../../../arm-none-eabi/lib/thumb2/libc.a(lib_a-fflush.o)
                                                  /home/reymondo/CodeSourcery/Sourcery_G++_Lite/bin/../lib/gcc/arm-none-eabi/4.5.2/../../../../arm-none-eabi/lib/thumb2/libc.a(lib_a-wsetup.o)
                                                  /home/reymondo/CodeSourcery/Sourcery_G++_Lite/bin/../lib/gcc/arm-none-eabi/4.5.2/../../../../arm-none-eabi/lib/thumb2/libc.a(lib_a-wbuf.o)
                                                  /home/reymondo/CodeSourcery/Sourcery_G++_Lite/bin/../lib/gcc/arm-none-eabi/4.5.2/../../../../arm-none-eabi/lib/thumb2/libc.a(lib_a-syswrite.o)
                                                  /home/reymondo/CodeSourcery/Sourcery_G++_Lite/bin/../lib/gcc/arm-none-eabi/4.5.2/../../../../arm-none-eabi/lib/thumb2/libc.a(lib_a-sprintf.o)
                                                  /home/reymondo/CodeSourcery/Sourcery_G++_Lite/bin/../lib/gcc/arm-none-eabi/4.5.2/../../../../arm-none-eabi/lib/thumb2/libc.a(lib_a-signal.o)
                                                  /home/reymondo/CodeSourcery/Sourcery_G++_Lite/bin/../lib/gcc/arm-none-eabi/4.5.2/../../../../arm-none-eabi/lib/thumb2/libc.a(lib_a-reent.o)
                                                  /home/reymondo/CodeSourcery/Sourcery_G++_Lite/bin/../lib/gcc/arm-none-eabi/4.5.2/../../../../arm-none-eabi/lib/thumb2/libc.a(lib_a-realloc.o)
                                                  /home/reymondo/CodeSourcery/Sourcery_G++_Lite/bin/../lib/gcc/arm-none-eabi/4.5.2/../../../../arm-none-eabi/lib/thumb2/libc.a(lib_a-putc.o)
                                                  /home/reymondo/CodeSourcery/Sourcery_G++_Lite/bin/../lib/gcc/arm-none-eabi/4.5.2/../../../../arm-none-eabi/lib/thumb2/libc.a(lib_a-malloc.o)
                                                  /home/reymondo/CodeSourcery/Sourcery_G++_Lite/bin/../lib/gcc/arm-none-eabi/4.5.2/../../../../arm-none-eabi/lib/thumb2/libc.a(lib_a-fwrite.o)
                                                  /home/reymondo/CodeSourcery/Sourcery_G++_Lite/bin/../lib/gcc/arm-none-eabi/4.5.2/../../../../arm-none-eabi/lib/thumb2/libc.a(lib_a-fputs.o)
                                                  /home/reymondo/CodeSourcery/Sourcery_G++_Lite/bin/../lib/gcc/arm-none-eabi/4.5.2/../../../../arm-none-eabi/lib/thumb2/libc.a(lib_a-fputc.o)
                                                  /home/reymondo/CodeSourcery/Sourcery_G++_Lite/bin/../lib/gcc/arm-none-eabi/4.5.2/../../../../arm-none-eabi/lib/thumb2/libstdc++.a(vterminate.o)
_init                                             /home/reymondo/CodeSourcery/Sourcery_G++_Lite/bin/../lib/gcc/arm-none-eabi/4.5.2/thumb2/crti.o
_init_signal                                      /home/reymondo/CodeSourcery/Sourcery_G++_Lite/bin/../lib/gcc/arm-none-eabi/4.5.2/../../../../arm-none-eabi/lib/thumb2/libc.a(lib_a-signal.o)
_init_signal_r                                    /home/reymondo/CodeSourcery/Sourcery_G++_Lite/bin/../lib/gcc/arm-none-eabi/4.5.2/../../../../arm-none-eabi/lib/thumb2/libc.a(lib_a-signal.o)
_isatty_r                                         out/syscalls.o
                                                  /home/reymondo/CodeSourcery/Sourcery_G++_Lite/bin/../lib/gcc/arm-none-eabi/4.5.2/../../../../arm-none-eabi/lib/thumb2/libc.a(lib_a-makebuf.o)
_kill_r                                           out/syscalls.o
                                                  /home/reymondo/CodeSourcery/Sourcery_G++_Lite/bin/../lib/gcc/arm-none-eabi/4.5.2/../../../../arm-none-eabi/lib/thumb2/libc.a(lib_a-signal.o)
_link_r                                           out/syscalls.o
_localeconv_r                                     /home/reymondo/CodeSourcery/Sourcery_G++_Lite/bin/../lib/gcc/arm-none-eabi/4.5.2/../../../../arm-none-eabi/lib/thumb2/libc.a(lib_a-locale.o)
                                                  /home/reymondo/CodeSourcery/Sourcery_G++_Lite/bin/../lib/gcc/arm-none-eabi/4.5.2/../../../../arm-none-eabi/lib/thumb2/libc.a(lib_a-svfprintf.o)
_lseek_r                                          out/syscalls.o
                                                  /home/reymondo/CodeSourcery/Sourcery_G++_Lite/bin/../lib/gcc/arm-none-eabi/4.5.2/../../../../arm-none-eabi/lib/thumb2/libc.a(lib_a-stdio.o)
_malloc_r                                         /home/reymondo/CodeSourcery/Sourcery_G++_Lite/bin/../lib/gcc/arm-none-eabi/4.5.2/../../../../arm-none-eabi/lib/thumb2/libc.a(lib_a-mallocr.o)
                                                  /home/reymondo/CodeSourcery/Sourcery_G++_Lite/bin/../lib/gcc/arm-none-eabi/4.5.2/../../../../arm-none-eabi/lib/thumb2/libc.a(lib_a-callocr.o)
                                                  /home/reymondo/CodeSourcery/Sourcery_G++_Lite/bin/../lib/gcc/arm-none-eabi/4.5.2/../../../../arm-none-eabi/lib/thumb2/libc.a(lib_a-svfiprintf.o)
                                                  /home/reymondo/CodeSourcery/Sourcery_G++_Lite/bin/../lib/gcc/arm-none-eabi/4.5.2/../../../../arm-none-eabi/lib/thumb2/libc.a(lib_a-makebuf.o)
                                                  /home/reymondo/CodeSourcery/Sourcery_G++_Lite/bin/../lib/gcc/arm-none-eabi/4.5.2/../../../../arm-none-eabi/lib/thumb2/libc.a(lib_a-findfp.o)
                                                  /home/reymondo/CodeSourcery/Sourcery_G++_Lite/bin/../lib/gcc/arm-none-eabi/4.5.2/../../../../arm-none-eabi/lib/thumb2/libc.a(lib_a-svfprintf.o)
                                                  /home/reymondo/CodeSourcery/Sourcery_G++_Lite/bin/../lib/gcc/arm-none-eabi/4.5.2/../../../../arm-none-eabi/lib/thumb2/libc.a(lib_a-signal.o)
                                                  /home/reymondo/CodeSourcery/Sourcery_G++_Lite/bin/../lib/gcc/arm-none-eabi/4.5.2/../../../../arm-none-eabi/lib/thumb2/libc.a(lib_a-reallocr.o)
                                                  /home/reymondo/CodeSourcery/Sourcery_G++_Lite/bin/../lib/gcc/arm-none-eabi/4.5.2/../../../../arm-none-eabi/lib/thumb2/libc.a(lib_a-malloc.o)
                                                  /home/reymondo/CodeSourcery/Sourcery_G++_Lite/bin/../lib/gcc/arm-none-eabi/4.5.2/../../../../arm-none-eabi/lib/thumb2/libc.a(lib_a-fvwrite.o)
_malloc_trim_r                                    /home/reymondo/CodeSourcery/Sourcery_G++_Lite/bin/../lib/gcc/arm-none-eabi/4.5.2/../../../../arm-none-eabi/lib/thumb2/libc.a(lib_a-freer.o)
_mprec_log10                                      /home/reymondo/CodeSourcery/Sourcery_G++_Lite/bin/../lib/gcc/arm-none-eabi/4.5.2/../../../../arm-none-eabi/lib/thumb2/libc.a(lib_a-mprec.o)
_open_r                                           out/syscalls.o
_putc_r                                           /home/reymondo/CodeSourcery/Sourcery_G++_Lite/bin/../lib/gcc/arm-none-eabi/4.5.2/../../../../arm-none-eabi/lib/thumb2/libc.a(lib_a-putc.o)
                                                  /home/reymondo/CodeSourcery/Sourcery_G++_Lite/bin/../lib/gcc/arm-none-eabi/4.5.2/../../../../arm-none-eabi/lib/thumb2/libc.a(lib_a-fputc.o)
_raise_r                                          /home/reymondo/CodeSourcery/Sourcery_G++_Lite/bin/../lib/gcc/arm-none-eabi/4.5.2/../../../../arm-none-eabi/lib/thumb2/libc.a(lib_a-signal.o)
_read_r                                           out/syscalls.o
                                                  /home/reymondo/CodeSourcery/Sourcery_G++_Lite/bin/../lib/gcc/arm-none-eabi/4.5.2/../../../../arm-none-eabi/lib/thumb2/libc.a(lib_a-stdio.o)
_realloc_r                                        /home/reymondo/CodeSourcery/Sourcery_G++_Lite/bin/../lib/gcc/arm-none-eabi/4.5.2/../../../../arm-none-eabi/lib/thumb2/libc.a(lib_a-reallocr.o)
                                                  /home/reymondo/CodeSourcery/Sourcery_G++_Lite/bin/../lib/gcc/arm-none-eabi/4.5.2/../../../../arm-none-eabi/lib/thumb2/libc.a(lib_a-svfiprintf.o)
                                                  /home/reymondo/CodeSourcery/Sourcery_G++_Lite/bin/../lib/gcc/arm-none-eabi/4.5.2/../../../../arm-none-eabi/lib/thumb2/libc.a(lib_a-realloc.o)
                                                  /home/reymondo/CodeSourcery/Sourcery_G++_Lite/bin/../lib/gcc/arm-none-eabi/4.5.2/../../../../arm-none-eabi/lib/thumb2/libc.a(lib_a-fvwrite.o)
_reclaim_reent                                    /home/reymondo/CodeSourcery/Sourcery_G++_Lite/bin/../lib/gcc/arm-none-eabi/4.5.2/../../../../arm-none-eabi/lib/thumb2/libc.a(lib_a-reent.o)
_sbrk_r                                           out/syscalls.o
                                                  /home/reymondo/CodeSourcery/Sourcery_G++_Lite/bin/../lib/gcc/arm-none-eabi/4.5.2/../../../../arm-none-eabi/lib/thumb2/libc.a(lib_a-freer.o)
                                                  /home/reymondo/CodeSourcery/Sourcery_G++_Lite/bin/../lib/gcc/arm-none-eabi/4.5.2/../../../../arm-none-eabi/lib/thumb2/libc.a(lib_a-mallocr.o)
_sbss                                             out/startup_stm32f10x_cl.o
_sdata                                            out/startup_stm32f10x_cl.o
_setlocale_r                                      /home/reymondo/CodeSourcery/Sourcery_G++_Lite/bin/../lib/gcc/arm-none-eabi/4.5.2/../../../../arm-none-eabi/lib/thumb2/libc.a(lib_a-locale.o)
_sidata                                           out/startup_stm32f10x_cl.o
_signal_r                                         /home/reymondo/CodeSourcery/Sourcery_G++_Lite/bin/../lib/gcc/arm-none-eabi/4.5.2/../../../../arm-none-eabi/lib/thumb2/libc.a(lib_a-signal.o)
_sprintf_r                                        /home/reymondo/CodeSourcery/Sourcery_G++_Lite/bin/../lib/gcc/arm-none-eabi/4.5.2/../../../../arm-none-eabi/lib/thumb2/libc.a(lib_a-sprintf.o)
_stat_r                                           out/syscalls.o
_svfiprintf_r                                     /home/reymondo/CodeSourcery/Sourcery_G++_Lite/bin/../lib/gcc/arm-none-eabi/4.5.2/../../../../arm-none-eabi/lib/thumb2/libc.a(lib_a-svfiprintf.o)
_svfprintf_r                                      /home/reymondo/CodeSourcery/Sourcery_G++_Lite/bin/../lib/gcc/arm-none-eabi/4.5.2/../../../../arm-none-eabi/lib/thumb2/libc.a(lib_a-svfprintf.o)
                                                  /home/reymondo/CodeSourcery/Sourcery_G++_Lite/bin/../lib/gcc/arm-none-eabi/4.5.2/../../../../arm-none-eabi/lib/thumb2/libc.a(lib_a-sprintf.o)
_times_r                                          out/syscalls.o
_unlink_r                                         out/syscalls.o
_wait_r                                           out/syscalls.o
_wrapup_reent                                     /home/reymondo/CodeSourcery/Sourcery_G++_Lite/bin/../lib/gcc/arm-none-eabi/4.5.2/../../../../arm-none-eabi/lib/thumb2/libc.a(lib_a-reent.o)
_write_r                                          out/syscalls.o
                                                  /home/reymondo/CodeSourcery/Sourcery_G++_Lite/bin/../lib/gcc/arm-none-eabi/4.5.2/../../../../arm-none-eabi/lib/thumb2/libc.a(lib_a-stdio.o)
                                                  /home/reymondo/CodeSourcery/Sourcery_G++_Lite/bin/../lib/gcc/arm-none-eabi/4.5.2/../../../../arm-none-eabi/lib/thumb2/libc.a(lib_a-syswrite.o)
abort                                             /home/reymondo/CodeSourcery/Sourcery_G++_Lite/bin/../lib/gcc/arm-none-eabi/4.5.2/../../../../arm-none-eabi/lib/thumb2/libc.a(lib_a-abort.o)
                                                  /home/reymondo/CodeSourcery/Sourcery_G++_Lite/bin/../lib/gcc/arm-none-eabi/4.5.2/thumb2/libgcc.a(pr-support.o)
                                                  /home/reymondo/CodeSourcery/Sourcery_G++_Lite/bin/../lib/gcc/arm-none-eabi/4.5.2/thumb2/libgcc.a(unwind-arm.o)
                                                  /home/reymondo/CodeSourcery/Sourcery_G++_Lite/bin/../lib/gcc/arm-none-eabi/4.5.2/../../../../arm-none-eabi/lib/thumb2/libstdc++.a(vterminate.o)
                                                  /home/reymondo/CodeSourcery/Sourcery_G++_Lite/bin/../lib/gcc/arm-none-eabi/4.5.2/../../../../arm-none-eabi/lib/thumb2/libstdc++.a(eh_terminate.o)
                                                  /home/reymondo/CodeSourcery/Sourcery_G++_Lite/bin/../lib/gcc/arm-none-eabi/4.5.2/../../../../arm-none-eabi/lib/thumb2/libstdc++.a(eh_personality.o)
cleanup_glue                                      /home/reymondo/CodeSourcery/Sourcery_G++_Lite/bin/../lib/gcc/arm-none-eabi/4.5.2/../../../../arm-none-eabi/lib/thumb2/libc.a(lib_a-reent.o)
del_count                                         out/stm32f10x_it.o
environ                                           out/syscalls.o
environ_initial                                   out/syscalls.o
errno                                             /home/reymondo/CodeSourcery/Sourcery_G++_Lite/bin/../lib/gcc/arm-none-eabi/4.5.2/../../../../arm-none-eabi/lib/thumb2/libc.a(lib_a-reent.o)
                                                  out/syscalls.o
fclose                                            /home/reymondo/CodeSourcery/Sourcery_G++_Lite/bin/../lib/gcc/arm-none-eabi/4.5.2/../../../../arm-none-eabi/lib/thumb2/libc.a(lib_a-fclose.o)
                                                  /home/reymondo/CodeSourcery/Sourcery_G++_Lite/bin/../lib/gcc/arm-none-eabi/4.5.2/../../../../arm-none-eabi/lib/thumb2/libc.a(lib_a-findfp.o)
fflush                                            /home/reymondo/CodeSourcery/Sourcery_G++_Lite/bin/../lib/gcc/arm-none-eabi/4.5.2/../../../../arm-none-eabi/lib/thumb2/libc.a(lib_a-fflush.o)
fputc                                             /home/reymondo/CodeSourcery/Sourcery_G++_Lite/bin/../lib/gcc/arm-none-eabi/4.5.2/../../../../arm-none-eabi/lib/thumb2/libc.a(lib_a-fputc.o)
                                                  /home/reymondo/CodeSourcery/Sourcery_G++_Lite/bin/../lib/gcc/arm-none-eabi/4.5.2/../../../../arm-none-eabi/lib/thumb2/libstdc++.a(vterminate.o)
fputs                                             /home/reymondo/CodeSourcery/Sourcery_G++_Lite/bin/../lib/gcc/arm-none-eabi/4.5.2/../../../../arm-none-eabi/lib/thumb2/libc.a(lib_a-fputs.o)
                                                  /home/reymondo/CodeSourcery/Sourcery_G++_Lite/bin/../lib/gcc/arm-none-eabi/4.5.2/../../../../arm-none-eabi/lib/thumb2/libstdc++.a(vterminate.o)
free                                              /home/reymondo/CodeSourcery/Sourcery_G++_Lite/bin/../lib/gcc/arm-none-eabi/4.5.2/../../../../arm-none-eabi/lib/thumb2/libc.a(lib_a-malloc.o)
                                                  /home/reymondo/CodeSourcery/Sourcery_G++_Lite/bin/../lib/gcc/arm-none-eabi/4.5.2/../../../../arm-none-eabi/lib/thumb2/libstdc++.a(cp-demangle.o)
                                                  /home/reymondo/CodeSourcery/Sourcery_G++_Lite/bin/../lib/gcc/arm-none-eabi/4.5.2/../../../../arm-none-eabi/lib/thumb2/libstdc++.a(vterminate.o)
                                                  /home/reymondo/CodeSourcery/Sourcery_G++_Lite/bin/../lib/gcc/arm-none-eabi/4.5.2/../../../../arm-none-eabi/lib/thumb2/libstdc++.a(eh_alloc.o)
                                                  /home/reymondo/CodeSourcery/Sourcery_G++_Lite/bin/../lib/gcc/arm-none-eabi/4.5.2/../../../../arm-none-eabi/lib/thumb2/libstdc++.a(del_op.o)
fwrite                                            /home/reymondo/CodeSourcery/Sourcery_G++_Lite/bin/../lib/gcc/arm-none-eabi/4.5.2/../../../../arm-none-eabi/lib/thumb2/libc.a(lib_a-fwrite.o)
                                                  /home/reymondo/CodeSourcery/Sourcery_G++_Lite/bin/../lib/gcc/arm-none-eabi/4.5.2/../../../../arm-none-eabi/lib/thumb2/libstdc++.a(vterminate.o)
g_pfnVectors                                      out/startup_stm32f10x_cl.o
g_usartReadBuffer                                 out/main.o
g_usartWriteBuffer                                out/main.o
i                                                 out/stm32f10x_it.o
j                                                 out/stm32f10x_it.o
localeconv                                        /home/reymondo/CodeSourcery/Sourcery_G++_Lite/bin/../lib/gcc/arm-none-eabi/4.5.2/../../../../arm-none-eabi/lib/thumb2/libc.a(lib_a-locale.o)
main                                              out/main.o
                                                  out/startup_stm32f10x_cl.o
malloc                                            /home/reymondo/CodeSourcery/Sourcery_G++_Lite/bin/../lib/gcc/arm-none-eabi/4.5.2/../../../../arm-none-eabi/lib/thumb2/libc.a(lib_a-malloc.o)
                                                  /home/reymondo/CodeSourcery/Sourcery_G++_Lite/bin/../lib/gcc/arm-none-eabi/4.5.2/../../../../arm-none-eabi/lib/thumb2/libc.a(lib_a-mprec.o)
                                                  /home/reymondo/CodeSourcery/Sourcery_G++_Lite/bin/../lib/gcc/arm-none-eabi/4.5.2/../../../../arm-none-eabi/lib/thumb2/libc.a(lib_a-dtoa.o)
                                                  /home/reymondo/CodeSourcery/Sourcery_G++_Lite/bin/../lib/gcc/arm-none-eabi/4.5.2/../../../../arm-none-eabi/lib/thumb2/libstdc++.a(eh_alloc.o)
                                                  /home/reymondo/CodeSourcery/Sourcery_G++_Lite/bin/../lib/gcc/arm-none-eabi/4.5.2/../../../../arm-none-eabi/lib/thumb2/libstdc++.a(new_op.o)
memchr                                            /home/reymondo/CodeSourcery/Sourcery_G++_Lite/bin/../lib/gcc/arm-none-eabi/4.5.2/../../../../arm-none-eabi/lib/thumb2/libc.a(lib_a-memchr.o)
                                                  /home/reymondo/CodeSourcery/Sourcery_G++_Lite/bin/../lib/gcc/arm-none-eabi/4.5.2/../../../../arm-none-eabi/lib/thumb2/libc.a(lib_a-svfiprintf.o)
                                                  /home/reymondo/CodeSourcery/Sourcery_G++_Lite/bin/../lib/gcc/arm-none-eabi/4.5.2/../../../../arm-none-eabi/lib/thumb2/libc.a(lib_a-svfprintf.o)
                                                  /home/reymondo/CodeSourcery/Sourcery_G++_Lite/bin/../lib/gcc/arm-none-eabi/4.5.2/../../../../arm-none-eabi/lib/thumb2/libc.a(lib_a-fvwrite.o)
memcmp                                            /home/reymondo/CodeSourcery/Sourcery_G++_Lite/bin/../lib/gcc/arm-none-eabi/4.5.2/../../../../arm-none-eabi/lib/thumb2/libc.a(lib_a-memcmp.o)
                                                  /home/reymondo/CodeSourcery/Sourcery_G++_Lite/bin/../lib/gcc/arm-none-eabi/4.5.2/../../../../arm-none-eabi/lib/thumb2/libstdc++.a(cp-demangle.o)
memcpy                                            /home/reymondo/CodeSourcery/Sourcery_G++_Lite/bin/../lib/gcc/arm-none-eabi/4.5.2/../../../../arm-none-eabi/lib/thumb2/libc.a(lib_a-memcpy.o)
                                                  /home/reymondo/CodeSourcery/Sourcery_G++_Lite/bin/../lib/gcc/arm-none-eabi/4.5.2/../../../../arm-none-eabi/lib/thumb2/libc.a(lib_a-svfiprintf.o)
                                                  /home/reymondo/CodeSourcery/Sourcery_G++_Lite/bin/../lib/gcc/arm-none-eabi/4.5.2/../../../../arm-none-eabi/lib/thumb2/libc.a(lib_a-mprec.o)
                                                  /home/reymondo/CodeSourcery/Sourcery_G++_Lite/bin/../lib/gcc/arm-none-eabi/4.5.2/../../../../arm-none-eabi/lib/thumb2/libc.a(lib_a-dtoa.o)
                                                  /home/reymondo/CodeSourcery/Sourcery_G++_Lite/bin/../lib/gcc/arm-none-eabi/4.5.2/../../../../arm-none-eabi/lib/thumb2/libc.a(lib_a-fvwrite.o)
                                                  /home/reymondo/CodeSourcery/Sourcery_G++_Lite/bin/../lib/gcc/arm-none-eabi/4.5.2/thumb2/libgcc.a(unwind-arm.o)
                                                  /home/reymondo/CodeSourcery/Sourcery_G++_Lite/bin/../lib/gcc/arm-none-eabi/4.5.2/../../../../arm-none-eabi/lib/thumb2/libstdc++.a(cp-demangle.o)
memmove                                           /home/reymondo/CodeSourcery/Sourcery_G++_Lite/bin/../lib/gcc/arm-none-eabi/4.5.2/../../../../arm-none-eabi/lib/thumb2/libc.a(lib_a-memmove.o)
                                                  /home/reymondo/CodeSourcery/Sourcery_G++_Lite/bin/../lib/gcc/arm-none-eabi/4.5.2/../../../../arm-none-eabi/lib/thumb2/libc.a(lib_a-svfiprintf.o)
                                                  /home/reymondo/CodeSourcery/Sourcery_G++_Lite/bin/../lib/gcc/arm-none-eabi/4.5.2/../../../../arm-none-eabi/lib/thumb2/libc.a(lib_a-reallocr.o)
                                                  /home/reymondo/CodeSourcery/Sourcery_G++_Lite/bin/../lib/gcc/arm-none-eabi/4.5.2/../../../../arm-none-eabi/lib/thumb2/libc.a(lib_a-fvwrite.o)
memset                                            /home/reymondo/CodeSourcery/Sourcery_G++_Lite/bin/../lib/gcc/arm-none-eabi/4.5.2/../../../../arm-none-eabi/lib/thumb2/libc.a(lib_a-memset.o)
                                                  /home/reymondo/CodeSourcery/Sourcery_G++_Lite/bin/../lib/gcc/arm-none-eabi/4.5.2/../../../../arm-none-eabi/lib/thumb2/libc.a(lib_a-callocr.o)
                                                  /home/reymondo/CodeSourcery/Sourcery_G++_Lite/bin/../lib/gcc/arm-none-eabi/4.5.2/../../../../arm-none-eabi/lib/thumb2/libc.a(lib_a-findfp.o)
                                                  /home/reymondo/CodeSourcery/Sourcery_G++_Lite/bin/../lib/gcc/arm-none-eabi/4.5.2/../../../../arm-none-eabi/lib/thumb2/libstdc++.a(eh_alloc.o)
operator delete(void*)                            /home/reymondo/CodeSourcery/Sourcery_G++_Lite/bin/../lib/gcc/arm-none-eabi/4.5.2/../../../../arm-none-eabi/lib/thumb2/libstdc++.a(del_op.o)
                                                  /home/reymondo/CodeSourcery/Sourcery_G++_Lite/bin/../lib/gcc/arm-none-eabi/4.5.2/../../../../arm-none-eabi/lib/thumb2/libstdc++.a(tinfo.o)
                                                  /home/reymondo/CodeSourcery/Sourcery_G++_Lite/bin/../lib/gcc/arm-none-eabi/4.5.2/../../../../arm-none-eabi/lib/thumb2/libstdc++.a(class_type_info.o)
                                                  /home/reymondo/CodeSourcery/Sourcery_G++_Lite/bin/../lib/gcc/arm-none-eabi/4.5.2/../../../../arm-none-eabi/lib/thumb2/libstdc++.a(si_class_type_info.o)
                                                  /home/reymondo/CodeSourcery/Sourcery_G++_Lite/bin/../lib/gcc/arm-none-eabi/4.5.2/../../../../arm-none-eabi/lib/thumb2/libstdc++.a(eh_exception.o)
                                                  /home/reymondo/CodeSourcery/Sourcery_G++_Lite/bin/../lib/gcc/arm-none-eabi/4.5.2/../../../../arm-none-eabi/lib/thumb2/libstdc++.a(new_handler.o)
                                                  out/CUsartStateUsable.o
                                                  out/CUsartStateUnusable.o
                                                  out/CUsartStateRunning.o
                                                  out/CUsartIrqHandler.o
                                                  out/main.o
operator new(unsigned int)                        /home/reymondo/CodeSourcery/Sourcery_G++_Lite/bin/../lib/gcc/arm-none-eabi/4.5.2/../../../../arm-none-eabi/lib/thumb2/libstdc++.a(new_op.o)
                                                  out/CUsartStateUsable.o
                                                  out/CUsartStateUnusable.o
                                                  out/CUsartStateRunning.o
                                                  out/main.o
putc                                              /home/reymondo/CodeSourcery/Sourcery_G++_Lite/bin/../lib/gcc/arm-none-eabi/4.5.2/../../../../arm-none-eabi/lib/thumb2/libc.a(lib_a-putc.o)
raise                                             /home/reymondo/CodeSourcery/Sourcery_G++_Lite/bin/../lib/gcc/arm-none-eabi/4.5.2/../../../../arm-none-eabi/lib/thumb2/libc.a(lib_a-signal.o)
                                                  /home/reymondo/CodeSourcery/Sourcery_G++_Lite/bin/../lib/gcc/arm-none-eabi/4.5.2/../../../../arm-none-eabi/lib/thumb2/libc.a(lib_a-abort.o)
realloc                                           /home/reymondo/CodeSourcery/Sourcery_G++_Lite/bin/../lib/gcc/arm-none-eabi/4.5.2/../../../../arm-none-eabi/lib/thumb2/libc.a(lib_a-realloc.o)
                                                  /home/reymondo/CodeSourcery/Sourcery_G++_Lite/bin/../lib/gcc/arm-none-eabi/4.5.2/../../../../arm-none-eabi/lib/thumb2/libstdc++.a(cp-demangle.o)
restore_core_regs                                 /home/reymondo/CodeSourcery/Sourcery_G++_Lite/bin/../lib/gcc/arm-none-eabi/4.5.2/thumb2/libgcc.a(libunwind.o)
                                                  /home/reymondo/CodeSourcery/Sourcery_G++_Lite/bin/../lib/gcc/arm-none-eabi/4.5.2/thumb2/libgcc.a(unwind-arm.o)
setlocale                                         /home/reymondo/CodeSourcery/Sourcery_G++_Lite/bin/../lib/gcc/arm-none-eabi/4.5.2/../../../../arm-none-eabi/lib/thumb2/libc.a(lib_a-locale.o)
signal                                            /home/reymondo/CodeSourcery/Sourcery_G++_Lite/bin/../lib/gcc/arm-none-eabi/4.5.2/../../../../arm-none-eabi/lib/thumb2/libc.a(lib_a-signal.o)
sprintf                                           /home/reymondo/CodeSourcery/Sourcery_G++_Lite/bin/../lib/gcc/arm-none-eabi/4.5.2/../../../../arm-none-eabi/lib/thumb2/libc.a(lib_a-sprintf.o)
                                                  /home/reymondo/CodeSourcery/Sourcery_G++_Lite/bin/../lib/gcc/arm-none-eabi/4.5.2/../../../../arm-none-eabi/lib/thumb2/libstdc++.a(cp-demangle.o)
std::bad_alloc::what() const                      /home/reymondo/CodeSourcery/Sourcery_G++_Lite/bin/../lib/gcc/arm-none-eabi/4.5.2/../../../../arm-none-eabi/lib/thumb2/libstdc++.a(new_handler.o)
std::bad_alloc::~bad_alloc()                      /home/reymondo/CodeSourcery/Sourcery_G++_Lite/bin/../lib/gcc/arm-none-eabi/4.5.2/../../../../arm-none-eabi/lib/thumb2/libstdc++.a(new_handler.o)
std::bad_alloc::~bad_alloc()                      /home/reymondo/CodeSourcery/Sourcery_G++_Lite/bin/../lib/gcc/arm-none-eabi/4.5.2/../../../../arm-none-eabi/lib/thumb2/libstdc++.a(new_handler.o)
std::bad_alloc::~bad_alloc()                      /home/reymondo/CodeSourcery/Sourcery_G++_Lite/bin/../lib/gcc/arm-none-eabi/4.5.2/../../../../arm-none-eabi/lib/thumb2/libstdc++.a(new_handler.o)
                                                  /home/reymondo/CodeSourcery/Sourcery_G++_Lite/bin/../lib/gcc/arm-none-eabi/4.5.2/../../../../arm-none-eabi/lib/thumb2/libstdc++.a(new_op.o)
std::bad_exception::what() const                  /home/reymondo/CodeSourcery/Sourcery_G++_Lite/bin/../lib/gcc/arm-none-eabi/4.5.2/../../../../arm-none-eabi/lib/thumb2/libstdc++.a(eh_exception.o)
std::bad_exception::~bad_exception()              /home/reymondo/CodeSourcery/Sourcery_G++_Lite/bin/../lib/gcc/arm-none-eabi/4.5.2/../../../../arm-none-eabi/lib/thumb2/libstdc++.a(eh_exception.o)
std::bad_exception::~bad_exception()              /home/reymondo/CodeSourcery/Sourcery_G++_Lite/bin/../lib/gcc/arm-none-eabi/4.5.2/../../../../arm-none-eabi/lib/thumb2/libstdc++.a(eh_exception.o)
                                                  /home/reymondo/CodeSourcery/Sourcery_G++_Lite/bin/../lib/gcc/arm-none-eabi/4.5.2/../../../../arm-none-eabi/lib/thumb2/libstdc++.a(eh_call.o)
std::bad_exception::~bad_exception()              /home/reymondo/CodeSourcery/Sourcery_G++_Lite/bin/../lib/gcc/arm-none-eabi/4.5.2/../../../../arm-none-eabi/lib/thumb2/libstdc++.a(eh_exception.o)
std::exception::what() const                      /home/reymondo/CodeSourcery/Sourcery_G++_Lite/bin/../lib/gcc/arm-none-eabi/4.5.2/../../../../arm-none-eabi/lib/thumb2/libstdc++.a(eh_exception.o)
std::exception::~exception()                      /home/reymondo/CodeSourcery/Sourcery_G++_Lite/bin/../lib/gcc/arm-none-eabi/4.5.2/../../../../arm-none-eabi/lib/thumb2/libstdc++.a(eh_exception.o)
                                                  /home/reymondo/CodeSourcery/Sourcery_G++_Lite/bin/../lib/gcc/arm-none-eabi/4.5.2/../../../../arm-none-eabi/lib/thumb2/libstdc++.a(new_handler.o)
std::exception::~exception()                      /home/reymondo/CodeSourcery/Sourcery_G++_Lite/bin/../lib/gcc/arm-none-eabi/4.5.2/../../../../arm-none-eabi/lib/thumb2/libstdc++.a(eh_exception.o)
std::exception::~exception()                      /home/reymondo/CodeSourcery/Sourcery_G++_Lite/bin/../lib/gcc/arm-none-eabi/4.5.2/../../../../arm-none-eabi/lib/thumb2/libstdc++.a(eh_exception.o)
std::nothrow                                      /home/reymondo/CodeSourcery/Sourcery_G++_Lite/bin/../lib/gcc/arm-none-eabi/4.5.2/../../../../arm-none-eabi/lib/thumb2/libstdc++.a(new_handler.o)
std::set_new_handler(void (*)())                  /home/reymondo/CodeSourcery/Sourcery_G++_Lite/bin/../lib/gcc/arm-none-eabi/4.5.2/../../../../arm-none-eabi/lib/thumb2/libstdc++.a(new_handler.o)
std::set_terminate(void (*)())                    /home/reymondo/CodeSourcery/Sourcery_G++_Lite/bin/../lib/gcc/arm-none-eabi/4.5.2/../../../../arm-none-eabi/lib/thumb2/libstdc++.a(eh_terminate.o)
std::set_unexpected(void (*)())                   /home/reymondo/CodeSourcery/Sourcery_G++_Lite/bin/../lib/gcc/arm-none-eabi/4.5.2/../../../../arm-none-eabi/lib/thumb2/libstdc++.a(eh_terminate.o)
std::terminate()                                  /home/reymondo/CodeSourcery/Sourcery_G++_Lite/bin/../lib/gcc/arm-none-eabi/4.5.2/../../../../arm-none-eabi/lib/thumb2/libstdc++.a(eh_terminate.o)
                                                  /home/reymondo/CodeSourcery/Sourcery_G++_Lite/bin/../lib/gcc/arm-none-eabi/4.5.2/../../../../arm-none-eabi/lib/thumb2/libstdc++.a(eh_call.o)
                                                  /home/reymondo/CodeSourcery/Sourcery_G++_Lite/bin/../lib/gcc/arm-none-eabi/4.5.2/../../../../arm-none-eabi/lib/thumb2/libstdc++.a(eh_alloc.o)
                                                  /home/reymondo/CodeSourcery/Sourcery_G++_Lite/bin/../lib/gcc/arm-none-eabi/4.5.2/../../../../arm-none-eabi/lib/thumb2/libstdc++.a(eh_arm.o)
                                                  /home/reymondo/CodeSourcery/Sourcery_G++_Lite/bin/../lib/gcc/arm-none-eabi/4.5.2/../../../../arm-none-eabi/lib/thumb2/libstdc++.a(eh_catch.o)
                                                  /home/reymondo/CodeSourcery/Sourcery_G++_Lite/bin/../lib/gcc/arm-none-eabi/4.5.2/../../../../arm-none-eabi/lib/thumb2/libstdc++.a(eh_unex_handler.o)
                                                  /home/reymondo/CodeSourcery/Sourcery_G++_Lite/bin/../lib/gcc/arm-none-eabi/4.5.2/../../../../arm-none-eabi/lib/thumb2/libstdc++.a(pure.o)
                                                  /home/reymondo/CodeSourcery/Sourcery_G++_Lite/bin/../lib/gcc/arm-none-eabi/4.5.2/../../../../arm-none-eabi/lib/thumb2/libstdc++.a(eh_throw.o)
                                                  /home/reymondo/CodeSourcery/Sourcery_G++_Lite/bin/../lib/gcc/arm-none-eabi/4.5.2/../../../../arm-none-eabi/lib/thumb2/libstdc++.a(eh_personality.o)
std::type_info::__do_catch(std::type_info const*, void**, unsigned int) const /home/reymondo/CodeSourcery/Sourcery_G++_Lite/bin/../lib/gcc/arm-none-eabi/4.5.2/../../../../arm-none-eabi/lib/thumb2/libstdc++.a(tinfo.o)
std::type_info::__do_upcast(__cxxabiv1::__class_type_info const*, void**) const /home/reymondo/CodeSourcery/Sourcery_G++_Lite/bin/../lib/gcc/arm-none-eabi/4.5.2/../../../../arm-none-eabi/lib/thumb2/libstdc++.a(tinfo.o)
std::type_info::__is_function_p() const           /home/reymondo/CodeSourcery/Sourcery_G++_Lite/bin/../lib/gcc/arm-none-eabi/4.5.2/../../../../arm-none-eabi/lib/thumb2/libstdc++.a(tinfo.o)
                                                  /home/reymondo/CodeSourcery/Sourcery_G++_Lite/bin/../lib/gcc/arm-none-eabi/4.5.2/../../../../arm-none-eabi/lib/thumb2/libstdc++.a(class_type_info.o)
                                                  /home/reymondo/CodeSourcery/Sourcery_G++_Lite/bin/../lib/gcc/arm-none-eabi/4.5.2/../../../../arm-none-eabi/lib/thumb2/libstdc++.a(si_class_type_info.o)
std::type_info::__is_pointer_p() const            /home/reymondo/CodeSourcery/Sourcery_G++_Lite/bin/../lib/gcc/arm-none-eabi/4.5.2/../../../../arm-none-eabi/lib/thumb2/libstdc++.a(tinfo.o)
                                                  /home/reymondo/CodeSourcery/Sourcery_G++_Lite/bin/../lib/gcc/arm-none-eabi/4.5.2/../../../../arm-none-eabi/lib/thumb2/libstdc++.a(class_type_info.o)
                                                  /home/reymondo/CodeSourcery/Sourcery_G++_Lite/bin/../lib/gcc/arm-none-eabi/4.5.2/../../../../arm-none-eabi/lib/thumb2/libstdc++.a(si_class_type_info.o)
std::type_info::operator==(std::type_info const&) const /home/reymondo/CodeSourcery/Sourcery_G++_Lite/bin/../lib/gcc/arm-none-eabi/4.5.2/../../../../arm-none-eabi/lib/thumb2/libstdc++.a(tinfo.o)
                                                  /home/reymondo/CodeSourcery/Sourcery_G++_Lite/bin/../lib/gcc/arm-none-eabi/4.5.2/../../../../arm-none-eabi/lib/thumb2/libstdc++.a(class_type_info.o)
                                                  /home/reymondo/CodeSourcery/Sourcery_G++_Lite/bin/../lib/gcc/arm-none-eabi/4.5.2/../../../../arm-none-eabi/lib/thumb2/libstdc++.a(si_class_type_info.o)
std::type_info::~type_info()                      /home/reymondo/CodeSourcery/Sourcery_G++_Lite/bin/../lib/gcc/arm-none-eabi/4.5.2/../../../../arm-none-eabi/lib/thumb2/libstdc++.a(tinfo.o)
std::type_info::~type_info()                      /home/reymondo/CodeSourcery/Sourcery_G++_Lite/bin/../lib/gcc/arm-none-eabi/4.5.2/../../../../arm-none-eabi/lib/thumb2/libstdc++.a(tinfo.o)
std::type_info::~type_info()                      /home/reymondo/CodeSourcery/Sourcery_G++_Lite/bin/../lib/gcc/arm-none-eabi/4.5.2/../../../../arm-none-eabi/lib/thumb2/libstdc++.a(tinfo.o)
                                                  /home/reymondo/CodeSourcery/Sourcery_G++_Lite/bin/../lib/gcc/arm-none-eabi/4.5.2/../../../../arm-none-eabi/lib/thumb2/libstdc++.a(class_type_info.o)
std::uncaught_exception()                         /home/reymondo/CodeSourcery/Sourcery_G++_Lite/bin/../lib/gcc/arm-none-eabi/4.5.2/../../../../arm-none-eabi/lib/thumb2/libstdc++.a(eh_catch.o)
std::unexpected()                                 /home/reymondo/CodeSourcery/Sourcery_G++_Lite/bin/../lib/gcc/arm-none-eabi/4.5.2/../../../../arm-none-eabi/lib/thumb2/libstdc++.a(eh_terminate.o)
                                                  /home/reymondo/CodeSourcery/Sourcery_G++_Lite/bin/../lib/gcc/arm-none-eabi/4.5.2/../../../../arm-none-eabi/lib/thumb2/libstdc++.a(eh_call.o)
                                                  /home/reymondo/CodeSourcery/Sourcery_G++_Lite/bin/../lib/gcc/arm-none-eabi/4.5.2/../../../../arm-none-eabi/lib/thumb2/libstdc++.a(eh_personality.o)
strcmp                                            /home/reymondo/CodeSourcery/Sourcery_G++_Lite/bin/../lib/gcc/arm-none-eabi/4.5.2/../../../../arm-none-eabi/lib/thumb2/libc.a(lib_a-strcmp.o)
                                                  /home/reymondo/CodeSourcery/Sourcery_G++_Lite/bin/../lib/gcc/arm-none-eabi/4.5.2/../../../../arm-none-eabi/lib/thumb2/libc.a(lib_a-locale.o)
                                                  /home/reymondo/CodeSourcery/Sourcery_G++_Lite/bin/../lib/gcc/arm-none-eabi/4.5.2/../../../../arm-none-eabi/lib/thumb2/libstdc++.a(tinfo.o)
                                                  /home/reymondo/CodeSourcery/Sourcery_G++_Lite/bin/../lib/gcc/arm-none-eabi/4.5.2/../../../../arm-none-eabi/lib/thumb2/libstdc++.a(cp-demangle.o)
strcpy                                            /home/reymondo/CodeSourcery/Sourcery_G++_Lite/bin/../lib/gcc/arm-none-eabi/4.5.2/../../../../arm-none-eabi/lib/thumb2/libc.a(lib_a-strcpy.o)
                                                  /home/reymondo/CodeSourcery/Sourcery_G++_Lite/bin/../lib/gcc/arm-none-eabi/4.5.2/../../../../arm-none-eabi/lib/thumb2/libstdc++.a(cp-demangle.o)
strlen                                            /home/reymondo/CodeSourcery/Sourcery_G++_Lite/bin/../lib/gcc/arm-none-eabi/4.5.2/../../../../arm-none-eabi/lib/thumb2/libc.a(lib_a-strlen.o)
                                                  /home/reymondo/CodeSourcery/Sourcery_G++_Lite/bin/../lib/gcc/arm-none-eabi/4.5.2/../../../../arm-none-eabi/lib/thumb2/libc.a(lib_a-svfiprintf.o)
                                                  /home/reymondo/CodeSourcery/Sourcery_G++_Lite/bin/../lib/gcc/arm-none-eabi/4.5.2/../../../../arm-none-eabi/lib/thumb2/libc.a(lib_a-svfprintf.o)
                                                  /home/reymondo/CodeSourcery/Sourcery_G++_Lite/bin/../lib/gcc/arm-none-eabi/4.5.2/../../../../arm-none-eabi/lib/thumb2/libc.a(lib_a-fputs.o)
                                                  /home/reymondo/CodeSourcery/Sourcery_G++_Lite/bin/../lib/gcc/arm-none-eabi/4.5.2/../../../../arm-none-eabi/lib/thumb2/libstdc++.a(cp-demangle.o)
strncmp                                           /home/reymondo/CodeSourcery/Sourcery_G++_Lite/bin/../lib/gcc/arm-none-eabi/4.5.2/../../../../arm-none-eabi/lib/thumb2/libc.a(lib_a-strncmp.o)
                                                  /home/reymondo/CodeSourcery/Sourcery_G++_Lite/bin/../lib/gcc/arm-none-eabi/4.5.2/../../../../arm-none-eabi/lib/thumb2/libstdc++.a(cp-demangle.o)
typeinfo for __cxxabiv1::__class_type_info        /home/reymondo/CodeSourcery/Sourcery_G++_Lite/bin/../lib/gcc/arm-none-eabi/4.5.2/../../../../arm-none-eabi/lib/thumb2/libstdc++.a(class_type_info.o)
                                                  /home/reymondo/CodeSourcery/Sourcery_G++_Lite/bin/../lib/gcc/arm-none-eabi/4.5.2/../../../../arm-none-eabi/lib/thumb2/libstdc++.a(si_class_type_info.o)
typeinfo for __cxxabiv1::__forced_unwind          /home/reymondo/CodeSourcery/Sourcery_G++_Lite/bin/../lib/gcc/arm-none-eabi/4.5.2/../../../../arm-none-eabi/lib/thumb2/libstdc++.a(eh_exception.o)
                                                  /home/reymondo/CodeSourcery/Sourcery_G++_Lite/bin/../lib/gcc/arm-none-eabi/4.5.2/../../../../arm-none-eabi/lib/thumb2/libstdc++.a(eh_arm.o)
typeinfo for __cxxabiv1::__foreign_exception      /home/reymondo/CodeSourcery/Sourcery_G++_Lite/bin/../lib/gcc/arm-none-eabi/4.5.2/../../../../arm-none-eabi/lib/thumb2/libstdc++.a(eh_exception.o)
                                                  /home/reymondo/CodeSourcery/Sourcery_G++_Lite/bin/../lib/gcc/arm-none-eabi/4.5.2/../../../../arm-none-eabi/lib/thumb2/libstdc++.a(eh_arm.o)
typeinfo for __cxxabiv1::__si_class_type_info     /home/reymondo/CodeSourcery/Sourcery_G++_Lite/bin/../lib/gcc/arm-none-eabi/4.5.2/../../../../arm-none-eabi/lib/thumb2/libstdc++.a(si_class_type_info.o)
typeinfo for std::bad_alloc                       /home/reymondo/CodeSourcery/Sourcery_G++_Lite/bin/../lib/gcc/arm-none-eabi/4.5.2/../../../../arm-none-eabi/lib/thumb2/libstdc++.a(new_handler.o)
                                                  /home/reymondo/CodeSourcery/Sourcery_G++_Lite/bin/../lib/gcc/arm-none-eabi/4.5.2/../../../../arm-none-eabi/lib/thumb2/libstdc++.a(new_op.o)
typeinfo for std::bad_exception                   /home/reymondo/CodeSourcery/Sourcery_G++_Lite/bin/../lib/gcc/arm-none-eabi/4.5.2/../../../../arm-none-eabi/lib/thumb2/libstdc++.a(eh_exception.o)
                                                  /home/reymondo/CodeSourcery/Sourcery_G++_Lite/bin/../lib/gcc/arm-none-eabi/4.5.2/../../../../arm-none-eabi/lib/thumb2/libstdc++.a(eh_call.o)
typeinfo for std::exception                       /home/reymondo/CodeSourcery/Sourcery_G++_Lite/bin/../lib/gcc/arm-none-eabi/4.5.2/../../../../arm-none-eabi/lib/thumb2/libstdc++.a(eh_exception.o)
                                                  /home/reymondo/CodeSourcery/Sourcery_G++_Lite/bin/../lib/gcc/arm-none-eabi/4.5.2/../../../../arm-none-eabi/lib/thumb2/libstdc++.a(vterminate.o)
                                                  /home/reymondo/CodeSourcery/Sourcery_G++_Lite/bin/../lib/gcc/arm-none-eabi/4.5.2/../../../../arm-none-eabi/lib/thumb2/libstdc++.a(new_handler.o)
typeinfo for std::type_info                       /home/reymondo/CodeSourcery/Sourcery_G++_Lite/bin/../lib/gcc/arm-none-eabi/4.5.2/../../../../arm-none-eabi/lib/thumb2/libstdc++.a(tinfo.o)
                                                  /home/reymondo/CodeSourcery/Sourcery_G++_Lite/bin/../lib/gcc/arm-none-eabi/4.5.2/../../../../arm-none-eabi/lib/thumb2/libstdc++.a(class_type_info.o)
typeinfo name for __cxxabiv1::__class_type_info   /home/reymondo/CodeSourcery/Sourcery_G++_Lite/bin/../lib/gcc/arm-none-eabi/4.5.2/../../../../arm-none-eabi/lib/thumb2/libstdc++.a(class_type_info.o)
typeinfo name for __cxxabiv1::__forced_unwind     /home/reymondo/CodeSourcery/Sourcery_G++_Lite/bin/../lib/gcc/arm-none-eabi/4.5.2/../../../../arm-none-eabi/lib/thumb2/libstdc++.a(eh_exception.o)
typeinfo name for __cxxabiv1::__foreign_exception /home/reymondo/CodeSourcery/Sourcery_G++_Lite/bin/../lib/gcc/arm-none-eabi/4.5.2/../../../../arm-none-eabi/lib/thumb2/libstdc++.a(eh_exception.o)
typeinfo name for __cxxabiv1::__si_class_type_info /home/reymondo/CodeSourcery/Sourcery_G++_Lite/bin/../lib/gcc/arm-none-eabi/4.5.2/../../../../arm-none-eabi/lib/thumb2/libstdc++.a(si_class_type_info.o)
typeinfo name for std::bad_alloc                  /home/reymondo/CodeSourcery/Sourcery_G++_Lite/bin/../lib/gcc/arm-none-eabi/4.5.2/../../../../arm-none-eabi/lib/thumb2/libstdc++.a(new_handler.o)
typeinfo name for std::bad_exception              /home/reymondo/CodeSourcery/Sourcery_G++_Lite/bin/../lib/gcc/arm-none-eabi/4.5.2/../../../../arm-none-eabi/lib/thumb2/libstdc++.a(eh_exception.o)
typeinfo name for std::exception                  /home/reymondo/CodeSourcery/Sourcery_G++_Lite/bin/../lib/gcc/arm-none-eabi/4.5.2/../../../../arm-none-eabi/lib/thumb2/libstdc++.a(eh_exception.o)
typeinfo name for std::type_info                  /home/reymondo/CodeSourcery/Sourcery_G++_Lite/bin/../lib/gcc/arm-none-eabi/4.5.2/../../../../arm-none-eabi/lib/thumb2/libstdc++.a(tinfo.o)
vectors                                           out/vectors.o
vtable for CUsart<SUsart1>                        out/main.o
vtable for CUsartIrqHandler                       out/CUsartIrqHandler.o
vtable for CUsartState                            out/main.o
                                                  out/CUsartStateUsable.o
                                                  out/CUsartStateUnusable.o
                                                  out/CUsartStateRunning.o
vtable for CUsartStateRunning                     out/CUsartStateRunning.o
                                                  out/CUsartStateUsable.o
vtable for CUsartStateUnusable                    out/CUsartStateUnusable.o
                                                  out/CUsartStateUsable.o
                                                  out/main.o
vtable for CUsartStateUsable                      out/CUsartStateUsable.o
                                                  out/CUsartStateUnusable.o
                                                  out/CUsartStateRunning.o
vtable for IIrqHandler                            out/CUsartIrqHandler.o
vtable for IPeripheral                            out/main.o
vtable for __cxxabiv1::__class_type_info          /home/reymondo/CodeSourcery/Sourcery_G++_Lite/bin/../lib/gcc/arm-none-eabi/4.5.2/../../../../arm-none-eabi/lib/thumb2/libstdc++.a(class_type_info.o)
                                                  /home/reymondo/CodeSourcery/Sourcery_G++_Lite/bin/../lib/gcc/arm-none-eabi/4.5.2/../../../../arm-none-eabi/lib/thumb2/libstdc++.a(tinfo.o)
                                                  /home/reymondo/CodeSourcery/Sourcery_G++_Lite/bin/../lib/gcc/arm-none-eabi/4.5.2/../../../../arm-none-eabi/lib/thumb2/libstdc++.a(eh_exception.o)
vtable for __cxxabiv1::__forced_unwind            /home/reymondo/CodeSourcery/Sourcery_G++_Lite/bin/../lib/gcc/arm-none-eabi/4.5.2/../../../../arm-none-eabi/lib/thumb2/libstdc++.a(eh_exception.o)
vtable for __cxxabiv1::__foreign_exception        /home/reymondo/CodeSourcery/Sourcery_G++_Lite/bin/../lib/gcc/arm-none-eabi/4.5.2/../../../../arm-none-eabi/lib/thumb2/libstdc++.a(eh_exception.o)
vtable for __cxxabiv1::__si_class_type_info       /home/reymondo/CodeSourcery/Sourcery_G++_Lite/bin/../lib/gcc/arm-none-eabi/4.5.2/../../../../arm-none-eabi/lib/thumb2/libstdc++.a(si_class_type_info.o)
                                                  /home/reymondo/CodeSourcery/Sourcery_G++_Lite/bin/../lib/gcc/arm-none-eabi/4.5.2/../../../../arm-none-eabi/lib/thumb2/libstdc++.a(class_type_info.o)
                                                  /home/reymondo/CodeSourcery/Sourcery_G++_Lite/bin/../lib/gcc/arm-none-eabi/4.5.2/../../../../arm-none-eabi/lib/thumb2/libstdc++.a(eh_exception.o)
                                                  /home/reymondo/CodeSourcery/Sourcery_G++_Lite/bin/../lib/gcc/arm-none-eabi/4.5.2/../../../../arm-none-eabi/lib/thumb2/libstdc++.a(new_handler.o)
vtable for std::bad_alloc                         /home/reymondo/CodeSourcery/Sourcery_G++_Lite/bin/../lib/gcc/arm-none-eabi/4.5.2/../../../../arm-none-eabi/lib/thumb2/libstdc++.a(new_handler.o)
                                                  /home/reymondo/CodeSourcery/Sourcery_G++_Lite/bin/../lib/gcc/arm-none-eabi/4.5.2/../../../../arm-none-eabi/lib/thumb2/libstdc++.a(new_op.o)
vtable for std::bad_exception                     /home/reymondo/CodeSourcery/Sourcery_G++_Lite/bin/../lib/gcc/arm-none-eabi/4.5.2/../../../../arm-none-eabi/lib/thumb2/libstdc++.a(eh_exception.o)
                                                  /home/reymondo/CodeSourcery/Sourcery_G++_Lite/bin/../lib/gcc/arm-none-eabi/4.5.2/../../../../arm-none-eabi/lib/thumb2/libstdc++.a(eh_call.o)
vtable for std::exception                         /home/reymondo/CodeSourcery/Sourcery_G++_Lite/bin/../lib/gcc/arm-none-eabi/4.5.2/../../../../arm-none-eabi/lib/thumb2/libstdc++.a(eh_exception.o)
vtable for std::type_info                         /home/reymondo/CodeSourcery/Sourcery_G++_Lite/bin/../lib/gcc/arm-none-eabi/4.5.2/../../../../arm-none-eabi/lib/thumb2/libstdc++.a(tinfo.o)
write                                             /home/reymondo/CodeSourcery/Sourcery_G++_Lite/bin/../lib/gcc/arm-none-eabi/4.5.2/../../../../arm-none-eabi/lib/thumb2/libc.a(lib_a-syswrite.o)
                                                  /home/reymondo/CodeSourcery/Sourcery_G++_Lite/bin/../lib/gcc/arm-none-eabi/4.5.2/../../../../arm-none-eabi/lib/thumb2/libstdc++.a(pure.o)
