   1              		.syntax unified
   2              		.cpu cortex-m3
   3              		.fpu softvfp
   4              		.eabi_attribute 20, 1
   5              		.eabi_attribute 21, 1
   6              		.eabi_attribute 23, 3
   7              		.eabi_attribute 24, 1
   8              		.eabi_attribute 25, 1
   9              		.eabi_attribute 26, 1
  10              		.eabi_attribute 30, 4
  11              		.eabi_attribute 18, 4
  12              		.thumb
  13              		.file	"stm32f10x_can.c"
  23              	.Ltext0:
  24              		.file 1 "../Libraries/STM32F10x_StdPeriph_Driver/src/stm32f10x_can.c"
 18882              		.align	1
 18883              		.thumb
 18884              		.thumb_func
 18886              	CheckITStatus:
 18887              	.LFB53:
   1:../Libraries/STM32F10x_StdPeriph_Driver/src/stm32f10x_can.c **** /**
   2:../Libraries/STM32F10x_StdPeriph_Driver/src/stm32f10x_can.c ****   ******************************************************************************
   3:../Libraries/STM32F10x_StdPeriph_Driver/src/stm32f10x_can.c ****   * @file    stm32f10x_can.c
   4:../Libraries/STM32F10x_StdPeriph_Driver/src/stm32f10x_can.c ****   * @author  MCD Application Team
   5:../Libraries/STM32F10x_StdPeriph_Driver/src/stm32f10x_can.c ****   * @version V3.5.0
   6:../Libraries/STM32F10x_StdPeriph_Driver/src/stm32f10x_can.c ****   * @date    11-March-2011
   7:../Libraries/STM32F10x_StdPeriph_Driver/src/stm32f10x_can.c ****   * @brief   This file provides all the CAN firmware functions.
   8:../Libraries/STM32F10x_StdPeriph_Driver/src/stm32f10x_can.c ****   ******************************************************************************
   9:../Libraries/STM32F10x_StdPeriph_Driver/src/stm32f10x_can.c ****   * @attention
  10:../Libraries/STM32F10x_StdPeriph_Driver/src/stm32f10x_can.c ****   *
  11:../Libraries/STM32F10x_StdPeriph_Driver/src/stm32f10x_can.c ****   * THE PRESENT FIRMWARE WHICH IS FOR GUIDANCE ONLY AIMS AT PROVIDING CUSTOMERS
  12:../Libraries/STM32F10x_StdPeriph_Driver/src/stm32f10x_can.c ****   * WITH CODING INFORMATION REGARDING THEIR PRODUCTS IN ORDER FOR THEM TO SAVE
  13:../Libraries/STM32F10x_StdPeriph_Driver/src/stm32f10x_can.c ****   * TIME. AS A RESULT, STMICROELECTRONICS SHALL NOT BE HELD LIABLE FOR ANY
  14:../Libraries/STM32F10x_StdPeriph_Driver/src/stm32f10x_can.c ****   * DIRECT, INDIRECT OR CONSEQUENTIAL DAMAGES WITH RESPECT TO ANY CLAIMS ARISING
  15:../Libraries/STM32F10x_StdPeriph_Driver/src/stm32f10x_can.c ****   * FROM THE CONTENT OF SUCH FIRMWARE AND/OR THE USE MADE BY CUSTOMERS OF THE
  16:../Libraries/STM32F10x_StdPeriph_Driver/src/stm32f10x_can.c ****   * CODING INFORMATION CONTAINED HEREIN IN CONNECTION WITH THEIR PRODUCTS.
  17:../Libraries/STM32F10x_StdPeriph_Driver/src/stm32f10x_can.c ****   *
  18:../Libraries/STM32F10x_StdPeriph_Driver/src/stm32f10x_can.c ****   * <h2><center>&copy; COPYRIGHT 2011 STMicroelectronics</center></h2>
  19:../Libraries/STM32F10x_StdPeriph_Driver/src/stm32f10x_can.c ****   ******************************************************************************
  20:../Libraries/STM32F10x_StdPeriph_Driver/src/stm32f10x_can.c ****   */
  21:../Libraries/STM32F10x_StdPeriph_Driver/src/stm32f10x_can.c **** 
  22:../Libraries/STM32F10x_StdPeriph_Driver/src/stm32f10x_can.c **** /* Includes ------------------------------------------------------------------*/
  23:../Libraries/STM32F10x_StdPeriph_Driver/src/stm32f10x_can.c **** #include "stm32f10x_can.h"
  24:../Libraries/STM32F10x_StdPeriph_Driver/src/stm32f10x_can.c **** #include "stm32f10x_rcc.h"
  25:../Libraries/STM32F10x_StdPeriph_Driver/src/stm32f10x_can.c **** 
  26:../Libraries/STM32F10x_StdPeriph_Driver/src/stm32f10x_can.c **** /** @addtogroup STM32F10x_StdPeriph_Driver
  27:../Libraries/STM32F10x_StdPeriph_Driver/src/stm32f10x_can.c ****   * @{
  28:../Libraries/STM32F10x_StdPeriph_Driver/src/stm32f10x_can.c ****   */
  29:../Libraries/STM32F10x_StdPeriph_Driver/src/stm32f10x_can.c **** 
  30:../Libraries/STM32F10x_StdPeriph_Driver/src/stm32f10x_can.c **** /** @defgroup CAN 
  31:../Libraries/STM32F10x_StdPeriph_Driver/src/stm32f10x_can.c ****   * @brief CAN driver modules
  32:../Libraries/STM32F10x_StdPeriph_Driver/src/stm32f10x_can.c ****   * @{
  33:../Libraries/STM32F10x_StdPeriph_Driver/src/stm32f10x_can.c ****   */ 
  34:../Libraries/STM32F10x_StdPeriph_Driver/src/stm32f10x_can.c **** 
  35:../Libraries/STM32F10x_StdPeriph_Driver/src/stm32f10x_can.c **** /** @defgroup CAN_Private_TypesDefinitions
  36:../Libraries/STM32F10x_StdPeriph_Driver/src/stm32f10x_can.c ****   * @{
  37:../Libraries/STM32F10x_StdPeriph_Driver/src/stm32f10x_can.c ****   */
  38:../Libraries/STM32F10x_StdPeriph_Driver/src/stm32f10x_can.c **** 
  39:../Libraries/STM32F10x_StdPeriph_Driver/src/stm32f10x_can.c **** /**
  40:../Libraries/STM32F10x_StdPeriph_Driver/src/stm32f10x_can.c ****   * @}
  41:../Libraries/STM32F10x_StdPeriph_Driver/src/stm32f10x_can.c ****   */
  42:../Libraries/STM32F10x_StdPeriph_Driver/src/stm32f10x_can.c **** 
  43:../Libraries/STM32F10x_StdPeriph_Driver/src/stm32f10x_can.c **** /** @defgroup CAN_Private_Defines
  44:../Libraries/STM32F10x_StdPeriph_Driver/src/stm32f10x_can.c ****   * @{
  45:../Libraries/STM32F10x_StdPeriph_Driver/src/stm32f10x_can.c ****   */
  46:../Libraries/STM32F10x_StdPeriph_Driver/src/stm32f10x_can.c **** 
  47:../Libraries/STM32F10x_StdPeriph_Driver/src/stm32f10x_can.c **** /* CAN Master Control Register bits */
  48:../Libraries/STM32F10x_StdPeriph_Driver/src/stm32f10x_can.c **** 
  49:../Libraries/STM32F10x_StdPeriph_Driver/src/stm32f10x_can.c **** #define MCR_DBF      ((uint32_t)0x00010000) /* software master reset */
  50:../Libraries/STM32F10x_StdPeriph_Driver/src/stm32f10x_can.c **** 
  51:../Libraries/STM32F10x_StdPeriph_Driver/src/stm32f10x_can.c **** /* CAN Mailbox Transmit Request */
  52:../Libraries/STM32F10x_StdPeriph_Driver/src/stm32f10x_can.c **** #define TMIDxR_TXRQ  ((uint32_t)0x00000001) /* Transmit mailbox request */
  53:../Libraries/STM32F10x_StdPeriph_Driver/src/stm32f10x_can.c **** 
  54:../Libraries/STM32F10x_StdPeriph_Driver/src/stm32f10x_can.c **** /* CAN Filter Master Register bits */
  55:../Libraries/STM32F10x_StdPeriph_Driver/src/stm32f10x_can.c **** #define FMR_FINIT    ((uint32_t)0x00000001) /* Filter init mode */
  56:../Libraries/STM32F10x_StdPeriph_Driver/src/stm32f10x_can.c **** 
  57:../Libraries/STM32F10x_StdPeriph_Driver/src/stm32f10x_can.c **** /* Time out for INAK bit */
  58:../Libraries/STM32F10x_StdPeriph_Driver/src/stm32f10x_can.c **** #define INAK_TIMEOUT        ((uint32_t)0x0000FFFF)
  59:../Libraries/STM32F10x_StdPeriph_Driver/src/stm32f10x_can.c **** /* Time out for SLAK bit */
  60:../Libraries/STM32F10x_StdPeriph_Driver/src/stm32f10x_can.c **** #define SLAK_TIMEOUT        ((uint32_t)0x0000FFFF)
  61:../Libraries/STM32F10x_StdPeriph_Driver/src/stm32f10x_can.c **** 
  62:../Libraries/STM32F10x_StdPeriph_Driver/src/stm32f10x_can.c **** 
  63:../Libraries/STM32F10x_StdPeriph_Driver/src/stm32f10x_can.c **** 
  64:../Libraries/STM32F10x_StdPeriph_Driver/src/stm32f10x_can.c **** /* Flags in TSR register */
  65:../Libraries/STM32F10x_StdPeriph_Driver/src/stm32f10x_can.c **** #define CAN_FLAGS_TSR              ((uint32_t)0x08000000) 
  66:../Libraries/STM32F10x_StdPeriph_Driver/src/stm32f10x_can.c **** /* Flags in RF1R register */
  67:../Libraries/STM32F10x_StdPeriph_Driver/src/stm32f10x_can.c **** #define CAN_FLAGS_RF1R             ((uint32_t)0x04000000) 
  68:../Libraries/STM32F10x_StdPeriph_Driver/src/stm32f10x_can.c **** /* Flags in RF0R register */
  69:../Libraries/STM32F10x_StdPeriph_Driver/src/stm32f10x_can.c **** #define CAN_FLAGS_RF0R             ((uint32_t)0x02000000) 
  70:../Libraries/STM32F10x_StdPeriph_Driver/src/stm32f10x_can.c **** /* Flags in MSR register */
  71:../Libraries/STM32F10x_StdPeriph_Driver/src/stm32f10x_can.c **** #define CAN_FLAGS_MSR              ((uint32_t)0x01000000) 
  72:../Libraries/STM32F10x_StdPeriph_Driver/src/stm32f10x_can.c **** /* Flags in ESR register */
  73:../Libraries/STM32F10x_StdPeriph_Driver/src/stm32f10x_can.c **** #define CAN_FLAGS_ESR              ((uint32_t)0x00F00000) 
  74:../Libraries/STM32F10x_StdPeriph_Driver/src/stm32f10x_can.c **** 
  75:../Libraries/STM32F10x_StdPeriph_Driver/src/stm32f10x_can.c **** /* Mailboxes definition */
  76:../Libraries/STM32F10x_StdPeriph_Driver/src/stm32f10x_can.c **** #define CAN_TXMAILBOX_0                   ((uint8_t)0x00)
  77:../Libraries/STM32F10x_StdPeriph_Driver/src/stm32f10x_can.c **** #define CAN_TXMAILBOX_1                   ((uint8_t)0x01)
  78:../Libraries/STM32F10x_StdPeriph_Driver/src/stm32f10x_can.c **** #define CAN_TXMAILBOX_2                   ((uint8_t)0x02) 
  79:../Libraries/STM32F10x_StdPeriph_Driver/src/stm32f10x_can.c **** 
  80:../Libraries/STM32F10x_StdPeriph_Driver/src/stm32f10x_can.c **** 
  81:../Libraries/STM32F10x_StdPeriph_Driver/src/stm32f10x_can.c **** 
  82:../Libraries/STM32F10x_StdPeriph_Driver/src/stm32f10x_can.c **** #define CAN_MODE_MASK              ((uint32_t) 0x00000003)
  83:../Libraries/STM32F10x_StdPeriph_Driver/src/stm32f10x_can.c **** /**
  84:../Libraries/STM32F10x_StdPeriph_Driver/src/stm32f10x_can.c ****   * @}
  85:../Libraries/STM32F10x_StdPeriph_Driver/src/stm32f10x_can.c ****   */
  86:../Libraries/STM32F10x_StdPeriph_Driver/src/stm32f10x_can.c **** 
  87:../Libraries/STM32F10x_StdPeriph_Driver/src/stm32f10x_can.c **** /** @defgroup CAN_Private_Macros
  88:../Libraries/STM32F10x_StdPeriph_Driver/src/stm32f10x_can.c ****   * @{
  89:../Libraries/STM32F10x_StdPeriph_Driver/src/stm32f10x_can.c ****   */
  90:../Libraries/STM32F10x_StdPeriph_Driver/src/stm32f10x_can.c **** 
  91:../Libraries/STM32F10x_StdPeriph_Driver/src/stm32f10x_can.c **** /**
  92:../Libraries/STM32F10x_StdPeriph_Driver/src/stm32f10x_can.c ****   * @}
  93:../Libraries/STM32F10x_StdPeriph_Driver/src/stm32f10x_can.c ****   */
  94:../Libraries/STM32F10x_StdPeriph_Driver/src/stm32f10x_can.c **** 
  95:../Libraries/STM32F10x_StdPeriph_Driver/src/stm32f10x_can.c **** /** @defgroup CAN_Private_Variables
  96:../Libraries/STM32F10x_StdPeriph_Driver/src/stm32f10x_can.c ****   * @{
  97:../Libraries/STM32F10x_StdPeriph_Driver/src/stm32f10x_can.c ****   */
  98:../Libraries/STM32F10x_StdPeriph_Driver/src/stm32f10x_can.c **** 
  99:../Libraries/STM32F10x_StdPeriph_Driver/src/stm32f10x_can.c **** /**
 100:../Libraries/STM32F10x_StdPeriph_Driver/src/stm32f10x_can.c ****   * @}
 101:../Libraries/STM32F10x_StdPeriph_Driver/src/stm32f10x_can.c ****   */
 102:../Libraries/STM32F10x_StdPeriph_Driver/src/stm32f10x_can.c **** 
 103:../Libraries/STM32F10x_StdPeriph_Driver/src/stm32f10x_can.c **** /** @defgroup CAN_Private_FunctionPrototypes
 104:../Libraries/STM32F10x_StdPeriph_Driver/src/stm32f10x_can.c ****   * @{
 105:../Libraries/STM32F10x_StdPeriph_Driver/src/stm32f10x_can.c ****   */
 106:../Libraries/STM32F10x_StdPeriph_Driver/src/stm32f10x_can.c **** 
 107:../Libraries/STM32F10x_StdPeriph_Driver/src/stm32f10x_can.c **** static ITStatus CheckITStatus(uint32_t CAN_Reg, uint32_t It_Bit);
 108:../Libraries/STM32F10x_StdPeriph_Driver/src/stm32f10x_can.c **** 
 109:../Libraries/STM32F10x_StdPeriph_Driver/src/stm32f10x_can.c **** /**
 110:../Libraries/STM32F10x_StdPeriph_Driver/src/stm32f10x_can.c ****   * @}
 111:../Libraries/STM32F10x_StdPeriph_Driver/src/stm32f10x_can.c ****   */
 112:../Libraries/STM32F10x_StdPeriph_Driver/src/stm32f10x_can.c **** 
 113:../Libraries/STM32F10x_StdPeriph_Driver/src/stm32f10x_can.c **** /** @defgroup CAN_Private_Functions
 114:../Libraries/STM32F10x_StdPeriph_Driver/src/stm32f10x_can.c ****   * @{
 115:../Libraries/STM32F10x_StdPeriph_Driver/src/stm32f10x_can.c ****   */
 116:../Libraries/STM32F10x_StdPeriph_Driver/src/stm32f10x_can.c **** 
 117:../Libraries/STM32F10x_StdPeriph_Driver/src/stm32f10x_can.c **** /**
 118:../Libraries/STM32F10x_StdPeriph_Driver/src/stm32f10x_can.c ****   * @brief  Deinitializes the CAN peripheral registers to their default reset values.
 119:../Libraries/STM32F10x_StdPeriph_Driver/src/stm32f10x_can.c ****   * @param  CANx: where x can be 1 or 2 to select the CAN peripheral.
 120:../Libraries/STM32F10x_StdPeriph_Driver/src/stm32f10x_can.c ****   * @retval None.
 121:../Libraries/STM32F10x_StdPeriph_Driver/src/stm32f10x_can.c ****   */
 122:../Libraries/STM32F10x_StdPeriph_Driver/src/stm32f10x_can.c **** void CAN_DeInit(CAN_TypeDef* CANx)
 123:../Libraries/STM32F10x_StdPeriph_Driver/src/stm32f10x_can.c **** {
 124:../Libraries/STM32F10x_StdPeriph_Driver/src/stm32f10x_can.c ****   /* Check the parameters */
 125:../Libraries/STM32F10x_StdPeriph_Driver/src/stm32f10x_can.c ****   assert_param(IS_CAN_ALL_PERIPH(CANx));
 126:../Libraries/STM32F10x_StdPeriph_Driver/src/stm32f10x_can.c ****  
 127:../Libraries/STM32F10x_StdPeriph_Driver/src/stm32f10x_can.c ****   if (CANx == CAN1)
 128:../Libraries/STM32F10x_StdPeriph_Driver/src/stm32f10x_can.c ****   {
 129:../Libraries/STM32F10x_StdPeriph_Driver/src/stm32f10x_can.c ****     /* Enable CAN1 reset state */
 130:../Libraries/STM32F10x_StdPeriph_Driver/src/stm32f10x_can.c ****     RCC_APB1PeriphResetCmd(RCC_APB1Periph_CAN1, ENABLE);
 131:../Libraries/STM32F10x_StdPeriph_Driver/src/stm32f10x_can.c ****     /* Release CAN1 from reset state */
 132:../Libraries/STM32F10x_StdPeriph_Driver/src/stm32f10x_can.c ****     RCC_APB1PeriphResetCmd(RCC_APB1Periph_CAN1, DISABLE);
 133:../Libraries/STM32F10x_StdPeriph_Driver/src/stm32f10x_can.c ****   }
 134:../Libraries/STM32F10x_StdPeriph_Driver/src/stm32f10x_can.c ****   else
 135:../Libraries/STM32F10x_StdPeriph_Driver/src/stm32f10x_can.c ****   {  
 136:../Libraries/STM32F10x_StdPeriph_Driver/src/stm32f10x_can.c ****     /* Enable CAN2 reset state */
 137:../Libraries/STM32F10x_StdPeriph_Driver/src/stm32f10x_can.c ****     RCC_APB1PeriphResetCmd(RCC_APB1Periph_CAN2, ENABLE);
 138:../Libraries/STM32F10x_StdPeriph_Driver/src/stm32f10x_can.c ****     /* Release CAN2 from reset state */
 139:../Libraries/STM32F10x_StdPeriph_Driver/src/stm32f10x_can.c ****     RCC_APB1PeriphResetCmd(RCC_APB1Periph_CAN2, DISABLE);
 140:../Libraries/STM32F10x_StdPeriph_Driver/src/stm32f10x_can.c ****   }
 141:../Libraries/STM32F10x_StdPeriph_Driver/src/stm32f10x_can.c **** }
 142:../Libraries/STM32F10x_StdPeriph_Driver/src/stm32f10x_can.c **** 
 143:../Libraries/STM32F10x_StdPeriph_Driver/src/stm32f10x_can.c **** /**
 144:../Libraries/STM32F10x_StdPeriph_Driver/src/stm32f10x_can.c ****   * @brief  Initializes the CAN peripheral according to the specified
 145:../Libraries/STM32F10x_StdPeriph_Driver/src/stm32f10x_can.c ****   *         parameters in the CAN_InitStruct.
 146:../Libraries/STM32F10x_StdPeriph_Driver/src/stm32f10x_can.c ****   * @param  CANx:           where x can be 1 or 2 to to select the CAN 
 147:../Libraries/STM32F10x_StdPeriph_Driver/src/stm32f10x_can.c ****   *                         peripheral.
 148:../Libraries/STM32F10x_StdPeriph_Driver/src/stm32f10x_can.c ****   * @param  CAN_InitStruct: pointer to a CAN_InitTypeDef structure that
 149:../Libraries/STM32F10x_StdPeriph_Driver/src/stm32f10x_can.c ****   *                         contains the configuration information for the 
 150:../Libraries/STM32F10x_StdPeriph_Driver/src/stm32f10x_can.c ****   *                         CAN peripheral.
 151:../Libraries/STM32F10x_StdPeriph_Driver/src/stm32f10x_can.c ****   * @retval Constant indicates initialization succeed which will be 
 152:../Libraries/STM32F10x_StdPeriph_Driver/src/stm32f10x_can.c ****   *         CAN_InitStatus_Failed or CAN_InitStatus_Success.
 153:../Libraries/STM32F10x_StdPeriph_Driver/src/stm32f10x_can.c ****   */
 154:../Libraries/STM32F10x_StdPeriph_Driver/src/stm32f10x_can.c **** uint8_t CAN_Init(CAN_TypeDef* CANx, CAN_InitTypeDef* CAN_InitStruct)
 155:../Libraries/STM32F10x_StdPeriph_Driver/src/stm32f10x_can.c **** {
 156:../Libraries/STM32F10x_StdPeriph_Driver/src/stm32f10x_can.c ****   uint8_t InitStatus = CAN_InitStatus_Failed;
 157:../Libraries/STM32F10x_StdPeriph_Driver/src/stm32f10x_can.c ****   uint32_t wait_ack = 0x00000000;
 158:../Libraries/STM32F10x_StdPeriph_Driver/src/stm32f10x_can.c ****   /* Check the parameters */
 159:../Libraries/STM32F10x_StdPeriph_Driver/src/stm32f10x_can.c ****   assert_param(IS_CAN_ALL_PERIPH(CANx));
 160:../Libraries/STM32F10x_StdPeriph_Driver/src/stm32f10x_can.c ****   assert_param(IS_FUNCTIONAL_STATE(CAN_InitStruct->CAN_TTCM));
 161:../Libraries/STM32F10x_StdPeriph_Driver/src/stm32f10x_can.c ****   assert_param(IS_FUNCTIONAL_STATE(CAN_InitStruct->CAN_ABOM));
 162:../Libraries/STM32F10x_StdPeriph_Driver/src/stm32f10x_can.c ****   assert_param(IS_FUNCTIONAL_STATE(CAN_InitStruct->CAN_AWUM));
 163:../Libraries/STM32F10x_StdPeriph_Driver/src/stm32f10x_can.c ****   assert_param(IS_FUNCTIONAL_STATE(CAN_InitStruct->CAN_NART));
 164:../Libraries/STM32F10x_StdPeriph_Driver/src/stm32f10x_can.c ****   assert_param(IS_FUNCTIONAL_STATE(CAN_InitStruct->CAN_RFLM));
 165:../Libraries/STM32F10x_StdPeriph_Driver/src/stm32f10x_can.c ****   assert_param(IS_FUNCTIONAL_STATE(CAN_InitStruct->CAN_TXFP));
 166:../Libraries/STM32F10x_StdPeriph_Driver/src/stm32f10x_can.c ****   assert_param(IS_CAN_MODE(CAN_InitStruct->CAN_Mode));
 167:../Libraries/STM32F10x_StdPeriph_Driver/src/stm32f10x_can.c ****   assert_param(IS_CAN_SJW(CAN_InitStruct->CAN_SJW));
 168:../Libraries/STM32F10x_StdPeriph_Driver/src/stm32f10x_can.c ****   assert_param(IS_CAN_BS1(CAN_InitStruct->CAN_BS1));
 169:../Libraries/STM32F10x_StdPeriph_Driver/src/stm32f10x_can.c ****   assert_param(IS_CAN_BS2(CAN_InitStruct->CAN_BS2));
 170:../Libraries/STM32F10x_StdPeriph_Driver/src/stm32f10x_can.c ****   assert_param(IS_CAN_PRESCALER(CAN_InitStruct->CAN_Prescaler));
 171:../Libraries/STM32F10x_StdPeriph_Driver/src/stm32f10x_can.c **** 
 172:../Libraries/STM32F10x_StdPeriph_Driver/src/stm32f10x_can.c ****   /* Exit from sleep mode */
 173:../Libraries/STM32F10x_StdPeriph_Driver/src/stm32f10x_can.c ****   CANx->MCR &= (~(uint32_t)CAN_MCR_SLEEP);
 174:../Libraries/STM32F10x_StdPeriph_Driver/src/stm32f10x_can.c **** 
 175:../Libraries/STM32F10x_StdPeriph_Driver/src/stm32f10x_can.c ****   /* Request initialisation */
 176:../Libraries/STM32F10x_StdPeriph_Driver/src/stm32f10x_can.c ****   CANx->MCR |= CAN_MCR_INRQ ;
 177:../Libraries/STM32F10x_StdPeriph_Driver/src/stm32f10x_can.c **** 
 178:../Libraries/STM32F10x_StdPeriph_Driver/src/stm32f10x_can.c ****   /* Wait the acknowledge */
 179:../Libraries/STM32F10x_StdPeriph_Driver/src/stm32f10x_can.c ****   while (((CANx->MSR & CAN_MSR_INAK) != CAN_MSR_INAK) && (wait_ack != INAK_TIMEOUT))
 180:../Libraries/STM32F10x_StdPeriph_Driver/src/stm32f10x_can.c ****   {
 181:../Libraries/STM32F10x_StdPeriph_Driver/src/stm32f10x_can.c ****     wait_ack++;
 182:../Libraries/STM32F10x_StdPeriph_Driver/src/stm32f10x_can.c ****   }
 183:../Libraries/STM32F10x_StdPeriph_Driver/src/stm32f10x_can.c **** 
 184:../Libraries/STM32F10x_StdPeriph_Driver/src/stm32f10x_can.c ****   /* Check acknowledge */
 185:../Libraries/STM32F10x_StdPeriph_Driver/src/stm32f10x_can.c ****   if ((CANx->MSR & CAN_MSR_INAK) != CAN_MSR_INAK)
 186:../Libraries/STM32F10x_StdPeriph_Driver/src/stm32f10x_can.c ****   {
 187:../Libraries/STM32F10x_StdPeriph_Driver/src/stm32f10x_can.c ****     InitStatus = CAN_InitStatus_Failed;
 188:../Libraries/STM32F10x_StdPeriph_Driver/src/stm32f10x_can.c ****   }
 189:../Libraries/STM32F10x_StdPeriph_Driver/src/stm32f10x_can.c ****   else 
 190:../Libraries/STM32F10x_StdPeriph_Driver/src/stm32f10x_can.c ****   {
 191:../Libraries/STM32F10x_StdPeriph_Driver/src/stm32f10x_can.c ****     /* Set the time triggered communication mode */
 192:../Libraries/STM32F10x_StdPeriph_Driver/src/stm32f10x_can.c ****     if (CAN_InitStruct->CAN_TTCM == ENABLE)
 193:../Libraries/STM32F10x_StdPeriph_Driver/src/stm32f10x_can.c ****     {
 194:../Libraries/STM32F10x_StdPeriph_Driver/src/stm32f10x_can.c ****       CANx->MCR |= CAN_MCR_TTCM;
 195:../Libraries/STM32F10x_StdPeriph_Driver/src/stm32f10x_can.c ****     }
 196:../Libraries/STM32F10x_StdPeriph_Driver/src/stm32f10x_can.c ****     else
 197:../Libraries/STM32F10x_StdPeriph_Driver/src/stm32f10x_can.c ****     {
 198:../Libraries/STM32F10x_StdPeriph_Driver/src/stm32f10x_can.c ****       CANx->MCR &= ~(uint32_t)CAN_MCR_TTCM;
 199:../Libraries/STM32F10x_StdPeriph_Driver/src/stm32f10x_can.c ****     }
 200:../Libraries/STM32F10x_StdPeriph_Driver/src/stm32f10x_can.c **** 
 201:../Libraries/STM32F10x_StdPeriph_Driver/src/stm32f10x_can.c ****     /* Set the automatic bus-off management */
 202:../Libraries/STM32F10x_StdPeriph_Driver/src/stm32f10x_can.c ****     if (CAN_InitStruct->CAN_ABOM == ENABLE)
 203:../Libraries/STM32F10x_StdPeriph_Driver/src/stm32f10x_can.c ****     {
 204:../Libraries/STM32F10x_StdPeriph_Driver/src/stm32f10x_can.c ****       CANx->MCR |= CAN_MCR_ABOM;
 205:../Libraries/STM32F10x_StdPeriph_Driver/src/stm32f10x_can.c ****     }
 206:../Libraries/STM32F10x_StdPeriph_Driver/src/stm32f10x_can.c ****     else
 207:../Libraries/STM32F10x_StdPeriph_Driver/src/stm32f10x_can.c ****     {
 208:../Libraries/STM32F10x_StdPeriph_Driver/src/stm32f10x_can.c ****       CANx->MCR &= ~(uint32_t)CAN_MCR_ABOM;
 209:../Libraries/STM32F10x_StdPeriph_Driver/src/stm32f10x_can.c ****     }
 210:../Libraries/STM32F10x_StdPeriph_Driver/src/stm32f10x_can.c **** 
 211:../Libraries/STM32F10x_StdPeriph_Driver/src/stm32f10x_can.c ****     /* Set the automatic wake-up mode */
 212:../Libraries/STM32F10x_StdPeriph_Driver/src/stm32f10x_can.c ****     if (CAN_InitStruct->CAN_AWUM == ENABLE)
 213:../Libraries/STM32F10x_StdPeriph_Driver/src/stm32f10x_can.c ****     {
 214:../Libraries/STM32F10x_StdPeriph_Driver/src/stm32f10x_can.c ****       CANx->MCR |= CAN_MCR_AWUM;
 215:../Libraries/STM32F10x_StdPeriph_Driver/src/stm32f10x_can.c ****     }
 216:../Libraries/STM32F10x_StdPeriph_Driver/src/stm32f10x_can.c ****     else
 217:../Libraries/STM32F10x_StdPeriph_Driver/src/stm32f10x_can.c ****     {
 218:../Libraries/STM32F10x_StdPeriph_Driver/src/stm32f10x_can.c ****       CANx->MCR &= ~(uint32_t)CAN_MCR_AWUM;
 219:../Libraries/STM32F10x_StdPeriph_Driver/src/stm32f10x_can.c ****     }
 220:../Libraries/STM32F10x_StdPeriph_Driver/src/stm32f10x_can.c **** 
 221:../Libraries/STM32F10x_StdPeriph_Driver/src/stm32f10x_can.c ****     /* Set the no automatic retransmission */
 222:../Libraries/STM32F10x_StdPeriph_Driver/src/stm32f10x_can.c ****     if (CAN_InitStruct->CAN_NART == ENABLE)
 223:../Libraries/STM32F10x_StdPeriph_Driver/src/stm32f10x_can.c ****     {
 224:../Libraries/STM32F10x_StdPeriph_Driver/src/stm32f10x_can.c ****       CANx->MCR |= CAN_MCR_NART;
 225:../Libraries/STM32F10x_StdPeriph_Driver/src/stm32f10x_can.c ****     }
 226:../Libraries/STM32F10x_StdPeriph_Driver/src/stm32f10x_can.c ****     else
 227:../Libraries/STM32F10x_StdPeriph_Driver/src/stm32f10x_can.c ****     {
 228:../Libraries/STM32F10x_StdPeriph_Driver/src/stm32f10x_can.c ****       CANx->MCR &= ~(uint32_t)CAN_MCR_NART;
 229:../Libraries/STM32F10x_StdPeriph_Driver/src/stm32f10x_can.c ****     }
 230:../Libraries/STM32F10x_StdPeriph_Driver/src/stm32f10x_can.c **** 
 231:../Libraries/STM32F10x_StdPeriph_Driver/src/stm32f10x_can.c ****     /* Set the receive FIFO locked mode */
 232:../Libraries/STM32F10x_StdPeriph_Driver/src/stm32f10x_can.c ****     if (CAN_InitStruct->CAN_RFLM == ENABLE)
 233:../Libraries/STM32F10x_StdPeriph_Driver/src/stm32f10x_can.c ****     {
 234:../Libraries/STM32F10x_StdPeriph_Driver/src/stm32f10x_can.c ****       CANx->MCR |= CAN_MCR_RFLM;
 235:../Libraries/STM32F10x_StdPeriph_Driver/src/stm32f10x_can.c ****     }
 236:../Libraries/STM32F10x_StdPeriph_Driver/src/stm32f10x_can.c ****     else
 237:../Libraries/STM32F10x_StdPeriph_Driver/src/stm32f10x_can.c ****     {
 238:../Libraries/STM32F10x_StdPeriph_Driver/src/stm32f10x_can.c ****       CANx->MCR &= ~(uint32_t)CAN_MCR_RFLM;
 239:../Libraries/STM32F10x_StdPeriph_Driver/src/stm32f10x_can.c ****     }
 240:../Libraries/STM32F10x_StdPeriph_Driver/src/stm32f10x_can.c **** 
 241:../Libraries/STM32F10x_StdPeriph_Driver/src/stm32f10x_can.c ****     /* Set the transmit FIFO priority */
 242:../Libraries/STM32F10x_StdPeriph_Driver/src/stm32f10x_can.c ****     if (CAN_InitStruct->CAN_TXFP == ENABLE)
 243:../Libraries/STM32F10x_StdPeriph_Driver/src/stm32f10x_can.c ****     {
 244:../Libraries/STM32F10x_StdPeriph_Driver/src/stm32f10x_can.c ****       CANx->MCR |= CAN_MCR_TXFP;
 245:../Libraries/STM32F10x_StdPeriph_Driver/src/stm32f10x_can.c ****     }
 246:../Libraries/STM32F10x_StdPeriph_Driver/src/stm32f10x_can.c ****     else
 247:../Libraries/STM32F10x_StdPeriph_Driver/src/stm32f10x_can.c ****     {
 248:../Libraries/STM32F10x_StdPeriph_Driver/src/stm32f10x_can.c ****       CANx->MCR &= ~(uint32_t)CAN_MCR_TXFP;
 249:../Libraries/STM32F10x_StdPeriph_Driver/src/stm32f10x_can.c ****     }
 250:../Libraries/STM32F10x_StdPeriph_Driver/src/stm32f10x_can.c **** 
 251:../Libraries/STM32F10x_StdPeriph_Driver/src/stm32f10x_can.c ****     /* Set the bit timing register */
 252:../Libraries/STM32F10x_StdPeriph_Driver/src/stm32f10x_can.c ****     CANx->BTR = (uint32_t)((uint32_t)CAN_InitStruct->CAN_Mode << 30) | \
 253:../Libraries/STM32F10x_StdPeriph_Driver/src/stm32f10x_can.c ****                 ((uint32_t)CAN_InitStruct->CAN_SJW << 24) | \
 254:../Libraries/STM32F10x_StdPeriph_Driver/src/stm32f10x_can.c ****                 ((uint32_t)CAN_InitStruct->CAN_BS1 << 16) | \
 255:../Libraries/STM32F10x_StdPeriph_Driver/src/stm32f10x_can.c ****                 ((uint32_t)CAN_InitStruct->CAN_BS2 << 20) | \
 256:../Libraries/STM32F10x_StdPeriph_Driver/src/stm32f10x_can.c ****                ((uint32_t)CAN_InitStruct->CAN_Prescaler - 1);
 257:../Libraries/STM32F10x_StdPeriph_Driver/src/stm32f10x_can.c **** 
 258:../Libraries/STM32F10x_StdPeriph_Driver/src/stm32f10x_can.c ****     /* Request leave initialisation */
 259:../Libraries/STM32F10x_StdPeriph_Driver/src/stm32f10x_can.c ****     CANx->MCR &= ~(uint32_t)CAN_MCR_INRQ;
 260:../Libraries/STM32F10x_StdPeriph_Driver/src/stm32f10x_can.c **** 
 261:../Libraries/STM32F10x_StdPeriph_Driver/src/stm32f10x_can.c ****    /* Wait the acknowledge */
 262:../Libraries/STM32F10x_StdPeriph_Driver/src/stm32f10x_can.c ****    wait_ack = 0;
 263:../Libraries/STM32F10x_StdPeriph_Driver/src/stm32f10x_can.c **** 
 264:../Libraries/STM32F10x_StdPeriph_Driver/src/stm32f10x_can.c ****    while (((CANx->MSR & CAN_MSR_INAK) == CAN_MSR_INAK) && (wait_ack != INAK_TIMEOUT))
 265:../Libraries/STM32F10x_StdPeriph_Driver/src/stm32f10x_can.c ****    {
 266:../Libraries/STM32F10x_StdPeriph_Driver/src/stm32f10x_can.c ****      wait_ack++;
 267:../Libraries/STM32F10x_StdPeriph_Driver/src/stm32f10x_can.c ****    }
 268:../Libraries/STM32F10x_StdPeriph_Driver/src/stm32f10x_can.c **** 
 269:../Libraries/STM32F10x_StdPeriph_Driver/src/stm32f10x_can.c ****     /* ...and check acknowledged */
 270:../Libraries/STM32F10x_StdPeriph_Driver/src/stm32f10x_can.c ****     if ((CANx->MSR & CAN_MSR_INAK) == CAN_MSR_INAK)
 271:../Libraries/STM32F10x_StdPeriph_Driver/src/stm32f10x_can.c ****     {
 272:../Libraries/STM32F10x_StdPeriph_Driver/src/stm32f10x_can.c ****       InitStatus = CAN_InitStatus_Failed;
 273:../Libraries/STM32F10x_StdPeriph_Driver/src/stm32f10x_can.c ****     }
 274:../Libraries/STM32F10x_StdPeriph_Driver/src/stm32f10x_can.c ****     else
 275:../Libraries/STM32F10x_StdPeriph_Driver/src/stm32f10x_can.c ****     {
 276:../Libraries/STM32F10x_StdPeriph_Driver/src/stm32f10x_can.c ****       InitStatus = CAN_InitStatus_Success ;
 277:../Libraries/STM32F10x_StdPeriph_Driver/src/stm32f10x_can.c ****     }
 278:../Libraries/STM32F10x_StdPeriph_Driver/src/stm32f10x_can.c ****   }
 279:../Libraries/STM32F10x_StdPeriph_Driver/src/stm32f10x_can.c **** 
 280:../Libraries/STM32F10x_StdPeriph_Driver/src/stm32f10x_can.c ****   /* At this step, return the status of initialization */
 281:../Libraries/STM32F10x_StdPeriph_Driver/src/stm32f10x_can.c ****   return InitStatus;
 282:../Libraries/STM32F10x_StdPeriph_Driver/src/stm32f10x_can.c **** }
 283:../Libraries/STM32F10x_StdPeriph_Driver/src/stm32f10x_can.c **** 
 284:../Libraries/STM32F10x_StdPeriph_Driver/src/stm32f10x_can.c **** /**
 285:../Libraries/STM32F10x_StdPeriph_Driver/src/stm32f10x_can.c ****   * @brief  Initializes the CAN peripheral according to the specified
 286:../Libraries/STM32F10x_StdPeriph_Driver/src/stm32f10x_can.c ****   *         parameters in the CAN_FilterInitStruct.
 287:../Libraries/STM32F10x_StdPeriph_Driver/src/stm32f10x_can.c ****   * @param  CAN_FilterInitStruct: pointer to a CAN_FilterInitTypeDef
 288:../Libraries/STM32F10x_StdPeriph_Driver/src/stm32f10x_can.c ****   *                               structure that contains the configuration 
 289:../Libraries/STM32F10x_StdPeriph_Driver/src/stm32f10x_can.c ****   *                               information.
 290:../Libraries/STM32F10x_StdPeriph_Driver/src/stm32f10x_can.c ****   * @retval None.
 291:../Libraries/STM32F10x_StdPeriph_Driver/src/stm32f10x_can.c ****   */
 292:../Libraries/STM32F10x_StdPeriph_Driver/src/stm32f10x_can.c **** void CAN_FilterInit(CAN_FilterInitTypeDef* CAN_FilterInitStruct)
 293:../Libraries/STM32F10x_StdPeriph_Driver/src/stm32f10x_can.c **** {
 294:../Libraries/STM32F10x_StdPeriph_Driver/src/stm32f10x_can.c ****   uint32_t filter_number_bit_pos = 0;
 295:../Libraries/STM32F10x_StdPeriph_Driver/src/stm32f10x_can.c ****   /* Check the parameters */
 296:../Libraries/STM32F10x_StdPeriph_Driver/src/stm32f10x_can.c ****   assert_param(IS_CAN_FILTER_NUMBER(CAN_FilterInitStruct->CAN_FilterNumber));
 297:../Libraries/STM32F10x_StdPeriph_Driver/src/stm32f10x_can.c ****   assert_param(IS_CAN_FILTER_MODE(CAN_FilterInitStruct->CAN_FilterMode));
 298:../Libraries/STM32F10x_StdPeriph_Driver/src/stm32f10x_can.c ****   assert_param(IS_CAN_FILTER_SCALE(CAN_FilterInitStruct->CAN_FilterScale));
 299:../Libraries/STM32F10x_StdPeriph_Driver/src/stm32f10x_can.c ****   assert_param(IS_CAN_FILTER_FIFO(CAN_FilterInitStruct->CAN_FilterFIFOAssignment));
 300:../Libraries/STM32F10x_StdPeriph_Driver/src/stm32f10x_can.c ****   assert_param(IS_FUNCTIONAL_STATE(CAN_FilterInitStruct->CAN_FilterActivation));
 301:../Libraries/STM32F10x_StdPeriph_Driver/src/stm32f10x_can.c **** 
 302:../Libraries/STM32F10x_StdPeriph_Driver/src/stm32f10x_can.c ****   filter_number_bit_pos = ((uint32_t)1) << CAN_FilterInitStruct->CAN_FilterNumber;
 303:../Libraries/STM32F10x_StdPeriph_Driver/src/stm32f10x_can.c **** 
 304:../Libraries/STM32F10x_StdPeriph_Driver/src/stm32f10x_can.c ****   /* Initialisation mode for the filter */
 305:../Libraries/STM32F10x_StdPeriph_Driver/src/stm32f10x_can.c ****   CAN1->FMR |= FMR_FINIT;
 306:../Libraries/STM32F10x_StdPeriph_Driver/src/stm32f10x_can.c **** 
 307:../Libraries/STM32F10x_StdPeriph_Driver/src/stm32f10x_can.c ****   /* Filter Deactivation */
 308:../Libraries/STM32F10x_StdPeriph_Driver/src/stm32f10x_can.c ****   CAN1->FA1R &= ~(uint32_t)filter_number_bit_pos;
 309:../Libraries/STM32F10x_StdPeriph_Driver/src/stm32f10x_can.c **** 
 310:../Libraries/STM32F10x_StdPeriph_Driver/src/stm32f10x_can.c ****   /* Filter Scale */
 311:../Libraries/STM32F10x_StdPeriph_Driver/src/stm32f10x_can.c ****   if (CAN_FilterInitStruct->CAN_FilterScale == CAN_FilterScale_16bit)
 312:../Libraries/STM32F10x_StdPeriph_Driver/src/stm32f10x_can.c ****   {
 313:../Libraries/STM32F10x_StdPeriph_Driver/src/stm32f10x_can.c ****     /* 16-bit scale for the filter */
 314:../Libraries/STM32F10x_StdPeriph_Driver/src/stm32f10x_can.c ****     CAN1->FS1R &= ~(uint32_t)filter_number_bit_pos;
 315:../Libraries/STM32F10x_StdPeriph_Driver/src/stm32f10x_can.c **** 
 316:../Libraries/STM32F10x_StdPeriph_Driver/src/stm32f10x_can.c ****     /* First 16-bit identifier and First 16-bit mask */
 317:../Libraries/STM32F10x_StdPeriph_Driver/src/stm32f10x_can.c ****     /* Or First 16-bit identifier and Second 16-bit identifier */
 318:../Libraries/STM32F10x_StdPeriph_Driver/src/stm32f10x_can.c ****     CAN1->sFilterRegister[CAN_FilterInitStruct->CAN_FilterNumber].FR1 = 
 319:../Libraries/STM32F10x_StdPeriph_Driver/src/stm32f10x_can.c ****     ((0x0000FFFF & (uint32_t)CAN_FilterInitStruct->CAN_FilterMaskIdLow) << 16) |
 320:../Libraries/STM32F10x_StdPeriph_Driver/src/stm32f10x_can.c ****         (0x0000FFFF & (uint32_t)CAN_FilterInitStruct->CAN_FilterIdLow);
 321:../Libraries/STM32F10x_StdPeriph_Driver/src/stm32f10x_can.c **** 
 322:../Libraries/STM32F10x_StdPeriph_Driver/src/stm32f10x_can.c ****     /* Second 16-bit identifier and Second 16-bit mask */
 323:../Libraries/STM32F10x_StdPeriph_Driver/src/stm32f10x_can.c ****     /* Or Third 16-bit identifier and Fourth 16-bit identifier */
 324:../Libraries/STM32F10x_StdPeriph_Driver/src/stm32f10x_can.c ****     CAN1->sFilterRegister[CAN_FilterInitStruct->CAN_FilterNumber].FR2 = 
 325:../Libraries/STM32F10x_StdPeriph_Driver/src/stm32f10x_can.c ****     ((0x0000FFFF & (uint32_t)CAN_FilterInitStruct->CAN_FilterMaskIdHigh) << 16) |
 326:../Libraries/STM32F10x_StdPeriph_Driver/src/stm32f10x_can.c ****         (0x0000FFFF & (uint32_t)CAN_FilterInitStruct->CAN_FilterIdHigh);
 327:../Libraries/STM32F10x_StdPeriph_Driver/src/stm32f10x_can.c ****   }
 328:../Libraries/STM32F10x_StdPeriph_Driver/src/stm32f10x_can.c **** 
 329:../Libraries/STM32F10x_StdPeriph_Driver/src/stm32f10x_can.c ****   if (CAN_FilterInitStruct->CAN_FilterScale == CAN_FilterScale_32bit)
 330:../Libraries/STM32F10x_StdPeriph_Driver/src/stm32f10x_can.c ****   {
 331:../Libraries/STM32F10x_StdPeriph_Driver/src/stm32f10x_can.c ****     /* 32-bit scale for the filter */
 332:../Libraries/STM32F10x_StdPeriph_Driver/src/stm32f10x_can.c ****     CAN1->FS1R |= filter_number_bit_pos;
 333:../Libraries/STM32F10x_StdPeriph_Driver/src/stm32f10x_can.c ****     /* 32-bit identifier or First 32-bit identifier */
 334:../Libraries/STM32F10x_StdPeriph_Driver/src/stm32f10x_can.c ****     CAN1->sFilterRegister[CAN_FilterInitStruct->CAN_FilterNumber].FR1 = 
 335:../Libraries/STM32F10x_StdPeriph_Driver/src/stm32f10x_can.c ****     ((0x0000FFFF & (uint32_t)CAN_FilterInitStruct->CAN_FilterIdHigh) << 16) |
 336:../Libraries/STM32F10x_StdPeriph_Driver/src/stm32f10x_can.c ****         (0x0000FFFF & (uint32_t)CAN_FilterInitStruct->CAN_FilterIdLow);
 337:../Libraries/STM32F10x_StdPeriph_Driver/src/stm32f10x_can.c ****     /* 32-bit mask or Second 32-bit identifier */
 338:../Libraries/STM32F10x_StdPeriph_Driver/src/stm32f10x_can.c ****     CAN1->sFilterRegister[CAN_FilterInitStruct->CAN_FilterNumber].FR2 = 
 339:../Libraries/STM32F10x_StdPeriph_Driver/src/stm32f10x_can.c ****     ((0x0000FFFF & (uint32_t)CAN_FilterInitStruct->CAN_FilterMaskIdHigh) << 16) |
 340:../Libraries/STM32F10x_StdPeriph_Driver/src/stm32f10x_can.c ****         (0x0000FFFF & (uint32_t)CAN_FilterInitStruct->CAN_FilterMaskIdLow);
 341:../Libraries/STM32F10x_StdPeriph_Driver/src/stm32f10x_can.c ****   }
 342:../Libraries/STM32F10x_StdPeriph_Driver/src/stm32f10x_can.c **** 
 343:../Libraries/STM32F10x_StdPeriph_Driver/src/stm32f10x_can.c ****   /* Filter Mode */
 344:../Libraries/STM32F10x_StdPeriph_Driver/src/stm32f10x_can.c ****   if (CAN_FilterInitStruct->CAN_FilterMode == CAN_FilterMode_IdMask)
 345:../Libraries/STM32F10x_StdPeriph_Driver/src/stm32f10x_can.c ****   {
 346:../Libraries/STM32F10x_StdPeriph_Driver/src/stm32f10x_can.c ****     /*Id/Mask mode for the filter*/
 347:../Libraries/STM32F10x_StdPeriph_Driver/src/stm32f10x_can.c ****     CAN1->FM1R &= ~(uint32_t)filter_number_bit_pos;
 348:../Libraries/STM32F10x_StdPeriph_Driver/src/stm32f10x_can.c ****   }
 349:../Libraries/STM32F10x_StdPeriph_Driver/src/stm32f10x_can.c ****   else /* CAN_FilterInitStruct->CAN_FilterMode == CAN_FilterMode_IdList */
 350:../Libraries/STM32F10x_StdPeriph_Driver/src/stm32f10x_can.c ****   {
 351:../Libraries/STM32F10x_StdPeriph_Driver/src/stm32f10x_can.c ****     /*Identifier list mode for the filter*/
 352:../Libraries/STM32F10x_StdPeriph_Driver/src/stm32f10x_can.c ****     CAN1->FM1R |= (uint32_t)filter_number_bit_pos;
 353:../Libraries/STM32F10x_StdPeriph_Driver/src/stm32f10x_can.c ****   }
 354:../Libraries/STM32F10x_StdPeriph_Driver/src/stm32f10x_can.c **** 
 355:../Libraries/STM32F10x_StdPeriph_Driver/src/stm32f10x_can.c ****   /* Filter FIFO assignment */
 356:../Libraries/STM32F10x_StdPeriph_Driver/src/stm32f10x_can.c ****   if (CAN_FilterInitStruct->CAN_FilterFIFOAssignment == CAN_Filter_FIFO0)
 357:../Libraries/STM32F10x_StdPeriph_Driver/src/stm32f10x_can.c ****   {
 358:../Libraries/STM32F10x_StdPeriph_Driver/src/stm32f10x_can.c ****     /* FIFO 0 assignation for the filter */
 359:../Libraries/STM32F10x_StdPeriph_Driver/src/stm32f10x_can.c ****     CAN1->FFA1R &= ~(uint32_t)filter_number_bit_pos;
 360:../Libraries/STM32F10x_StdPeriph_Driver/src/stm32f10x_can.c ****   }
 361:../Libraries/STM32F10x_StdPeriph_Driver/src/stm32f10x_can.c **** 
 362:../Libraries/STM32F10x_StdPeriph_Driver/src/stm32f10x_can.c ****   if (CAN_FilterInitStruct->CAN_FilterFIFOAssignment == CAN_Filter_FIFO1)
 363:../Libraries/STM32F10x_StdPeriph_Driver/src/stm32f10x_can.c ****   {
 364:../Libraries/STM32F10x_StdPeriph_Driver/src/stm32f10x_can.c ****     /* FIFO 1 assignation for the filter */
 365:../Libraries/STM32F10x_StdPeriph_Driver/src/stm32f10x_can.c ****     CAN1->FFA1R |= (uint32_t)filter_number_bit_pos;
 366:../Libraries/STM32F10x_StdPeriph_Driver/src/stm32f10x_can.c ****   }
 367:../Libraries/STM32F10x_StdPeriph_Driver/src/stm32f10x_can.c ****   
 368:../Libraries/STM32F10x_StdPeriph_Driver/src/stm32f10x_can.c ****   /* Filter activation */
 369:../Libraries/STM32F10x_StdPeriph_Driver/src/stm32f10x_can.c ****   if (CAN_FilterInitStruct->CAN_FilterActivation == ENABLE)
 370:../Libraries/STM32F10x_StdPeriph_Driver/src/stm32f10x_can.c ****   {
 371:../Libraries/STM32F10x_StdPeriph_Driver/src/stm32f10x_can.c ****     CAN1->FA1R |= filter_number_bit_pos;
 372:../Libraries/STM32F10x_StdPeriph_Driver/src/stm32f10x_can.c ****   }
 373:../Libraries/STM32F10x_StdPeriph_Driver/src/stm32f10x_can.c **** 
 374:../Libraries/STM32F10x_StdPeriph_Driver/src/stm32f10x_can.c ****   /* Leave the initialisation mode for the filter */
 375:../Libraries/STM32F10x_StdPeriph_Driver/src/stm32f10x_can.c ****   CAN1->FMR &= ~FMR_FINIT;
 376:../Libraries/STM32F10x_StdPeriph_Driver/src/stm32f10x_can.c **** }
 377:../Libraries/STM32F10x_StdPeriph_Driver/src/stm32f10x_can.c **** 
 378:../Libraries/STM32F10x_StdPeriph_Driver/src/stm32f10x_can.c **** /**
 379:../Libraries/STM32F10x_StdPeriph_Driver/src/stm32f10x_can.c ****   * @brief  Fills each CAN_InitStruct member with its default value.
 380:../Libraries/STM32F10x_StdPeriph_Driver/src/stm32f10x_can.c ****   * @param  CAN_InitStruct: pointer to a CAN_InitTypeDef structure which
 381:../Libraries/STM32F10x_StdPeriph_Driver/src/stm32f10x_can.c ****   *                         will be initialized.
 382:../Libraries/STM32F10x_StdPeriph_Driver/src/stm32f10x_can.c ****   * @retval None.
 383:../Libraries/STM32F10x_StdPeriph_Driver/src/stm32f10x_can.c ****   */
 384:../Libraries/STM32F10x_StdPeriph_Driver/src/stm32f10x_can.c **** void CAN_StructInit(CAN_InitTypeDef* CAN_InitStruct)
 385:../Libraries/STM32F10x_StdPeriph_Driver/src/stm32f10x_can.c **** {
 386:../Libraries/STM32F10x_StdPeriph_Driver/src/stm32f10x_can.c ****   /* Reset CAN init structure parameters values */
 387:../Libraries/STM32F10x_StdPeriph_Driver/src/stm32f10x_can.c ****   
 388:../Libraries/STM32F10x_StdPeriph_Driver/src/stm32f10x_can.c ****   /* Initialize the time triggered communication mode */
 389:../Libraries/STM32F10x_StdPeriph_Driver/src/stm32f10x_can.c ****   CAN_InitStruct->CAN_TTCM = DISABLE;
 390:../Libraries/STM32F10x_StdPeriph_Driver/src/stm32f10x_can.c ****   
 391:../Libraries/STM32F10x_StdPeriph_Driver/src/stm32f10x_can.c ****   /* Initialize the automatic bus-off management */
 392:../Libraries/STM32F10x_StdPeriph_Driver/src/stm32f10x_can.c ****   CAN_InitStruct->CAN_ABOM = DISABLE;
 393:../Libraries/STM32F10x_StdPeriph_Driver/src/stm32f10x_can.c ****   
 394:../Libraries/STM32F10x_StdPeriph_Driver/src/stm32f10x_can.c ****   /* Initialize the automatic wake-up mode */
 395:../Libraries/STM32F10x_StdPeriph_Driver/src/stm32f10x_can.c ****   CAN_InitStruct->CAN_AWUM = DISABLE;
 396:../Libraries/STM32F10x_StdPeriph_Driver/src/stm32f10x_can.c ****   
 397:../Libraries/STM32F10x_StdPeriph_Driver/src/stm32f10x_can.c ****   /* Initialize the no automatic retransmission */
 398:../Libraries/STM32F10x_StdPeriph_Driver/src/stm32f10x_can.c ****   CAN_InitStruct->CAN_NART = DISABLE;
 399:../Libraries/STM32F10x_StdPeriph_Driver/src/stm32f10x_can.c ****   
 400:../Libraries/STM32F10x_StdPeriph_Driver/src/stm32f10x_can.c ****   /* Initialize the receive FIFO locked mode */
 401:../Libraries/STM32F10x_StdPeriph_Driver/src/stm32f10x_can.c ****   CAN_InitStruct->CAN_RFLM = DISABLE;
 402:../Libraries/STM32F10x_StdPeriph_Driver/src/stm32f10x_can.c ****   
 403:../Libraries/STM32F10x_StdPeriph_Driver/src/stm32f10x_can.c ****   /* Initialize the transmit FIFO priority */
 404:../Libraries/STM32F10x_StdPeriph_Driver/src/stm32f10x_can.c ****   CAN_InitStruct->CAN_TXFP = DISABLE;
 405:../Libraries/STM32F10x_StdPeriph_Driver/src/stm32f10x_can.c ****   
 406:../Libraries/STM32F10x_StdPeriph_Driver/src/stm32f10x_can.c ****   /* Initialize the CAN_Mode member */
 407:../Libraries/STM32F10x_StdPeriph_Driver/src/stm32f10x_can.c ****   CAN_InitStruct->CAN_Mode = CAN_Mode_Normal;
 408:../Libraries/STM32F10x_StdPeriph_Driver/src/stm32f10x_can.c ****   
 409:../Libraries/STM32F10x_StdPeriph_Driver/src/stm32f10x_can.c ****   /* Initialize the CAN_SJW member */
 410:../Libraries/STM32F10x_StdPeriph_Driver/src/stm32f10x_can.c ****   CAN_InitStruct->CAN_SJW = CAN_SJW_1tq;
 411:../Libraries/STM32F10x_StdPeriph_Driver/src/stm32f10x_can.c ****   
 412:../Libraries/STM32F10x_StdPeriph_Driver/src/stm32f10x_can.c ****   /* Initialize the CAN_BS1 member */
 413:../Libraries/STM32F10x_StdPeriph_Driver/src/stm32f10x_can.c ****   CAN_InitStruct->CAN_BS1 = CAN_BS1_4tq;
 414:../Libraries/STM32F10x_StdPeriph_Driver/src/stm32f10x_can.c ****   
 415:../Libraries/STM32F10x_StdPeriph_Driver/src/stm32f10x_can.c ****   /* Initialize the CAN_BS2 member */
 416:../Libraries/STM32F10x_StdPeriph_Driver/src/stm32f10x_can.c ****   CAN_InitStruct->CAN_BS2 = CAN_BS2_3tq;
 417:../Libraries/STM32F10x_StdPeriph_Driver/src/stm32f10x_can.c ****   
 418:../Libraries/STM32F10x_StdPeriph_Driver/src/stm32f10x_can.c ****   /* Initialize the CAN_Prescaler member */
 419:../Libraries/STM32F10x_StdPeriph_Driver/src/stm32f10x_can.c ****   CAN_InitStruct->CAN_Prescaler = 1;
 420:../Libraries/STM32F10x_StdPeriph_Driver/src/stm32f10x_can.c **** }
 421:../Libraries/STM32F10x_StdPeriph_Driver/src/stm32f10x_can.c **** 
 422:../Libraries/STM32F10x_StdPeriph_Driver/src/stm32f10x_can.c **** /**
 423:../Libraries/STM32F10x_StdPeriph_Driver/src/stm32f10x_can.c ****   * @brief  Select the start bank filter for slave CAN.
 424:../Libraries/STM32F10x_StdPeriph_Driver/src/stm32f10x_can.c ****   * @note   This function applies only to STM32 Connectivity line devices.
 425:../Libraries/STM32F10x_StdPeriph_Driver/src/stm32f10x_can.c ****   * @param  CAN_BankNumber: Select the start slave bank filter from 1..27.
 426:../Libraries/STM32F10x_StdPeriph_Driver/src/stm32f10x_can.c ****   * @retval None.
 427:../Libraries/STM32F10x_StdPeriph_Driver/src/stm32f10x_can.c ****   */
 428:../Libraries/STM32F10x_StdPeriph_Driver/src/stm32f10x_can.c **** void CAN_SlaveStartBank(uint8_t CAN_BankNumber) 
 429:../Libraries/STM32F10x_StdPeriph_Driver/src/stm32f10x_can.c **** {
 430:../Libraries/STM32F10x_StdPeriph_Driver/src/stm32f10x_can.c ****   /* Check the parameters */
 431:../Libraries/STM32F10x_StdPeriph_Driver/src/stm32f10x_can.c ****   assert_param(IS_CAN_BANKNUMBER(CAN_BankNumber));
 432:../Libraries/STM32F10x_StdPeriph_Driver/src/stm32f10x_can.c ****   
 433:../Libraries/STM32F10x_StdPeriph_Driver/src/stm32f10x_can.c ****   /* Enter Initialisation mode for the filter */
 434:../Libraries/STM32F10x_StdPeriph_Driver/src/stm32f10x_can.c ****   CAN1->FMR |= FMR_FINIT;
 435:../Libraries/STM32F10x_StdPeriph_Driver/src/stm32f10x_can.c ****   
 436:../Libraries/STM32F10x_StdPeriph_Driver/src/stm32f10x_can.c ****   /* Select the start slave bank */
 437:../Libraries/STM32F10x_StdPeriph_Driver/src/stm32f10x_can.c ****   CAN1->FMR &= (uint32_t)0xFFFFC0F1 ;
 438:../Libraries/STM32F10x_StdPeriph_Driver/src/stm32f10x_can.c ****   CAN1->FMR |= (uint32_t)(CAN_BankNumber)<<8;
 439:../Libraries/STM32F10x_StdPeriph_Driver/src/stm32f10x_can.c ****   
 440:../Libraries/STM32F10x_StdPeriph_Driver/src/stm32f10x_can.c ****   /* Leave Initialisation mode for the filter */
 441:../Libraries/STM32F10x_StdPeriph_Driver/src/stm32f10x_can.c ****   CAN1->FMR &= ~FMR_FINIT;
 442:../Libraries/STM32F10x_StdPeriph_Driver/src/stm32f10x_can.c **** }
 443:../Libraries/STM32F10x_StdPeriph_Driver/src/stm32f10x_can.c **** 
 444:../Libraries/STM32F10x_StdPeriph_Driver/src/stm32f10x_can.c **** /**
 445:../Libraries/STM32F10x_StdPeriph_Driver/src/stm32f10x_can.c ****   * @brief  Enables or disables the DBG Freeze for CAN.
 446:../Libraries/STM32F10x_StdPeriph_Driver/src/stm32f10x_can.c ****   * @param  CANx:     where x can be 1 or 2 to to select the CAN peripheral.
 447:../Libraries/STM32F10x_StdPeriph_Driver/src/stm32f10x_can.c ****   * @param  NewState: new state of the CAN peripheral. This parameter can 
 448:../Libraries/STM32F10x_StdPeriph_Driver/src/stm32f10x_can.c ****   *                   be: ENABLE or DISABLE.
 449:../Libraries/STM32F10x_StdPeriph_Driver/src/stm32f10x_can.c ****   * @retval None.
 450:../Libraries/STM32F10x_StdPeriph_Driver/src/stm32f10x_can.c ****   */
 451:../Libraries/STM32F10x_StdPeriph_Driver/src/stm32f10x_can.c **** void CAN_DBGFreeze(CAN_TypeDef* CANx, FunctionalState NewState)
 452:../Libraries/STM32F10x_StdPeriph_Driver/src/stm32f10x_can.c **** {
 453:../Libraries/STM32F10x_StdPeriph_Driver/src/stm32f10x_can.c ****   /* Check the parameters */
 454:../Libraries/STM32F10x_StdPeriph_Driver/src/stm32f10x_can.c ****   assert_param(IS_CAN_ALL_PERIPH(CANx));
 455:../Libraries/STM32F10x_StdPeriph_Driver/src/stm32f10x_can.c ****   assert_param(IS_FUNCTIONAL_STATE(NewState));
 456:../Libraries/STM32F10x_StdPeriph_Driver/src/stm32f10x_can.c ****   
 457:../Libraries/STM32F10x_StdPeriph_Driver/src/stm32f10x_can.c ****   if (NewState != DISABLE)
 458:../Libraries/STM32F10x_StdPeriph_Driver/src/stm32f10x_can.c ****   {
 459:../Libraries/STM32F10x_StdPeriph_Driver/src/stm32f10x_can.c ****     /* Enable Debug Freeze  */
 460:../Libraries/STM32F10x_StdPeriph_Driver/src/stm32f10x_can.c ****     CANx->MCR |= MCR_DBF;
 461:../Libraries/STM32F10x_StdPeriph_Driver/src/stm32f10x_can.c ****   }
 462:../Libraries/STM32F10x_StdPeriph_Driver/src/stm32f10x_can.c ****   else
 463:../Libraries/STM32F10x_StdPeriph_Driver/src/stm32f10x_can.c ****   {
 464:../Libraries/STM32F10x_StdPeriph_Driver/src/stm32f10x_can.c ****     /* Disable Debug Freeze */
 465:../Libraries/STM32F10x_StdPeriph_Driver/src/stm32f10x_can.c ****     CANx->MCR &= ~MCR_DBF;
 466:../Libraries/STM32F10x_StdPeriph_Driver/src/stm32f10x_can.c ****   }
 467:../Libraries/STM32F10x_StdPeriph_Driver/src/stm32f10x_can.c **** }
 468:../Libraries/STM32F10x_StdPeriph_Driver/src/stm32f10x_can.c **** 
 469:../Libraries/STM32F10x_StdPeriph_Driver/src/stm32f10x_can.c **** 
 470:../Libraries/STM32F10x_StdPeriph_Driver/src/stm32f10x_can.c **** /**
 471:../Libraries/STM32F10x_StdPeriph_Driver/src/stm32f10x_can.c ****   * @brief  Enables or disabes the CAN Time TriggerOperation communication mode.
 472:../Libraries/STM32F10x_StdPeriph_Driver/src/stm32f10x_can.c ****   * @param  CANx:      where x can be 1 or 2 to to select the CAN peripheral.
 473:../Libraries/STM32F10x_StdPeriph_Driver/src/stm32f10x_can.c ****   * @param  NewState : Mode new state , can be one of @ref FunctionalState.
 474:../Libraries/STM32F10x_StdPeriph_Driver/src/stm32f10x_can.c ****   * @note   when enabled, Time stamp (TIME[15:0]) value is sent in the last 
 475:../Libraries/STM32F10x_StdPeriph_Driver/src/stm32f10x_can.c ****   *         two data bytes of the 8-byte message: TIME[7:0] in data byte 6 
 476:../Libraries/STM32F10x_StdPeriph_Driver/src/stm32f10x_can.c ****   *         and TIME[15:8] in data byte 7 
 477:../Libraries/STM32F10x_StdPeriph_Driver/src/stm32f10x_can.c ****   * @note   DLC must be programmed as 8 in order Time Stamp (2 bytes) to be 
 478:../Libraries/STM32F10x_StdPeriph_Driver/src/stm32f10x_can.c ****   *         sent over the CAN bus.  
 479:../Libraries/STM32F10x_StdPeriph_Driver/src/stm32f10x_can.c ****   * @retval None
 480:../Libraries/STM32F10x_StdPeriph_Driver/src/stm32f10x_can.c ****   */
 481:../Libraries/STM32F10x_StdPeriph_Driver/src/stm32f10x_can.c **** void CAN_TTComModeCmd(CAN_TypeDef* CANx, FunctionalState NewState)
 482:../Libraries/STM32F10x_StdPeriph_Driver/src/stm32f10x_can.c **** {
 483:../Libraries/STM32F10x_StdPeriph_Driver/src/stm32f10x_can.c ****   /* Check the parameters */
 484:../Libraries/STM32F10x_StdPeriph_Driver/src/stm32f10x_can.c ****   assert_param(IS_CAN_ALL_PERIPH(CANx));
 485:../Libraries/STM32F10x_StdPeriph_Driver/src/stm32f10x_can.c ****   assert_param(IS_FUNCTIONAL_STATE(NewState));
 486:../Libraries/STM32F10x_StdPeriph_Driver/src/stm32f10x_can.c ****   if (NewState != DISABLE)
 487:../Libraries/STM32F10x_StdPeriph_Driver/src/stm32f10x_can.c ****   {
 488:../Libraries/STM32F10x_StdPeriph_Driver/src/stm32f10x_can.c ****     /* Enable the TTCM mode */
 489:../Libraries/STM32F10x_StdPeriph_Driver/src/stm32f10x_can.c ****     CANx->MCR |= CAN_MCR_TTCM;
 490:../Libraries/STM32F10x_StdPeriph_Driver/src/stm32f10x_can.c **** 
 491:../Libraries/STM32F10x_StdPeriph_Driver/src/stm32f10x_can.c ****     /* Set TGT bits */
 492:../Libraries/STM32F10x_StdPeriph_Driver/src/stm32f10x_can.c ****     CANx->sTxMailBox[0].TDTR |= ((uint32_t)CAN_TDT0R_TGT);
 493:../Libraries/STM32F10x_StdPeriph_Driver/src/stm32f10x_can.c ****     CANx->sTxMailBox[1].TDTR |= ((uint32_t)CAN_TDT1R_TGT);
 494:../Libraries/STM32F10x_StdPeriph_Driver/src/stm32f10x_can.c ****     CANx->sTxMailBox[2].TDTR |= ((uint32_t)CAN_TDT2R_TGT);
 495:../Libraries/STM32F10x_StdPeriph_Driver/src/stm32f10x_can.c ****   }
 496:../Libraries/STM32F10x_StdPeriph_Driver/src/stm32f10x_can.c ****   else
 497:../Libraries/STM32F10x_StdPeriph_Driver/src/stm32f10x_can.c ****   {
 498:../Libraries/STM32F10x_StdPeriph_Driver/src/stm32f10x_can.c ****     /* Disable the TTCM mode */
 499:../Libraries/STM32F10x_StdPeriph_Driver/src/stm32f10x_can.c ****     CANx->MCR &= (uint32_t)(~(uint32_t)CAN_MCR_TTCM);
 500:../Libraries/STM32F10x_StdPeriph_Driver/src/stm32f10x_can.c **** 
 501:../Libraries/STM32F10x_StdPeriph_Driver/src/stm32f10x_can.c ****     /* Reset TGT bits */
 502:../Libraries/STM32F10x_StdPeriph_Driver/src/stm32f10x_can.c ****     CANx->sTxMailBox[0].TDTR &= ((uint32_t)~CAN_TDT0R_TGT);
 503:../Libraries/STM32F10x_StdPeriph_Driver/src/stm32f10x_can.c ****     CANx->sTxMailBox[1].TDTR &= ((uint32_t)~CAN_TDT1R_TGT);
 504:../Libraries/STM32F10x_StdPeriph_Driver/src/stm32f10x_can.c ****     CANx->sTxMailBox[2].TDTR &= ((uint32_t)~CAN_TDT2R_TGT);
 505:../Libraries/STM32F10x_StdPeriph_Driver/src/stm32f10x_can.c ****   }
 506:../Libraries/STM32F10x_StdPeriph_Driver/src/stm32f10x_can.c **** }
 507:../Libraries/STM32F10x_StdPeriph_Driver/src/stm32f10x_can.c **** /**
 508:../Libraries/STM32F10x_StdPeriph_Driver/src/stm32f10x_can.c ****   * @brief  Initiates the transmission of a message.
 509:../Libraries/STM32F10x_StdPeriph_Driver/src/stm32f10x_can.c ****   * @param  CANx:      where x can be 1 or 2 to to select the CAN peripheral.
 510:../Libraries/STM32F10x_StdPeriph_Driver/src/stm32f10x_can.c ****   * @param  TxMessage: pointer to a structure which contains CAN Id, CAN
 511:../Libraries/STM32F10x_StdPeriph_Driver/src/stm32f10x_can.c ****   *                    DLC and CAN data.
 512:../Libraries/STM32F10x_StdPeriph_Driver/src/stm32f10x_can.c ****   * @retval The number of the mailbox that is used for transmission
 513:../Libraries/STM32F10x_StdPeriph_Driver/src/stm32f10x_can.c ****   *                    or CAN_TxStatus_NoMailBox if there is no empty mailbox.
 514:../Libraries/STM32F10x_StdPeriph_Driver/src/stm32f10x_can.c ****   */
 515:../Libraries/STM32F10x_StdPeriph_Driver/src/stm32f10x_can.c **** uint8_t CAN_Transmit(CAN_TypeDef* CANx, CanTxMsg* TxMessage)
 516:../Libraries/STM32F10x_StdPeriph_Driver/src/stm32f10x_can.c **** {
 517:../Libraries/STM32F10x_StdPeriph_Driver/src/stm32f10x_can.c ****   uint8_t transmit_mailbox = 0;
 518:../Libraries/STM32F10x_StdPeriph_Driver/src/stm32f10x_can.c ****   /* Check the parameters */
 519:../Libraries/STM32F10x_StdPeriph_Driver/src/stm32f10x_can.c ****   assert_param(IS_CAN_ALL_PERIPH(CANx));
 520:../Libraries/STM32F10x_StdPeriph_Driver/src/stm32f10x_can.c ****   assert_param(IS_CAN_IDTYPE(TxMessage->IDE));
 521:../Libraries/STM32F10x_StdPeriph_Driver/src/stm32f10x_can.c ****   assert_param(IS_CAN_RTR(TxMessage->RTR));
 522:../Libraries/STM32F10x_StdPeriph_Driver/src/stm32f10x_can.c ****   assert_param(IS_CAN_DLC(TxMessage->DLC));
 523:../Libraries/STM32F10x_StdPeriph_Driver/src/stm32f10x_can.c **** 
 524:../Libraries/STM32F10x_StdPeriph_Driver/src/stm32f10x_can.c ****   /* Select one empty transmit mailbox */
 525:../Libraries/STM32F10x_StdPeriph_Driver/src/stm32f10x_can.c ****   if ((CANx->TSR&CAN_TSR_TME0) == CAN_TSR_TME0)
 526:../Libraries/STM32F10x_StdPeriph_Driver/src/stm32f10x_can.c ****   {
 527:../Libraries/STM32F10x_StdPeriph_Driver/src/stm32f10x_can.c ****     transmit_mailbox = 0;
 528:../Libraries/STM32F10x_StdPeriph_Driver/src/stm32f10x_can.c ****   }
 529:../Libraries/STM32F10x_StdPeriph_Driver/src/stm32f10x_can.c ****   else if ((CANx->TSR&CAN_TSR_TME1) == CAN_TSR_TME1)
 530:../Libraries/STM32F10x_StdPeriph_Driver/src/stm32f10x_can.c ****   {
 531:../Libraries/STM32F10x_StdPeriph_Driver/src/stm32f10x_can.c ****     transmit_mailbox = 1;
 532:../Libraries/STM32F10x_StdPeriph_Driver/src/stm32f10x_can.c ****   }
 533:../Libraries/STM32F10x_StdPeriph_Driver/src/stm32f10x_can.c ****   else if ((CANx->TSR&CAN_TSR_TME2) == CAN_TSR_TME2)
 534:../Libraries/STM32F10x_StdPeriph_Driver/src/stm32f10x_can.c ****   {
 535:../Libraries/STM32F10x_StdPeriph_Driver/src/stm32f10x_can.c ****     transmit_mailbox = 2;
 536:../Libraries/STM32F10x_StdPeriph_Driver/src/stm32f10x_can.c ****   }
 537:../Libraries/STM32F10x_StdPeriph_Driver/src/stm32f10x_can.c ****   else
 538:../Libraries/STM32F10x_StdPeriph_Driver/src/stm32f10x_can.c ****   {
 539:../Libraries/STM32F10x_StdPeriph_Driver/src/stm32f10x_can.c ****     transmit_mailbox = CAN_TxStatus_NoMailBox;
 540:../Libraries/STM32F10x_StdPeriph_Driver/src/stm32f10x_can.c ****   }
 541:../Libraries/STM32F10x_StdPeriph_Driver/src/stm32f10x_can.c **** 
 542:../Libraries/STM32F10x_StdPeriph_Driver/src/stm32f10x_can.c ****   if (transmit_mailbox != CAN_TxStatus_NoMailBox)
 543:../Libraries/STM32F10x_StdPeriph_Driver/src/stm32f10x_can.c ****   {
 544:../Libraries/STM32F10x_StdPeriph_Driver/src/stm32f10x_can.c ****     /* Set up the Id */
 545:../Libraries/STM32F10x_StdPeriph_Driver/src/stm32f10x_can.c ****     CANx->sTxMailBox[transmit_mailbox].TIR &= TMIDxR_TXRQ;
 546:../Libraries/STM32F10x_StdPeriph_Driver/src/stm32f10x_can.c ****     if (TxMessage->IDE == CAN_Id_Standard)
 547:../Libraries/STM32F10x_StdPeriph_Driver/src/stm32f10x_can.c ****     {
 548:../Libraries/STM32F10x_StdPeriph_Driver/src/stm32f10x_can.c ****       assert_param(IS_CAN_STDID(TxMessage->StdId));  
 549:../Libraries/STM32F10x_StdPeriph_Driver/src/stm32f10x_can.c ****       CANx->sTxMailBox[transmit_mailbox].TIR |= ((TxMessage->StdId << 21) | \
 550:../Libraries/STM32F10x_StdPeriph_Driver/src/stm32f10x_can.c ****                                                   TxMessage->RTR);
 551:../Libraries/STM32F10x_StdPeriph_Driver/src/stm32f10x_can.c ****     }
 552:../Libraries/STM32F10x_StdPeriph_Driver/src/stm32f10x_can.c ****     else
 553:../Libraries/STM32F10x_StdPeriph_Driver/src/stm32f10x_can.c ****     {
 554:../Libraries/STM32F10x_StdPeriph_Driver/src/stm32f10x_can.c ****       assert_param(IS_CAN_EXTID(TxMessage->ExtId));
 555:../Libraries/STM32F10x_StdPeriph_Driver/src/stm32f10x_can.c ****       CANx->sTxMailBox[transmit_mailbox].TIR |= ((TxMessage->ExtId << 3) | \
 556:../Libraries/STM32F10x_StdPeriph_Driver/src/stm32f10x_can.c ****                                                   TxMessage->IDE | \
 557:../Libraries/STM32F10x_StdPeriph_Driver/src/stm32f10x_can.c ****                                                   TxMessage->RTR);
 558:../Libraries/STM32F10x_StdPeriph_Driver/src/stm32f10x_can.c ****     }
 559:../Libraries/STM32F10x_StdPeriph_Driver/src/stm32f10x_can.c ****     
 560:../Libraries/STM32F10x_StdPeriph_Driver/src/stm32f10x_can.c ****     /* Set up the DLC */
 561:../Libraries/STM32F10x_StdPeriph_Driver/src/stm32f10x_can.c ****     TxMessage->DLC &= (uint8_t)0x0000000F;
 562:../Libraries/STM32F10x_StdPeriph_Driver/src/stm32f10x_can.c ****     CANx->sTxMailBox[transmit_mailbox].TDTR &= (uint32_t)0xFFFFFFF0;
 563:../Libraries/STM32F10x_StdPeriph_Driver/src/stm32f10x_can.c ****     CANx->sTxMailBox[transmit_mailbox].TDTR |= TxMessage->DLC;
 564:../Libraries/STM32F10x_StdPeriph_Driver/src/stm32f10x_can.c **** 
 565:../Libraries/STM32F10x_StdPeriph_Driver/src/stm32f10x_can.c ****     /* Set up the data field */
 566:../Libraries/STM32F10x_StdPeriph_Driver/src/stm32f10x_can.c ****     CANx->sTxMailBox[transmit_mailbox].TDLR = (((uint32_t)TxMessage->Data[3] << 24) | 
 567:../Libraries/STM32F10x_StdPeriph_Driver/src/stm32f10x_can.c ****                                              ((uint32_t)TxMessage->Data[2] << 16) |
 568:../Libraries/STM32F10x_StdPeriph_Driver/src/stm32f10x_can.c ****                                              ((uint32_t)TxMessage->Data[1] << 8) | 
 569:../Libraries/STM32F10x_StdPeriph_Driver/src/stm32f10x_can.c ****                                              ((uint32_t)TxMessage->Data[0]));
 570:../Libraries/STM32F10x_StdPeriph_Driver/src/stm32f10x_can.c ****     CANx->sTxMailBox[transmit_mailbox].TDHR = (((uint32_t)TxMessage->Data[7] << 24) | 
 571:../Libraries/STM32F10x_StdPeriph_Driver/src/stm32f10x_can.c ****                                              ((uint32_t)TxMessage->Data[6] << 16) |
 572:../Libraries/STM32F10x_StdPeriph_Driver/src/stm32f10x_can.c ****                                              ((uint32_t)TxMessage->Data[5] << 8) |
 573:../Libraries/STM32F10x_StdPeriph_Driver/src/stm32f10x_can.c ****                                              ((uint32_t)TxMessage->Data[4]));
 574:../Libraries/STM32F10x_StdPeriph_Driver/src/stm32f10x_can.c ****     /* Request transmission */
 575:../Libraries/STM32F10x_StdPeriph_Driver/src/stm32f10x_can.c ****     CANx->sTxMailBox[transmit_mailbox].TIR |= TMIDxR_TXRQ;
 576:../Libraries/STM32F10x_StdPeriph_Driver/src/stm32f10x_can.c ****   }
 577:../Libraries/STM32F10x_StdPeriph_Driver/src/stm32f10x_can.c ****   return transmit_mailbox;
 578:../Libraries/STM32F10x_StdPeriph_Driver/src/stm32f10x_can.c **** }
 579:../Libraries/STM32F10x_StdPeriph_Driver/src/stm32f10x_can.c **** 
 580:../Libraries/STM32F10x_StdPeriph_Driver/src/stm32f10x_can.c **** /**
 581:../Libraries/STM32F10x_StdPeriph_Driver/src/stm32f10x_can.c ****   * @brief  Checks the transmission of a message.
 582:../Libraries/STM32F10x_StdPeriph_Driver/src/stm32f10x_can.c ****   * @param  CANx:            where x can be 1 or 2 to to select the 
 583:../Libraries/STM32F10x_StdPeriph_Driver/src/stm32f10x_can.c ****   *                          CAN peripheral.
 584:../Libraries/STM32F10x_StdPeriph_Driver/src/stm32f10x_can.c ****   * @param  TransmitMailbox: the number of the mailbox that is used for 
 585:../Libraries/STM32F10x_StdPeriph_Driver/src/stm32f10x_can.c ****   *                          transmission.
 586:../Libraries/STM32F10x_StdPeriph_Driver/src/stm32f10x_can.c ****   * @retval CAN_TxStatus_Ok if the CAN driver transmits the message, CAN_TxStatus_Failed 
 587:../Libraries/STM32F10x_StdPeriph_Driver/src/stm32f10x_can.c ****   *         in an other case.
 588:../Libraries/STM32F10x_StdPeriph_Driver/src/stm32f10x_can.c ****   */
 589:../Libraries/STM32F10x_StdPeriph_Driver/src/stm32f10x_can.c **** uint8_t CAN_TransmitStatus(CAN_TypeDef* CANx, uint8_t TransmitMailbox)
 590:../Libraries/STM32F10x_StdPeriph_Driver/src/stm32f10x_can.c **** {
 591:../Libraries/STM32F10x_StdPeriph_Driver/src/stm32f10x_can.c ****   uint32_t state = 0;
 592:../Libraries/STM32F10x_StdPeriph_Driver/src/stm32f10x_can.c **** 
 593:../Libraries/STM32F10x_StdPeriph_Driver/src/stm32f10x_can.c ****   /* Check the parameters */
 594:../Libraries/STM32F10x_StdPeriph_Driver/src/stm32f10x_can.c ****   assert_param(IS_CAN_ALL_PERIPH(CANx));
 595:../Libraries/STM32F10x_StdPeriph_Driver/src/stm32f10x_can.c ****   assert_param(IS_CAN_TRANSMITMAILBOX(TransmitMailbox));
 596:../Libraries/STM32F10x_StdPeriph_Driver/src/stm32f10x_can.c ****  
 597:../Libraries/STM32F10x_StdPeriph_Driver/src/stm32f10x_can.c ****   switch (TransmitMailbox)
 598:../Libraries/STM32F10x_StdPeriph_Driver/src/stm32f10x_can.c ****   {
 599:../Libraries/STM32F10x_StdPeriph_Driver/src/stm32f10x_can.c ****     case (CAN_TXMAILBOX_0): 
 600:../Libraries/STM32F10x_StdPeriph_Driver/src/stm32f10x_can.c ****       state =   CANx->TSR &  (CAN_TSR_RQCP0 | CAN_TSR_TXOK0 | CAN_TSR_TME0);
 601:../Libraries/STM32F10x_StdPeriph_Driver/src/stm32f10x_can.c ****       break;
 602:../Libraries/STM32F10x_StdPeriph_Driver/src/stm32f10x_can.c ****     case (CAN_TXMAILBOX_1): 
 603:../Libraries/STM32F10x_StdPeriph_Driver/src/stm32f10x_can.c ****       state =   CANx->TSR &  (CAN_TSR_RQCP1 | CAN_TSR_TXOK1 | CAN_TSR_TME1);
 604:../Libraries/STM32F10x_StdPeriph_Driver/src/stm32f10x_can.c ****       break;
 605:../Libraries/STM32F10x_StdPeriph_Driver/src/stm32f10x_can.c ****     case (CAN_TXMAILBOX_2): 
 606:../Libraries/STM32F10x_StdPeriph_Driver/src/stm32f10x_can.c ****       state =   CANx->TSR &  (CAN_TSR_RQCP2 | CAN_TSR_TXOK2 | CAN_TSR_TME2);
 607:../Libraries/STM32F10x_StdPeriph_Driver/src/stm32f10x_can.c ****       break;
 608:../Libraries/STM32F10x_StdPeriph_Driver/src/stm32f10x_can.c ****     default:
 609:../Libraries/STM32F10x_StdPeriph_Driver/src/stm32f10x_can.c ****       state = CAN_TxStatus_Failed;
 610:../Libraries/STM32F10x_StdPeriph_Driver/src/stm32f10x_can.c ****       break;
 611:../Libraries/STM32F10x_StdPeriph_Driver/src/stm32f10x_can.c ****   }
 612:../Libraries/STM32F10x_StdPeriph_Driver/src/stm32f10x_can.c ****   switch (state)
 613:../Libraries/STM32F10x_StdPeriph_Driver/src/stm32f10x_can.c ****   {
 614:../Libraries/STM32F10x_StdPeriph_Driver/src/stm32f10x_can.c ****       /* transmit pending  */
 615:../Libraries/STM32F10x_StdPeriph_Driver/src/stm32f10x_can.c ****     case (0x0): state = CAN_TxStatus_Pending;
 616:../Libraries/STM32F10x_StdPeriph_Driver/src/stm32f10x_can.c ****       break;
 617:../Libraries/STM32F10x_StdPeriph_Driver/src/stm32f10x_can.c ****       /* transmit failed  */
 618:../Libraries/STM32F10x_StdPeriph_Driver/src/stm32f10x_can.c ****      case (CAN_TSR_RQCP0 | CAN_TSR_TME0): state = CAN_TxStatus_Failed;
 619:../Libraries/STM32F10x_StdPeriph_Driver/src/stm32f10x_can.c ****       break;
 620:../Libraries/STM32F10x_StdPeriph_Driver/src/stm32f10x_can.c ****      case (CAN_TSR_RQCP1 | CAN_TSR_TME1): state = CAN_TxStatus_Failed;
 621:../Libraries/STM32F10x_StdPeriph_Driver/src/stm32f10x_can.c ****       break;
 622:../Libraries/STM32F10x_StdPeriph_Driver/src/stm32f10x_can.c ****      case (CAN_TSR_RQCP2 | CAN_TSR_TME2): state = CAN_TxStatus_Failed;
 623:../Libraries/STM32F10x_StdPeriph_Driver/src/stm32f10x_can.c ****       break;
 624:../Libraries/STM32F10x_StdPeriph_Driver/src/stm32f10x_can.c ****       /* transmit succeeded  */
 625:../Libraries/STM32F10x_StdPeriph_Driver/src/stm32f10x_can.c ****     case (CAN_TSR_RQCP0 | CAN_TSR_TXOK0 | CAN_TSR_TME0):state = CAN_TxStatus_Ok;
 626:../Libraries/STM32F10x_StdPeriph_Driver/src/stm32f10x_can.c ****       break;
 627:../Libraries/STM32F10x_StdPeriph_Driver/src/stm32f10x_can.c ****     case (CAN_TSR_RQCP1 | CAN_TSR_TXOK1 | CAN_TSR_TME1):state = CAN_TxStatus_Ok;
 628:../Libraries/STM32F10x_StdPeriph_Driver/src/stm32f10x_can.c ****       break;
 629:../Libraries/STM32F10x_StdPeriph_Driver/src/stm32f10x_can.c ****     case (CAN_TSR_RQCP2 | CAN_TSR_TXOK2 | CAN_TSR_TME2):state = CAN_TxStatus_Ok;
 630:../Libraries/STM32F10x_StdPeriph_Driver/src/stm32f10x_can.c ****       break;
 631:../Libraries/STM32F10x_StdPeriph_Driver/src/stm32f10x_can.c ****     default: state = CAN_TxStatus_Failed;
 632:../Libraries/STM32F10x_StdPeriph_Driver/src/stm32f10x_can.c ****       break;
 633:../Libraries/STM32F10x_StdPeriph_Driver/src/stm32f10x_can.c ****   }
 634:../Libraries/STM32F10x_StdPeriph_Driver/src/stm32f10x_can.c ****   return (uint8_t) state;
 635:../Libraries/STM32F10x_StdPeriph_Driver/src/stm32f10x_can.c **** }
 636:../Libraries/STM32F10x_StdPeriph_Driver/src/stm32f10x_can.c **** 
 637:../Libraries/STM32F10x_StdPeriph_Driver/src/stm32f10x_can.c **** /**
 638:../Libraries/STM32F10x_StdPeriph_Driver/src/stm32f10x_can.c ****   * @brief  Cancels a transmit request.
 639:../Libraries/STM32F10x_StdPeriph_Driver/src/stm32f10x_can.c ****   * @param  CANx:     where x can be 1 or 2 to to select the CAN peripheral. 
 640:../Libraries/STM32F10x_StdPeriph_Driver/src/stm32f10x_can.c ****   * @param  Mailbox:  Mailbox number.
 641:../Libraries/STM32F10x_StdPeriph_Driver/src/stm32f10x_can.c ****   * @retval None.
 642:../Libraries/STM32F10x_StdPeriph_Driver/src/stm32f10x_can.c ****   */
 643:../Libraries/STM32F10x_StdPeriph_Driver/src/stm32f10x_can.c **** void CAN_CancelTransmit(CAN_TypeDef* CANx, uint8_t Mailbox)
 644:../Libraries/STM32F10x_StdPeriph_Driver/src/stm32f10x_can.c **** {
 645:../Libraries/STM32F10x_StdPeriph_Driver/src/stm32f10x_can.c ****   /* Check the parameters */
 646:../Libraries/STM32F10x_StdPeriph_Driver/src/stm32f10x_can.c ****   assert_param(IS_CAN_ALL_PERIPH(CANx));
 647:../Libraries/STM32F10x_StdPeriph_Driver/src/stm32f10x_can.c ****   assert_param(IS_CAN_TRANSMITMAILBOX(Mailbox));
 648:../Libraries/STM32F10x_StdPeriph_Driver/src/stm32f10x_can.c ****   /* abort transmission */
 649:../Libraries/STM32F10x_StdPeriph_Driver/src/stm32f10x_can.c ****   switch (Mailbox)
 650:../Libraries/STM32F10x_StdPeriph_Driver/src/stm32f10x_can.c ****   {
 651:../Libraries/STM32F10x_StdPeriph_Driver/src/stm32f10x_can.c ****     case (CAN_TXMAILBOX_0): CANx->TSR |= CAN_TSR_ABRQ0;
 652:../Libraries/STM32F10x_StdPeriph_Driver/src/stm32f10x_can.c ****       break;
 653:../Libraries/STM32F10x_StdPeriph_Driver/src/stm32f10x_can.c ****     case (CAN_TXMAILBOX_1): CANx->TSR |= CAN_TSR_ABRQ1;
 654:../Libraries/STM32F10x_StdPeriph_Driver/src/stm32f10x_can.c ****       break;
 655:../Libraries/STM32F10x_StdPeriph_Driver/src/stm32f10x_can.c ****     case (CAN_TXMAILBOX_2): CANx->TSR |= CAN_TSR_ABRQ2;
 656:../Libraries/STM32F10x_StdPeriph_Driver/src/stm32f10x_can.c ****       break;
 657:../Libraries/STM32F10x_StdPeriph_Driver/src/stm32f10x_can.c ****     default:
 658:../Libraries/STM32F10x_StdPeriph_Driver/src/stm32f10x_can.c ****       break;
 659:../Libraries/STM32F10x_StdPeriph_Driver/src/stm32f10x_can.c ****   }
 660:../Libraries/STM32F10x_StdPeriph_Driver/src/stm32f10x_can.c **** }
 661:../Libraries/STM32F10x_StdPeriph_Driver/src/stm32f10x_can.c **** 
 662:../Libraries/STM32F10x_StdPeriph_Driver/src/stm32f10x_can.c **** 
 663:../Libraries/STM32F10x_StdPeriph_Driver/src/stm32f10x_can.c **** /**
 664:../Libraries/STM32F10x_StdPeriph_Driver/src/stm32f10x_can.c ****   * @brief  Receives a message.
 665:../Libraries/STM32F10x_StdPeriph_Driver/src/stm32f10x_can.c ****   * @param  CANx:       where x can be 1 or 2 to to select the CAN peripheral.
 666:../Libraries/STM32F10x_StdPeriph_Driver/src/stm32f10x_can.c ****   * @param  FIFONumber: Receive FIFO number, CAN_FIFO0 or CAN_FIFO1.
 667:../Libraries/STM32F10x_StdPeriph_Driver/src/stm32f10x_can.c ****   * @param  RxMessage:  pointer to a structure receive message which contains 
 668:../Libraries/STM32F10x_StdPeriph_Driver/src/stm32f10x_can.c ****   *                     CAN Id, CAN DLC, CAN datas and FMI number.
 669:../Libraries/STM32F10x_StdPeriph_Driver/src/stm32f10x_can.c ****   * @retval None.
 670:../Libraries/STM32F10x_StdPeriph_Driver/src/stm32f10x_can.c ****   */
 671:../Libraries/STM32F10x_StdPeriph_Driver/src/stm32f10x_can.c **** void CAN_Receive(CAN_TypeDef* CANx, uint8_t FIFONumber, CanRxMsg* RxMessage)
 672:../Libraries/STM32F10x_StdPeriph_Driver/src/stm32f10x_can.c **** {
 673:../Libraries/STM32F10x_StdPeriph_Driver/src/stm32f10x_can.c ****   /* Check the parameters */
 674:../Libraries/STM32F10x_StdPeriph_Driver/src/stm32f10x_can.c ****   assert_param(IS_CAN_ALL_PERIPH(CANx));
 675:../Libraries/STM32F10x_StdPeriph_Driver/src/stm32f10x_can.c ****   assert_param(IS_CAN_FIFO(FIFONumber));
 676:../Libraries/STM32F10x_StdPeriph_Driver/src/stm32f10x_can.c ****   /* Get the Id */
 677:../Libraries/STM32F10x_StdPeriph_Driver/src/stm32f10x_can.c ****   RxMessage->IDE = (uint8_t)0x04 & CANx->sFIFOMailBox[FIFONumber].RIR;
 678:../Libraries/STM32F10x_StdPeriph_Driver/src/stm32f10x_can.c ****   if (RxMessage->IDE == CAN_Id_Standard)
 679:../Libraries/STM32F10x_StdPeriph_Driver/src/stm32f10x_can.c ****   {
 680:../Libraries/STM32F10x_StdPeriph_Driver/src/stm32f10x_can.c ****     RxMessage->StdId = (uint32_t)0x000007FF & (CANx->sFIFOMailBox[FIFONumber].RIR >> 21);
 681:../Libraries/STM32F10x_StdPeriph_Driver/src/stm32f10x_can.c ****   }
 682:../Libraries/STM32F10x_StdPeriph_Driver/src/stm32f10x_can.c ****   else
 683:../Libraries/STM32F10x_StdPeriph_Driver/src/stm32f10x_can.c ****   {
 684:../Libraries/STM32F10x_StdPeriph_Driver/src/stm32f10x_can.c ****     RxMessage->ExtId = (uint32_t)0x1FFFFFFF & (CANx->sFIFOMailBox[FIFONumber].RIR >> 3);
 685:../Libraries/STM32F10x_StdPeriph_Driver/src/stm32f10x_can.c ****   }
 686:../Libraries/STM32F10x_StdPeriph_Driver/src/stm32f10x_can.c ****   
 687:../Libraries/STM32F10x_StdPeriph_Driver/src/stm32f10x_can.c ****   RxMessage->RTR = (uint8_t)0x02 & CANx->sFIFOMailBox[FIFONumber].RIR;
 688:../Libraries/STM32F10x_StdPeriph_Driver/src/stm32f10x_can.c ****   /* Get the DLC */
 689:../Libraries/STM32F10x_StdPeriph_Driver/src/stm32f10x_can.c ****   RxMessage->DLC = (uint8_t)0x0F & CANx->sFIFOMailBox[FIFONumber].RDTR;
 690:../Libraries/STM32F10x_StdPeriph_Driver/src/stm32f10x_can.c ****   /* Get the FMI */
 691:../Libraries/STM32F10x_StdPeriph_Driver/src/stm32f10x_can.c ****   RxMessage->FMI = (uint8_t)0xFF & (CANx->sFIFOMailBox[FIFONumber].RDTR >> 8);
 692:../Libraries/STM32F10x_StdPeriph_Driver/src/stm32f10x_can.c ****   /* Get the data field */
 693:../Libraries/STM32F10x_StdPeriph_Driver/src/stm32f10x_can.c ****   RxMessage->Data[0] = (uint8_t)0xFF & CANx->sFIFOMailBox[FIFONumber].RDLR;
 694:../Libraries/STM32F10x_StdPeriph_Driver/src/stm32f10x_can.c ****   RxMessage->Data[1] = (uint8_t)0xFF & (CANx->sFIFOMailBox[FIFONumber].RDLR >> 8);
 695:../Libraries/STM32F10x_StdPeriph_Driver/src/stm32f10x_can.c ****   RxMessage->Data[2] = (uint8_t)0xFF & (CANx->sFIFOMailBox[FIFONumber].RDLR >> 16);
 696:../Libraries/STM32F10x_StdPeriph_Driver/src/stm32f10x_can.c ****   RxMessage->Data[3] = (uint8_t)0xFF & (CANx->sFIFOMailBox[FIFONumber].RDLR >> 24);
 697:../Libraries/STM32F10x_StdPeriph_Driver/src/stm32f10x_can.c ****   RxMessage->Data[4] = (uint8_t)0xFF & CANx->sFIFOMailBox[FIFONumber].RDHR;
 698:../Libraries/STM32F10x_StdPeriph_Driver/src/stm32f10x_can.c ****   RxMessage->Data[5] = (uint8_t)0xFF & (CANx->sFIFOMailBox[FIFONumber].RDHR >> 8);
 699:../Libraries/STM32F10x_StdPeriph_Driver/src/stm32f10x_can.c ****   RxMessage->Data[6] = (uint8_t)0xFF & (CANx->sFIFOMailBox[FIFONumber].RDHR >> 16);
 700:../Libraries/STM32F10x_StdPeriph_Driver/src/stm32f10x_can.c ****   RxMessage->Data[7] = (uint8_t)0xFF & (CANx->sFIFOMailBox[FIFONumber].RDHR >> 24);
 701:../Libraries/STM32F10x_StdPeriph_Driver/src/stm32f10x_can.c ****   /* Release the FIFO */
 702:../Libraries/STM32F10x_StdPeriph_Driver/src/stm32f10x_can.c ****   /* Release FIFO0 */
 703:../Libraries/STM32F10x_StdPeriph_Driver/src/stm32f10x_can.c ****   if (FIFONumber == CAN_FIFO0)
 704:../Libraries/STM32F10x_StdPeriph_Driver/src/stm32f10x_can.c ****   {
 705:../Libraries/STM32F10x_StdPeriph_Driver/src/stm32f10x_can.c ****     CANx->RF0R |= CAN_RF0R_RFOM0;
 706:../Libraries/STM32F10x_StdPeriph_Driver/src/stm32f10x_can.c ****   }
 707:../Libraries/STM32F10x_StdPeriph_Driver/src/stm32f10x_can.c ****   /* Release FIFO1 */
 708:../Libraries/STM32F10x_StdPeriph_Driver/src/stm32f10x_can.c ****   else /* FIFONumber == CAN_FIFO1 */
 709:../Libraries/STM32F10x_StdPeriph_Driver/src/stm32f10x_can.c ****   {
 710:../Libraries/STM32F10x_StdPeriph_Driver/src/stm32f10x_can.c ****     CANx->RF1R |= CAN_RF1R_RFOM1;
 711:../Libraries/STM32F10x_StdPeriph_Driver/src/stm32f10x_can.c ****   }
 712:../Libraries/STM32F10x_StdPeriph_Driver/src/stm32f10x_can.c **** }
 713:../Libraries/STM32F10x_StdPeriph_Driver/src/stm32f10x_can.c **** 
 714:../Libraries/STM32F10x_StdPeriph_Driver/src/stm32f10x_can.c **** /**
 715:../Libraries/STM32F10x_StdPeriph_Driver/src/stm32f10x_can.c ****   * @brief  Releases the specified FIFO.
 716:../Libraries/STM32F10x_StdPeriph_Driver/src/stm32f10x_can.c ****   * @param  CANx:       where x can be 1 or 2 to to select the CAN peripheral. 
 717:../Libraries/STM32F10x_StdPeriph_Driver/src/stm32f10x_can.c ****   * @param  FIFONumber: FIFO to release, CAN_FIFO0 or CAN_FIFO1.
 718:../Libraries/STM32F10x_StdPeriph_Driver/src/stm32f10x_can.c ****   * @retval None.
 719:../Libraries/STM32F10x_StdPeriph_Driver/src/stm32f10x_can.c ****   */
 720:../Libraries/STM32F10x_StdPeriph_Driver/src/stm32f10x_can.c **** void CAN_FIFORelease(CAN_TypeDef* CANx, uint8_t FIFONumber)
 721:../Libraries/STM32F10x_StdPeriph_Driver/src/stm32f10x_can.c **** {
 722:../Libraries/STM32F10x_StdPeriph_Driver/src/stm32f10x_can.c ****   /* Check the parameters */
 723:../Libraries/STM32F10x_StdPeriph_Driver/src/stm32f10x_can.c ****   assert_param(IS_CAN_ALL_PERIPH(CANx));
 724:../Libraries/STM32F10x_StdPeriph_Driver/src/stm32f10x_can.c ****   assert_param(IS_CAN_FIFO(FIFONumber));
 725:../Libraries/STM32F10x_StdPeriph_Driver/src/stm32f10x_can.c ****   /* Release FIFO0 */
 726:../Libraries/STM32F10x_StdPeriph_Driver/src/stm32f10x_can.c ****   if (FIFONumber == CAN_FIFO0)
 727:../Libraries/STM32F10x_StdPeriph_Driver/src/stm32f10x_can.c ****   {
 728:../Libraries/STM32F10x_StdPeriph_Driver/src/stm32f10x_can.c ****     CANx->RF0R |= CAN_RF0R_RFOM0;
 729:../Libraries/STM32F10x_StdPeriph_Driver/src/stm32f10x_can.c ****   }
 730:../Libraries/STM32F10x_StdPeriph_Driver/src/stm32f10x_can.c ****   /* Release FIFO1 */
 731:../Libraries/STM32F10x_StdPeriph_Driver/src/stm32f10x_can.c ****   else /* FIFONumber == CAN_FIFO1 */
 732:../Libraries/STM32F10x_StdPeriph_Driver/src/stm32f10x_can.c ****   {
 733:../Libraries/STM32F10x_StdPeriph_Driver/src/stm32f10x_can.c ****     CANx->RF1R |= CAN_RF1R_RFOM1;
 734:../Libraries/STM32F10x_StdPeriph_Driver/src/stm32f10x_can.c ****   }
 735:../Libraries/STM32F10x_StdPeriph_Driver/src/stm32f10x_can.c **** }
 736:../Libraries/STM32F10x_StdPeriph_Driver/src/stm32f10x_can.c **** 
 737:../Libraries/STM32F10x_StdPeriph_Driver/src/stm32f10x_can.c **** /**
 738:../Libraries/STM32F10x_StdPeriph_Driver/src/stm32f10x_can.c ****   * @brief  Returns the number of pending messages.
 739:../Libraries/STM32F10x_StdPeriph_Driver/src/stm32f10x_can.c ****   * @param  CANx:       where x can be 1 or 2 to to select the CAN peripheral.
 740:../Libraries/STM32F10x_StdPeriph_Driver/src/stm32f10x_can.c ****   * @param  FIFONumber: Receive FIFO number, CAN_FIFO0 or CAN_FIFO1.
 741:../Libraries/STM32F10x_StdPeriph_Driver/src/stm32f10x_can.c ****   * @retval NbMessage : which is the number of pending message.
 742:../Libraries/STM32F10x_StdPeriph_Driver/src/stm32f10x_can.c ****   */
 743:../Libraries/STM32F10x_StdPeriph_Driver/src/stm32f10x_can.c **** uint8_t CAN_MessagePending(CAN_TypeDef* CANx, uint8_t FIFONumber)
 744:../Libraries/STM32F10x_StdPeriph_Driver/src/stm32f10x_can.c **** {
 745:../Libraries/STM32F10x_StdPeriph_Driver/src/stm32f10x_can.c ****   uint8_t message_pending=0;
 746:../Libraries/STM32F10x_StdPeriph_Driver/src/stm32f10x_can.c ****   /* Check the parameters */
 747:../Libraries/STM32F10x_StdPeriph_Driver/src/stm32f10x_can.c ****   assert_param(IS_CAN_ALL_PERIPH(CANx));
 748:../Libraries/STM32F10x_StdPeriph_Driver/src/stm32f10x_can.c ****   assert_param(IS_CAN_FIFO(FIFONumber));
 749:../Libraries/STM32F10x_StdPeriph_Driver/src/stm32f10x_can.c ****   if (FIFONumber == CAN_FIFO0)
 750:../Libraries/STM32F10x_StdPeriph_Driver/src/stm32f10x_can.c ****   {
 751:../Libraries/STM32F10x_StdPeriph_Driver/src/stm32f10x_can.c ****     message_pending = (uint8_t)(CANx->RF0R&(uint32_t)0x03);
 752:../Libraries/STM32F10x_StdPeriph_Driver/src/stm32f10x_can.c ****   }
 753:../Libraries/STM32F10x_StdPeriph_Driver/src/stm32f10x_can.c ****   else if (FIFONumber == CAN_FIFO1)
 754:../Libraries/STM32F10x_StdPeriph_Driver/src/stm32f10x_can.c ****   {
 755:../Libraries/STM32F10x_StdPeriph_Driver/src/stm32f10x_can.c ****     message_pending = (uint8_t)(CANx->RF1R&(uint32_t)0x03);
 756:../Libraries/STM32F10x_StdPeriph_Driver/src/stm32f10x_can.c ****   }
 757:../Libraries/STM32F10x_StdPeriph_Driver/src/stm32f10x_can.c ****   else
 758:../Libraries/STM32F10x_StdPeriph_Driver/src/stm32f10x_can.c ****   {
 759:../Libraries/STM32F10x_StdPeriph_Driver/src/stm32f10x_can.c ****     message_pending = 0;
 760:../Libraries/STM32F10x_StdPeriph_Driver/src/stm32f10x_can.c ****   }
 761:../Libraries/STM32F10x_StdPeriph_Driver/src/stm32f10x_can.c ****   return message_pending;
 762:../Libraries/STM32F10x_StdPeriph_Driver/src/stm32f10x_can.c **** }
 763:../Libraries/STM32F10x_StdPeriph_Driver/src/stm32f10x_can.c **** 
 764:../Libraries/STM32F10x_StdPeriph_Driver/src/stm32f10x_can.c **** 
 765:../Libraries/STM32F10x_StdPeriph_Driver/src/stm32f10x_can.c **** /**
 766:../Libraries/STM32F10x_StdPeriph_Driver/src/stm32f10x_can.c ****   * @brief   Select the CAN Operation mode.
 767:../Libraries/STM32F10x_StdPeriph_Driver/src/stm32f10x_can.c ****   * @param CAN_OperatingMode : CAN Operating Mode. This parameter can be one 
 768:../Libraries/STM32F10x_StdPeriph_Driver/src/stm32f10x_can.c ****   *                            of @ref CAN_OperatingMode_TypeDef enumeration.
 769:../Libraries/STM32F10x_StdPeriph_Driver/src/stm32f10x_can.c ****   * @retval status of the requested mode which can be 
 770:../Libraries/STM32F10x_StdPeriph_Driver/src/stm32f10x_can.c ****   *         - CAN_ModeStatus_Failed    CAN failed entering the specific mode 
 771:../Libraries/STM32F10x_StdPeriph_Driver/src/stm32f10x_can.c ****   *         - CAN_ModeStatus_Success   CAN Succeed entering the specific mode 
 772:../Libraries/STM32F10x_StdPeriph_Driver/src/stm32f10x_can.c **** 
 773:../Libraries/STM32F10x_StdPeriph_Driver/src/stm32f10x_can.c ****   */
 774:../Libraries/STM32F10x_StdPeriph_Driver/src/stm32f10x_can.c **** uint8_t CAN_OperatingModeRequest(CAN_TypeDef* CANx, uint8_t CAN_OperatingMode)
 775:../Libraries/STM32F10x_StdPeriph_Driver/src/stm32f10x_can.c **** {
 776:../Libraries/STM32F10x_StdPeriph_Driver/src/stm32f10x_can.c ****   uint8_t status = CAN_ModeStatus_Failed;
 777:../Libraries/STM32F10x_StdPeriph_Driver/src/stm32f10x_can.c ****   
 778:../Libraries/STM32F10x_StdPeriph_Driver/src/stm32f10x_can.c ****   /* Timeout for INAK or also for SLAK bits*/
 779:../Libraries/STM32F10x_StdPeriph_Driver/src/stm32f10x_can.c ****   uint32_t timeout = INAK_TIMEOUT; 
 780:../Libraries/STM32F10x_StdPeriph_Driver/src/stm32f10x_can.c **** 
 781:../Libraries/STM32F10x_StdPeriph_Driver/src/stm32f10x_can.c ****   /* Check the parameters */
 782:../Libraries/STM32F10x_StdPeriph_Driver/src/stm32f10x_can.c ****   assert_param(IS_CAN_ALL_PERIPH(CANx));
 783:../Libraries/STM32F10x_StdPeriph_Driver/src/stm32f10x_can.c ****   assert_param(IS_CAN_OPERATING_MODE(CAN_OperatingMode));
 784:../Libraries/STM32F10x_StdPeriph_Driver/src/stm32f10x_can.c **** 
 785:../Libraries/STM32F10x_StdPeriph_Driver/src/stm32f10x_can.c ****   if (CAN_OperatingMode == CAN_OperatingMode_Initialization)
 786:../Libraries/STM32F10x_StdPeriph_Driver/src/stm32f10x_can.c ****   {
 787:../Libraries/STM32F10x_StdPeriph_Driver/src/stm32f10x_can.c ****     /* Request initialisation */
 788:../Libraries/STM32F10x_StdPeriph_Driver/src/stm32f10x_can.c ****     CANx->MCR = (uint32_t)((CANx->MCR & (uint32_t)(~(uint32_t)CAN_MCR_SLEEP)) | CAN_MCR_INRQ);
 789:../Libraries/STM32F10x_StdPeriph_Driver/src/stm32f10x_can.c **** 
 790:../Libraries/STM32F10x_StdPeriph_Driver/src/stm32f10x_can.c ****     /* Wait the acknowledge */
 791:../Libraries/STM32F10x_StdPeriph_Driver/src/stm32f10x_can.c ****     while (((CANx->MSR & CAN_MODE_MASK) != CAN_MSR_INAK) && (timeout != 0))
 792:../Libraries/STM32F10x_StdPeriph_Driver/src/stm32f10x_can.c ****     {
 793:../Libraries/STM32F10x_StdPeriph_Driver/src/stm32f10x_can.c ****       timeout--;
 794:../Libraries/STM32F10x_StdPeriph_Driver/src/stm32f10x_can.c ****     }
 795:../Libraries/STM32F10x_StdPeriph_Driver/src/stm32f10x_can.c ****     if ((CANx->MSR & CAN_MODE_MASK) != CAN_MSR_INAK)
 796:../Libraries/STM32F10x_StdPeriph_Driver/src/stm32f10x_can.c ****     {
 797:../Libraries/STM32F10x_StdPeriph_Driver/src/stm32f10x_can.c ****       status = CAN_ModeStatus_Failed;
 798:../Libraries/STM32F10x_StdPeriph_Driver/src/stm32f10x_can.c ****     }
 799:../Libraries/STM32F10x_StdPeriph_Driver/src/stm32f10x_can.c ****     else
 800:../Libraries/STM32F10x_StdPeriph_Driver/src/stm32f10x_can.c ****     {
 801:../Libraries/STM32F10x_StdPeriph_Driver/src/stm32f10x_can.c ****       status = CAN_ModeStatus_Success;
 802:../Libraries/STM32F10x_StdPeriph_Driver/src/stm32f10x_can.c ****     }
 803:../Libraries/STM32F10x_StdPeriph_Driver/src/stm32f10x_can.c ****   }
 804:../Libraries/STM32F10x_StdPeriph_Driver/src/stm32f10x_can.c ****   else  if (CAN_OperatingMode == CAN_OperatingMode_Normal)
 805:../Libraries/STM32F10x_StdPeriph_Driver/src/stm32f10x_can.c ****   {
 806:../Libraries/STM32F10x_StdPeriph_Driver/src/stm32f10x_can.c ****     /* Request leave initialisation and sleep mode  and enter Normal mode */
 807:../Libraries/STM32F10x_StdPeriph_Driver/src/stm32f10x_can.c ****     CANx->MCR &= (uint32_t)(~(CAN_MCR_SLEEP|CAN_MCR_INRQ));
 808:../Libraries/STM32F10x_StdPeriph_Driver/src/stm32f10x_can.c **** 
 809:../Libraries/STM32F10x_StdPeriph_Driver/src/stm32f10x_can.c ****     /* Wait the acknowledge */
 810:../Libraries/STM32F10x_StdPeriph_Driver/src/stm32f10x_can.c ****     while (((CANx->MSR & CAN_MODE_MASK) != 0) && (timeout!=0))
 811:../Libraries/STM32F10x_StdPeriph_Driver/src/stm32f10x_can.c ****     {
 812:../Libraries/STM32F10x_StdPeriph_Driver/src/stm32f10x_can.c ****       timeout--;
 813:../Libraries/STM32F10x_StdPeriph_Driver/src/stm32f10x_can.c ****     }
 814:../Libraries/STM32F10x_StdPeriph_Driver/src/stm32f10x_can.c ****     if ((CANx->MSR & CAN_MODE_MASK) != 0)
 815:../Libraries/STM32F10x_StdPeriph_Driver/src/stm32f10x_can.c ****     {
 816:../Libraries/STM32F10x_StdPeriph_Driver/src/stm32f10x_can.c ****       status = CAN_ModeStatus_Failed;
 817:../Libraries/STM32F10x_StdPeriph_Driver/src/stm32f10x_can.c ****     }
 818:../Libraries/STM32F10x_StdPeriph_Driver/src/stm32f10x_can.c ****     else
 819:../Libraries/STM32F10x_StdPeriph_Driver/src/stm32f10x_can.c ****     {
 820:../Libraries/STM32F10x_StdPeriph_Driver/src/stm32f10x_can.c ****       status = CAN_ModeStatus_Success;
 821:../Libraries/STM32F10x_StdPeriph_Driver/src/stm32f10x_can.c ****     }
 822:../Libraries/STM32F10x_StdPeriph_Driver/src/stm32f10x_can.c ****   }
 823:../Libraries/STM32F10x_StdPeriph_Driver/src/stm32f10x_can.c ****   else  if (CAN_OperatingMode == CAN_OperatingMode_Sleep)
 824:../Libraries/STM32F10x_StdPeriph_Driver/src/stm32f10x_can.c ****   {
 825:../Libraries/STM32F10x_StdPeriph_Driver/src/stm32f10x_can.c ****     /* Request Sleep mode */
 826:../Libraries/STM32F10x_StdPeriph_Driver/src/stm32f10x_can.c ****     CANx->MCR = (uint32_t)((CANx->MCR & (uint32_t)(~(uint32_t)CAN_MCR_INRQ)) | CAN_MCR_SLEEP);
 827:../Libraries/STM32F10x_StdPeriph_Driver/src/stm32f10x_can.c **** 
 828:../Libraries/STM32F10x_StdPeriph_Driver/src/stm32f10x_can.c ****     /* Wait the acknowledge */
 829:../Libraries/STM32F10x_StdPeriph_Driver/src/stm32f10x_can.c ****     while (((CANx->MSR & CAN_MODE_MASK) != CAN_MSR_SLAK) && (timeout!=0))
 830:../Libraries/STM32F10x_StdPeriph_Driver/src/stm32f10x_can.c ****     {
 831:../Libraries/STM32F10x_StdPeriph_Driver/src/stm32f10x_can.c ****       timeout--;
 832:../Libraries/STM32F10x_StdPeriph_Driver/src/stm32f10x_can.c ****     }
 833:../Libraries/STM32F10x_StdPeriph_Driver/src/stm32f10x_can.c ****     if ((CANx->MSR & CAN_MODE_MASK) != CAN_MSR_SLAK)
 834:../Libraries/STM32F10x_StdPeriph_Driver/src/stm32f10x_can.c ****     {
 835:../Libraries/STM32F10x_StdPeriph_Driver/src/stm32f10x_can.c ****       status = CAN_ModeStatus_Failed;
 836:../Libraries/STM32F10x_StdPeriph_Driver/src/stm32f10x_can.c ****     }
 837:../Libraries/STM32F10x_StdPeriph_Driver/src/stm32f10x_can.c ****     else
 838:../Libraries/STM32F10x_StdPeriph_Driver/src/stm32f10x_can.c ****     {
 839:../Libraries/STM32F10x_StdPeriph_Driver/src/stm32f10x_can.c ****       status = CAN_ModeStatus_Success;
 840:../Libraries/STM32F10x_StdPeriph_Driver/src/stm32f10x_can.c ****     }
 841:../Libraries/STM32F10x_StdPeriph_Driver/src/stm32f10x_can.c ****   }
 842:../Libraries/STM32F10x_StdPeriph_Driver/src/stm32f10x_can.c ****   else
 843:../Libraries/STM32F10x_StdPeriph_Driver/src/stm32f10x_can.c ****   {
 844:../Libraries/STM32F10x_StdPeriph_Driver/src/stm32f10x_can.c ****     status = CAN_ModeStatus_Failed;
 845:../Libraries/STM32F10x_StdPeriph_Driver/src/stm32f10x_can.c ****   }
 846:../Libraries/STM32F10x_StdPeriph_Driver/src/stm32f10x_can.c **** 
 847:../Libraries/STM32F10x_StdPeriph_Driver/src/stm32f10x_can.c ****   return  (uint8_t) status;
 848:../Libraries/STM32F10x_StdPeriph_Driver/src/stm32f10x_can.c **** }
 849:../Libraries/STM32F10x_StdPeriph_Driver/src/stm32f10x_can.c **** 
 850:../Libraries/STM32F10x_StdPeriph_Driver/src/stm32f10x_can.c **** /**
 851:../Libraries/STM32F10x_StdPeriph_Driver/src/stm32f10x_can.c ****   * @brief  Enters the low power mode.
 852:../Libraries/STM32F10x_StdPeriph_Driver/src/stm32f10x_can.c ****   * @param  CANx:   where x can be 1 or 2 to to select the CAN peripheral.
 853:../Libraries/STM32F10x_StdPeriph_Driver/src/stm32f10x_can.c ****   * @retval status: CAN_Sleep_Ok if sleep entered, CAN_Sleep_Failed in an 
 854:../Libraries/STM32F10x_StdPeriph_Driver/src/stm32f10x_can.c ****   *                 other case.
 855:../Libraries/STM32F10x_StdPeriph_Driver/src/stm32f10x_can.c ****   */
 856:../Libraries/STM32F10x_StdPeriph_Driver/src/stm32f10x_can.c **** uint8_t CAN_Sleep(CAN_TypeDef* CANx)
 857:../Libraries/STM32F10x_StdPeriph_Driver/src/stm32f10x_can.c **** {
 858:../Libraries/STM32F10x_StdPeriph_Driver/src/stm32f10x_can.c ****   uint8_t sleepstatus = CAN_Sleep_Failed;
 859:../Libraries/STM32F10x_StdPeriph_Driver/src/stm32f10x_can.c ****   
 860:../Libraries/STM32F10x_StdPeriph_Driver/src/stm32f10x_can.c ****   /* Check the parameters */
 861:../Libraries/STM32F10x_StdPeriph_Driver/src/stm32f10x_can.c ****   assert_param(IS_CAN_ALL_PERIPH(CANx));
 862:../Libraries/STM32F10x_StdPeriph_Driver/src/stm32f10x_can.c ****     
 863:../Libraries/STM32F10x_StdPeriph_Driver/src/stm32f10x_can.c ****   /* Request Sleep mode */
 864:../Libraries/STM32F10x_StdPeriph_Driver/src/stm32f10x_can.c ****    CANx->MCR = (((CANx->MCR) & (uint32_t)(~(uint32_t)CAN_MCR_INRQ)) | CAN_MCR_SLEEP);
 865:../Libraries/STM32F10x_StdPeriph_Driver/src/stm32f10x_can.c ****    
 866:../Libraries/STM32F10x_StdPeriph_Driver/src/stm32f10x_can.c ****   /* Sleep mode status */
 867:../Libraries/STM32F10x_StdPeriph_Driver/src/stm32f10x_can.c ****   if ((CANx->MSR & (CAN_MSR_SLAK|CAN_MSR_INAK)) == CAN_MSR_SLAK)
 868:../Libraries/STM32F10x_StdPeriph_Driver/src/stm32f10x_can.c ****   {
 869:../Libraries/STM32F10x_StdPeriph_Driver/src/stm32f10x_can.c ****     /* Sleep mode not entered */
 870:../Libraries/STM32F10x_StdPeriph_Driver/src/stm32f10x_can.c ****     sleepstatus =  CAN_Sleep_Ok;
 871:../Libraries/STM32F10x_StdPeriph_Driver/src/stm32f10x_can.c ****   }
 872:../Libraries/STM32F10x_StdPeriph_Driver/src/stm32f10x_can.c ****   /* return sleep mode status */
 873:../Libraries/STM32F10x_StdPeriph_Driver/src/stm32f10x_can.c ****    return (uint8_t)sleepstatus;
 874:../Libraries/STM32F10x_StdPeriph_Driver/src/stm32f10x_can.c **** }
 875:../Libraries/STM32F10x_StdPeriph_Driver/src/stm32f10x_can.c **** 
 876:../Libraries/STM32F10x_StdPeriph_Driver/src/stm32f10x_can.c **** /**
 877:../Libraries/STM32F10x_StdPeriph_Driver/src/stm32f10x_can.c ****   * @brief  Wakes the CAN up.
 878:../Libraries/STM32F10x_StdPeriph_Driver/src/stm32f10x_can.c ****   * @param  CANx:    where x can be 1 or 2 to to select the CAN peripheral.
 879:../Libraries/STM32F10x_StdPeriph_Driver/src/stm32f10x_can.c ****   * @retval status:  CAN_WakeUp_Ok if sleep mode left, CAN_WakeUp_Failed in an 
 880:../Libraries/STM32F10x_StdPeriph_Driver/src/stm32f10x_can.c ****   *                  other case.
 881:../Libraries/STM32F10x_StdPeriph_Driver/src/stm32f10x_can.c ****   */
 882:../Libraries/STM32F10x_StdPeriph_Driver/src/stm32f10x_can.c **** uint8_t CAN_WakeUp(CAN_TypeDef* CANx)
 883:../Libraries/STM32F10x_StdPeriph_Driver/src/stm32f10x_can.c **** {
 884:../Libraries/STM32F10x_StdPeriph_Driver/src/stm32f10x_can.c ****   uint32_t wait_slak = SLAK_TIMEOUT;
 885:../Libraries/STM32F10x_StdPeriph_Driver/src/stm32f10x_can.c ****   uint8_t wakeupstatus = CAN_WakeUp_Failed;
 886:../Libraries/STM32F10x_StdPeriph_Driver/src/stm32f10x_can.c ****   
 887:../Libraries/STM32F10x_StdPeriph_Driver/src/stm32f10x_can.c ****   /* Check the parameters */
 888:../Libraries/STM32F10x_StdPeriph_Driver/src/stm32f10x_can.c ****   assert_param(IS_CAN_ALL_PERIPH(CANx));
 889:../Libraries/STM32F10x_StdPeriph_Driver/src/stm32f10x_can.c ****     
 890:../Libraries/STM32F10x_StdPeriph_Driver/src/stm32f10x_can.c ****   /* Wake up request */
 891:../Libraries/STM32F10x_StdPeriph_Driver/src/stm32f10x_can.c ****   CANx->MCR &= ~(uint32_t)CAN_MCR_SLEEP;
 892:../Libraries/STM32F10x_StdPeriph_Driver/src/stm32f10x_can.c ****     
 893:../Libraries/STM32F10x_StdPeriph_Driver/src/stm32f10x_can.c ****   /* Sleep mode status */
 894:../Libraries/STM32F10x_StdPeriph_Driver/src/stm32f10x_can.c ****   while(((CANx->MSR & CAN_MSR_SLAK) == CAN_MSR_SLAK)&&(wait_slak!=0x00))
 895:../Libraries/STM32F10x_StdPeriph_Driver/src/stm32f10x_can.c ****   {
 896:../Libraries/STM32F10x_StdPeriph_Driver/src/stm32f10x_can.c ****    wait_slak--;
 897:../Libraries/STM32F10x_StdPeriph_Driver/src/stm32f10x_can.c ****   }
 898:../Libraries/STM32F10x_StdPeriph_Driver/src/stm32f10x_can.c ****   if((CANx->MSR & CAN_MSR_SLAK) != CAN_MSR_SLAK)
 899:../Libraries/STM32F10x_StdPeriph_Driver/src/stm32f10x_can.c ****   {
 900:../Libraries/STM32F10x_StdPeriph_Driver/src/stm32f10x_can.c ****    /* wake up done : Sleep mode exited */
 901:../Libraries/STM32F10x_StdPeriph_Driver/src/stm32f10x_can.c ****     wakeupstatus = CAN_WakeUp_Ok;
 902:../Libraries/STM32F10x_StdPeriph_Driver/src/stm32f10x_can.c ****   }
 903:../Libraries/STM32F10x_StdPeriph_Driver/src/stm32f10x_can.c ****   /* return wakeup status */
 904:../Libraries/STM32F10x_StdPeriph_Driver/src/stm32f10x_can.c ****   return (uint8_t)wakeupstatus;
 905:../Libraries/STM32F10x_StdPeriph_Driver/src/stm32f10x_can.c **** }
 906:../Libraries/STM32F10x_StdPeriph_Driver/src/stm32f10x_can.c **** 
 907:../Libraries/STM32F10x_StdPeriph_Driver/src/stm32f10x_can.c **** 
 908:../Libraries/STM32F10x_StdPeriph_Driver/src/stm32f10x_can.c **** /**
 909:../Libraries/STM32F10x_StdPeriph_Driver/src/stm32f10x_can.c ****   * @brief  Returns the CANx's last error code (LEC).
 910:../Libraries/STM32F10x_StdPeriph_Driver/src/stm32f10x_can.c ****   * @param  CANx:          where x can be 1 or 2 to to select the CAN peripheral.  
 911:../Libraries/STM32F10x_StdPeriph_Driver/src/stm32f10x_can.c ****   * @retval CAN_ErrorCode: specifies the Error code : 
 912:../Libraries/STM32F10x_StdPeriph_Driver/src/stm32f10x_can.c ****   *                        - CAN_ERRORCODE_NoErr            No Error  
 913:../Libraries/STM32F10x_StdPeriph_Driver/src/stm32f10x_can.c ****   *                        - CAN_ERRORCODE_StuffErr         Stuff Error
 914:../Libraries/STM32F10x_StdPeriph_Driver/src/stm32f10x_can.c ****   *                        - CAN_ERRORCODE_FormErr          Form Error
 915:../Libraries/STM32F10x_StdPeriph_Driver/src/stm32f10x_can.c ****   *                        - CAN_ERRORCODE_ACKErr           Acknowledgment Error
 916:../Libraries/STM32F10x_StdPeriph_Driver/src/stm32f10x_can.c ****   *                        - CAN_ERRORCODE_BitRecessiveErr  Bit Recessive Error
 917:../Libraries/STM32F10x_StdPeriph_Driver/src/stm32f10x_can.c ****   *                        - CAN_ERRORCODE_BitDominantErr   Bit Dominant Error
 918:../Libraries/STM32F10x_StdPeriph_Driver/src/stm32f10x_can.c ****   *                        - CAN_ERRORCODE_CRCErr           CRC Error
 919:../Libraries/STM32F10x_StdPeriph_Driver/src/stm32f10x_can.c ****   *                        - CAN_ERRORCODE_SoftwareSetErr   Software Set Error  
 920:../Libraries/STM32F10x_StdPeriph_Driver/src/stm32f10x_can.c ****   */
 921:../Libraries/STM32F10x_StdPeriph_Driver/src/stm32f10x_can.c ****  
 922:../Libraries/STM32F10x_StdPeriph_Driver/src/stm32f10x_can.c **** uint8_t CAN_GetLastErrorCode(CAN_TypeDef* CANx)
 923:../Libraries/STM32F10x_StdPeriph_Driver/src/stm32f10x_can.c **** {
 924:../Libraries/STM32F10x_StdPeriph_Driver/src/stm32f10x_can.c ****   uint8_t errorcode=0;
 925:../Libraries/STM32F10x_StdPeriph_Driver/src/stm32f10x_can.c ****   
 926:../Libraries/STM32F10x_StdPeriph_Driver/src/stm32f10x_can.c ****   /* Check the parameters */
 927:../Libraries/STM32F10x_StdPeriph_Driver/src/stm32f10x_can.c ****   assert_param(IS_CAN_ALL_PERIPH(CANx));
 928:../Libraries/STM32F10x_StdPeriph_Driver/src/stm32f10x_can.c ****   
 929:../Libraries/STM32F10x_StdPeriph_Driver/src/stm32f10x_can.c ****   /* Get the error code*/
 930:../Libraries/STM32F10x_StdPeriph_Driver/src/stm32f10x_can.c ****   errorcode = (((uint8_t)CANx->ESR) & (uint8_t)CAN_ESR_LEC);
 931:../Libraries/STM32F10x_StdPeriph_Driver/src/stm32f10x_can.c ****   
 932:../Libraries/STM32F10x_StdPeriph_Driver/src/stm32f10x_can.c ****   /* Return the error code*/
 933:../Libraries/STM32F10x_StdPeriph_Driver/src/stm32f10x_can.c ****   return errorcode;
 934:../Libraries/STM32F10x_StdPeriph_Driver/src/stm32f10x_can.c **** }
 935:../Libraries/STM32F10x_StdPeriph_Driver/src/stm32f10x_can.c **** /**
 936:../Libraries/STM32F10x_StdPeriph_Driver/src/stm32f10x_can.c ****   * @brief  Returns the CANx Receive Error Counter (REC).
 937:../Libraries/STM32F10x_StdPeriph_Driver/src/stm32f10x_can.c ****   * @note   In case of an error during reception, this counter is incremented 
 938:../Libraries/STM32F10x_StdPeriph_Driver/src/stm32f10x_can.c ****   *         by 1 or by 8 depending on the error condition as defined by the CAN 
 939:../Libraries/STM32F10x_StdPeriph_Driver/src/stm32f10x_can.c ****   *         standard. After every successful reception, the counter is 
 940:../Libraries/STM32F10x_StdPeriph_Driver/src/stm32f10x_can.c ****   *         decremented by 1 or reset to 120 if its value was higher than 128. 
 941:../Libraries/STM32F10x_StdPeriph_Driver/src/stm32f10x_can.c ****   *         When the counter value exceeds 127, the CAN controller enters the 
 942:../Libraries/STM32F10x_StdPeriph_Driver/src/stm32f10x_can.c ****   *         error passive state.  
 943:../Libraries/STM32F10x_StdPeriph_Driver/src/stm32f10x_can.c ****   * @param  CANx: where x can be 1 or 2 to to select the CAN peripheral.  
 944:../Libraries/STM32F10x_StdPeriph_Driver/src/stm32f10x_can.c ****   * @retval CAN Receive Error Counter. 
 945:../Libraries/STM32F10x_StdPeriph_Driver/src/stm32f10x_can.c ****   */
 946:../Libraries/STM32F10x_StdPeriph_Driver/src/stm32f10x_can.c **** uint8_t CAN_GetReceiveErrorCounter(CAN_TypeDef* CANx)
 947:../Libraries/STM32F10x_StdPeriph_Driver/src/stm32f10x_can.c **** {
 948:../Libraries/STM32F10x_StdPeriph_Driver/src/stm32f10x_can.c ****   uint8_t counter=0;
 949:../Libraries/STM32F10x_StdPeriph_Driver/src/stm32f10x_can.c ****   
 950:../Libraries/STM32F10x_StdPeriph_Driver/src/stm32f10x_can.c ****   /* Check the parameters */
 951:../Libraries/STM32F10x_StdPeriph_Driver/src/stm32f10x_can.c ****   assert_param(IS_CAN_ALL_PERIPH(CANx));
 952:../Libraries/STM32F10x_StdPeriph_Driver/src/stm32f10x_can.c ****   
 953:../Libraries/STM32F10x_StdPeriph_Driver/src/stm32f10x_can.c ****   /* Get the Receive Error Counter*/
 954:../Libraries/STM32F10x_StdPeriph_Driver/src/stm32f10x_can.c ****   counter = (uint8_t)((CANx->ESR & CAN_ESR_REC)>> 24);
 955:../Libraries/STM32F10x_StdPeriph_Driver/src/stm32f10x_can.c ****   
 956:../Libraries/STM32F10x_StdPeriph_Driver/src/stm32f10x_can.c ****   /* Return the Receive Error Counter*/
 957:../Libraries/STM32F10x_StdPeriph_Driver/src/stm32f10x_can.c ****   return counter;
 958:../Libraries/STM32F10x_StdPeriph_Driver/src/stm32f10x_can.c **** }
 959:../Libraries/STM32F10x_StdPeriph_Driver/src/stm32f10x_can.c **** 
 960:../Libraries/STM32F10x_StdPeriph_Driver/src/stm32f10x_can.c **** 
 961:../Libraries/STM32F10x_StdPeriph_Driver/src/stm32f10x_can.c **** /**
 962:../Libraries/STM32F10x_StdPeriph_Driver/src/stm32f10x_can.c ****   * @brief  Returns the LSB of the 9-bit CANx Transmit Error Counter(TEC).
 963:../Libraries/STM32F10x_StdPeriph_Driver/src/stm32f10x_can.c ****   * @param  CANx:   where x can be 1 or 2 to to select the CAN peripheral.  
 964:../Libraries/STM32F10x_StdPeriph_Driver/src/stm32f10x_can.c ****   * @retval LSB of the 9-bit CAN Transmit Error Counter. 
 965:../Libraries/STM32F10x_StdPeriph_Driver/src/stm32f10x_can.c ****   */
 966:../Libraries/STM32F10x_StdPeriph_Driver/src/stm32f10x_can.c **** uint8_t CAN_GetLSBTransmitErrorCounter(CAN_TypeDef* CANx)
 967:../Libraries/STM32F10x_StdPeriph_Driver/src/stm32f10x_can.c **** {
 968:../Libraries/STM32F10x_StdPeriph_Driver/src/stm32f10x_can.c ****   uint8_t counter=0;
 969:../Libraries/STM32F10x_StdPeriph_Driver/src/stm32f10x_can.c ****   
 970:../Libraries/STM32F10x_StdPeriph_Driver/src/stm32f10x_can.c ****   /* Check the parameters */
 971:../Libraries/STM32F10x_StdPeriph_Driver/src/stm32f10x_can.c ****   assert_param(IS_CAN_ALL_PERIPH(CANx));
 972:../Libraries/STM32F10x_StdPeriph_Driver/src/stm32f10x_can.c ****   
 973:../Libraries/STM32F10x_StdPeriph_Driver/src/stm32f10x_can.c ****   /* Get the LSB of the 9-bit CANx Transmit Error Counter(TEC) */
 974:../Libraries/STM32F10x_StdPeriph_Driver/src/stm32f10x_can.c ****   counter = (uint8_t)((CANx->ESR & CAN_ESR_TEC)>> 16);
 975:../Libraries/STM32F10x_StdPeriph_Driver/src/stm32f10x_can.c ****   
 976:../Libraries/STM32F10x_StdPeriph_Driver/src/stm32f10x_can.c ****   /* Return the LSB of the 9-bit CANx Transmit Error Counter(TEC) */
 977:../Libraries/STM32F10x_StdPeriph_Driver/src/stm32f10x_can.c ****   return counter;
 978:../Libraries/STM32F10x_StdPeriph_Driver/src/stm32f10x_can.c **** }
 979:../Libraries/STM32F10x_StdPeriph_Driver/src/stm32f10x_can.c **** 
 980:../Libraries/STM32F10x_StdPeriph_Driver/src/stm32f10x_can.c **** 
 981:../Libraries/STM32F10x_StdPeriph_Driver/src/stm32f10x_can.c **** /**
 982:../Libraries/STM32F10x_StdPeriph_Driver/src/stm32f10x_can.c ****   * @brief  Enables or disables the specified CANx interrupts.
 983:../Libraries/STM32F10x_StdPeriph_Driver/src/stm32f10x_can.c ****   * @param  CANx:   where x can be 1 or 2 to to select the CAN peripheral.
 984:../Libraries/STM32F10x_StdPeriph_Driver/src/stm32f10x_can.c ****   * @param  CAN_IT: specifies the CAN interrupt sources to be enabled or disabled.
 985:../Libraries/STM32F10x_StdPeriph_Driver/src/stm32f10x_can.c ****   *                 This parameter can be: 
 986:../Libraries/STM32F10x_StdPeriph_Driver/src/stm32f10x_can.c ****   *                 - CAN_IT_TME, 
 987:../Libraries/STM32F10x_StdPeriph_Driver/src/stm32f10x_can.c ****   *                 - CAN_IT_FMP0, 
 988:../Libraries/STM32F10x_StdPeriph_Driver/src/stm32f10x_can.c ****   *                 - CAN_IT_FF0,
 989:../Libraries/STM32F10x_StdPeriph_Driver/src/stm32f10x_can.c ****   *                 - CAN_IT_FOV0, 
 990:../Libraries/STM32F10x_StdPeriph_Driver/src/stm32f10x_can.c ****   *                 - CAN_IT_FMP1, 
 991:../Libraries/STM32F10x_StdPeriph_Driver/src/stm32f10x_can.c ****   *                 - CAN_IT_FF1,
 992:../Libraries/STM32F10x_StdPeriph_Driver/src/stm32f10x_can.c ****   *                 - CAN_IT_FOV1, 
 993:../Libraries/STM32F10x_StdPeriph_Driver/src/stm32f10x_can.c ****   *                 - CAN_IT_EWG, 
 994:../Libraries/STM32F10x_StdPeriph_Driver/src/stm32f10x_can.c ****   *                 - CAN_IT_EPV,
 995:../Libraries/STM32F10x_StdPeriph_Driver/src/stm32f10x_can.c ****   *                 - CAN_IT_LEC, 
 996:../Libraries/STM32F10x_StdPeriph_Driver/src/stm32f10x_can.c ****   *                 - CAN_IT_ERR, 
 997:../Libraries/STM32F10x_StdPeriph_Driver/src/stm32f10x_can.c ****   *                 - CAN_IT_WKU or 
 998:../Libraries/STM32F10x_StdPeriph_Driver/src/stm32f10x_can.c ****   *                 - CAN_IT_SLK.
 999:../Libraries/STM32F10x_StdPeriph_Driver/src/stm32f10x_can.c ****   * @param  NewState: new state of the CAN interrupts.
1000:../Libraries/STM32F10x_StdPeriph_Driver/src/stm32f10x_can.c ****   *                   This parameter can be: ENABLE or DISABLE.
1001:../Libraries/STM32F10x_StdPeriph_Driver/src/stm32f10x_can.c ****   * @retval None.
1002:../Libraries/STM32F10x_StdPeriph_Driver/src/stm32f10x_can.c ****   */
1003:../Libraries/STM32F10x_StdPeriph_Driver/src/stm32f10x_can.c **** void CAN_ITConfig(CAN_TypeDef* CANx, uint32_t CAN_IT, FunctionalState NewState)
1004:../Libraries/STM32F10x_StdPeriph_Driver/src/stm32f10x_can.c **** {
1005:../Libraries/STM32F10x_StdPeriph_Driver/src/stm32f10x_can.c ****   /* Check the parameters */
1006:../Libraries/STM32F10x_StdPeriph_Driver/src/stm32f10x_can.c ****   assert_param(IS_CAN_ALL_PERIPH(CANx));
1007:../Libraries/STM32F10x_StdPeriph_Driver/src/stm32f10x_can.c ****   assert_param(IS_CAN_IT(CAN_IT));
1008:../Libraries/STM32F10x_StdPeriph_Driver/src/stm32f10x_can.c ****   assert_param(IS_FUNCTIONAL_STATE(NewState));
1009:../Libraries/STM32F10x_StdPeriph_Driver/src/stm32f10x_can.c **** 
1010:../Libraries/STM32F10x_StdPeriph_Driver/src/stm32f10x_can.c ****   if (NewState != DISABLE)
1011:../Libraries/STM32F10x_StdPeriph_Driver/src/stm32f10x_can.c ****   {
1012:../Libraries/STM32F10x_StdPeriph_Driver/src/stm32f10x_can.c ****     /* Enable the selected CANx interrupt */
1013:../Libraries/STM32F10x_StdPeriph_Driver/src/stm32f10x_can.c ****     CANx->IER |= CAN_IT;
1014:../Libraries/STM32F10x_StdPeriph_Driver/src/stm32f10x_can.c ****   }
1015:../Libraries/STM32F10x_StdPeriph_Driver/src/stm32f10x_can.c ****   else
1016:../Libraries/STM32F10x_StdPeriph_Driver/src/stm32f10x_can.c ****   {
1017:../Libraries/STM32F10x_StdPeriph_Driver/src/stm32f10x_can.c ****     /* Disable the selected CANx interrupt */
1018:../Libraries/STM32F10x_StdPeriph_Driver/src/stm32f10x_can.c ****     CANx->IER &= ~CAN_IT;
1019:../Libraries/STM32F10x_StdPeriph_Driver/src/stm32f10x_can.c ****   }
1020:../Libraries/STM32F10x_StdPeriph_Driver/src/stm32f10x_can.c **** }
1021:../Libraries/STM32F10x_StdPeriph_Driver/src/stm32f10x_can.c **** /**
1022:../Libraries/STM32F10x_StdPeriph_Driver/src/stm32f10x_can.c ****   * @brief  Checks whether the specified CAN flag is set or not.
1023:../Libraries/STM32F10x_StdPeriph_Driver/src/stm32f10x_can.c ****   * @param  CANx:     where x can be 1 or 2 to to select the CAN peripheral.
1024:../Libraries/STM32F10x_StdPeriph_Driver/src/stm32f10x_can.c ****   * @param  CAN_FLAG: specifies the flag to check.
1025:../Libraries/STM32F10x_StdPeriph_Driver/src/stm32f10x_can.c ****   *                   This parameter can be one of the following flags: 
1026:../Libraries/STM32F10x_StdPeriph_Driver/src/stm32f10x_can.c ****   *                  - CAN_FLAG_EWG
1027:../Libraries/STM32F10x_StdPeriph_Driver/src/stm32f10x_can.c ****   *                  - CAN_FLAG_EPV 
1028:../Libraries/STM32F10x_StdPeriph_Driver/src/stm32f10x_can.c ****   *                  - CAN_FLAG_BOF
1029:../Libraries/STM32F10x_StdPeriph_Driver/src/stm32f10x_can.c ****   *                  - CAN_FLAG_RQCP0
1030:../Libraries/STM32F10x_StdPeriph_Driver/src/stm32f10x_can.c ****   *                  - CAN_FLAG_RQCP1
1031:../Libraries/STM32F10x_StdPeriph_Driver/src/stm32f10x_can.c ****   *                  - CAN_FLAG_RQCP2
1032:../Libraries/STM32F10x_StdPeriph_Driver/src/stm32f10x_can.c ****   *                  - CAN_FLAG_FMP1   
1033:../Libraries/STM32F10x_StdPeriph_Driver/src/stm32f10x_can.c ****   *                  - CAN_FLAG_FF1       
1034:../Libraries/STM32F10x_StdPeriph_Driver/src/stm32f10x_can.c ****   *                  - CAN_FLAG_FOV1   
1035:../Libraries/STM32F10x_StdPeriph_Driver/src/stm32f10x_can.c ****   *                  - CAN_FLAG_FMP0   
1036:../Libraries/STM32F10x_StdPeriph_Driver/src/stm32f10x_can.c ****   *                  - CAN_FLAG_FF0       
1037:../Libraries/STM32F10x_StdPeriph_Driver/src/stm32f10x_can.c ****   *                  - CAN_FLAG_FOV0   
1038:../Libraries/STM32F10x_StdPeriph_Driver/src/stm32f10x_can.c ****   *                  - CAN_FLAG_WKU 
1039:../Libraries/STM32F10x_StdPeriph_Driver/src/stm32f10x_can.c ****   *                  - CAN_FLAG_SLAK  
1040:../Libraries/STM32F10x_StdPeriph_Driver/src/stm32f10x_can.c ****   *                  - CAN_FLAG_LEC       
1041:../Libraries/STM32F10x_StdPeriph_Driver/src/stm32f10x_can.c ****   * @retval The new state of CAN_FLAG (SET or RESET).
1042:../Libraries/STM32F10x_StdPeriph_Driver/src/stm32f10x_can.c ****   */
1043:../Libraries/STM32F10x_StdPeriph_Driver/src/stm32f10x_can.c **** FlagStatus CAN_GetFlagStatus(CAN_TypeDef* CANx, uint32_t CAN_FLAG)
1044:../Libraries/STM32F10x_StdPeriph_Driver/src/stm32f10x_can.c **** {
1045:../Libraries/STM32F10x_StdPeriph_Driver/src/stm32f10x_can.c ****   FlagStatus bitstatus = RESET;
1046:../Libraries/STM32F10x_StdPeriph_Driver/src/stm32f10x_can.c ****   
1047:../Libraries/STM32F10x_StdPeriph_Driver/src/stm32f10x_can.c ****   /* Check the parameters */
1048:../Libraries/STM32F10x_StdPeriph_Driver/src/stm32f10x_can.c ****   assert_param(IS_CAN_ALL_PERIPH(CANx));
1049:../Libraries/STM32F10x_StdPeriph_Driver/src/stm32f10x_can.c ****   assert_param(IS_CAN_GET_FLAG(CAN_FLAG));
1050:../Libraries/STM32F10x_StdPeriph_Driver/src/stm32f10x_can.c ****   
1051:../Libraries/STM32F10x_StdPeriph_Driver/src/stm32f10x_can.c **** 
1052:../Libraries/STM32F10x_StdPeriph_Driver/src/stm32f10x_can.c ****   if((CAN_FLAG & CAN_FLAGS_ESR) != (uint32_t)RESET)
1053:../Libraries/STM32F10x_StdPeriph_Driver/src/stm32f10x_can.c ****   { 
1054:../Libraries/STM32F10x_StdPeriph_Driver/src/stm32f10x_can.c ****     /* Check the status of the specified CAN flag */
1055:../Libraries/STM32F10x_StdPeriph_Driver/src/stm32f10x_can.c ****     if ((CANx->ESR & (CAN_FLAG & 0x000FFFFF)) != (uint32_t)RESET)
1056:../Libraries/STM32F10x_StdPeriph_Driver/src/stm32f10x_can.c ****     { 
1057:../Libraries/STM32F10x_StdPeriph_Driver/src/stm32f10x_can.c ****       /* CAN_FLAG is set */
1058:../Libraries/STM32F10x_StdPeriph_Driver/src/stm32f10x_can.c ****       bitstatus = SET;
1059:../Libraries/STM32F10x_StdPeriph_Driver/src/stm32f10x_can.c ****     }
1060:../Libraries/STM32F10x_StdPeriph_Driver/src/stm32f10x_can.c ****     else
1061:../Libraries/STM32F10x_StdPeriph_Driver/src/stm32f10x_can.c ****     { 
1062:../Libraries/STM32F10x_StdPeriph_Driver/src/stm32f10x_can.c ****       /* CAN_FLAG is reset */
1063:../Libraries/STM32F10x_StdPeriph_Driver/src/stm32f10x_can.c ****       bitstatus = RESET;
1064:../Libraries/STM32F10x_StdPeriph_Driver/src/stm32f10x_can.c ****     }
1065:../Libraries/STM32F10x_StdPeriph_Driver/src/stm32f10x_can.c ****   }
1066:../Libraries/STM32F10x_StdPeriph_Driver/src/stm32f10x_can.c ****   else if((CAN_FLAG & CAN_FLAGS_MSR) != (uint32_t)RESET)
1067:../Libraries/STM32F10x_StdPeriph_Driver/src/stm32f10x_can.c ****   { 
1068:../Libraries/STM32F10x_StdPeriph_Driver/src/stm32f10x_can.c ****     /* Check the status of the specified CAN flag */
1069:../Libraries/STM32F10x_StdPeriph_Driver/src/stm32f10x_can.c ****     if ((CANx->MSR & (CAN_FLAG & 0x000FFFFF)) != (uint32_t)RESET)
1070:../Libraries/STM32F10x_StdPeriph_Driver/src/stm32f10x_can.c ****     { 
1071:../Libraries/STM32F10x_StdPeriph_Driver/src/stm32f10x_can.c ****       /* CAN_FLAG is set */
1072:../Libraries/STM32F10x_StdPeriph_Driver/src/stm32f10x_can.c ****       bitstatus = SET;
1073:../Libraries/STM32F10x_StdPeriph_Driver/src/stm32f10x_can.c ****     }
1074:../Libraries/STM32F10x_StdPeriph_Driver/src/stm32f10x_can.c ****     else
1075:../Libraries/STM32F10x_StdPeriph_Driver/src/stm32f10x_can.c ****     { 
1076:../Libraries/STM32F10x_StdPeriph_Driver/src/stm32f10x_can.c ****       /* CAN_FLAG is reset */
1077:../Libraries/STM32F10x_StdPeriph_Driver/src/stm32f10x_can.c ****       bitstatus = RESET;
1078:../Libraries/STM32F10x_StdPeriph_Driver/src/stm32f10x_can.c ****     }
1079:../Libraries/STM32F10x_StdPeriph_Driver/src/stm32f10x_can.c ****   }
1080:../Libraries/STM32F10x_StdPeriph_Driver/src/stm32f10x_can.c ****   else if((CAN_FLAG & CAN_FLAGS_TSR) != (uint32_t)RESET)
1081:../Libraries/STM32F10x_StdPeriph_Driver/src/stm32f10x_can.c ****   { 
1082:../Libraries/STM32F10x_StdPeriph_Driver/src/stm32f10x_can.c ****     /* Check the status of the specified CAN flag */
1083:../Libraries/STM32F10x_StdPeriph_Driver/src/stm32f10x_can.c ****     if ((CANx->TSR & (CAN_FLAG & 0x000FFFFF)) != (uint32_t)RESET)
1084:../Libraries/STM32F10x_StdPeriph_Driver/src/stm32f10x_can.c ****     { 
1085:../Libraries/STM32F10x_StdPeriph_Driver/src/stm32f10x_can.c ****       /* CAN_FLAG is set */
1086:../Libraries/STM32F10x_StdPeriph_Driver/src/stm32f10x_can.c ****       bitstatus = SET;
1087:../Libraries/STM32F10x_StdPeriph_Driver/src/stm32f10x_can.c ****     }
1088:../Libraries/STM32F10x_StdPeriph_Driver/src/stm32f10x_can.c ****     else
1089:../Libraries/STM32F10x_StdPeriph_Driver/src/stm32f10x_can.c ****     { 
1090:../Libraries/STM32F10x_StdPeriph_Driver/src/stm32f10x_can.c ****       /* CAN_FLAG is reset */
1091:../Libraries/STM32F10x_StdPeriph_Driver/src/stm32f10x_can.c ****       bitstatus = RESET;
1092:../Libraries/STM32F10x_StdPeriph_Driver/src/stm32f10x_can.c ****     }
1093:../Libraries/STM32F10x_StdPeriph_Driver/src/stm32f10x_can.c ****   }
1094:../Libraries/STM32F10x_StdPeriph_Driver/src/stm32f10x_can.c ****   else if((CAN_FLAG & CAN_FLAGS_RF0R) != (uint32_t)RESET)
1095:../Libraries/STM32F10x_StdPeriph_Driver/src/stm32f10x_can.c ****   { 
1096:../Libraries/STM32F10x_StdPeriph_Driver/src/stm32f10x_can.c ****     /* Check the status of the specified CAN flag */
1097:../Libraries/STM32F10x_StdPeriph_Driver/src/stm32f10x_can.c ****     if ((CANx->RF0R & (CAN_FLAG & 0x000FFFFF)) != (uint32_t)RESET)
1098:../Libraries/STM32F10x_StdPeriph_Driver/src/stm32f10x_can.c ****     { 
1099:../Libraries/STM32F10x_StdPeriph_Driver/src/stm32f10x_can.c ****       /* CAN_FLAG is set */
1100:../Libraries/STM32F10x_StdPeriph_Driver/src/stm32f10x_can.c ****       bitstatus = SET;
1101:../Libraries/STM32F10x_StdPeriph_Driver/src/stm32f10x_can.c ****     }
1102:../Libraries/STM32F10x_StdPeriph_Driver/src/stm32f10x_can.c ****     else
1103:../Libraries/STM32F10x_StdPeriph_Driver/src/stm32f10x_can.c ****     { 
1104:../Libraries/STM32F10x_StdPeriph_Driver/src/stm32f10x_can.c ****       /* CAN_FLAG is reset */
1105:../Libraries/STM32F10x_StdPeriph_Driver/src/stm32f10x_can.c ****       bitstatus = RESET;
1106:../Libraries/STM32F10x_StdPeriph_Driver/src/stm32f10x_can.c ****     }
1107:../Libraries/STM32F10x_StdPeriph_Driver/src/stm32f10x_can.c ****   }
1108:../Libraries/STM32F10x_StdPeriph_Driver/src/stm32f10x_can.c ****   else /* If(CAN_FLAG & CAN_FLAGS_RF1R != (uint32_t)RESET) */
1109:../Libraries/STM32F10x_StdPeriph_Driver/src/stm32f10x_can.c ****   { 
1110:../Libraries/STM32F10x_StdPeriph_Driver/src/stm32f10x_can.c ****     /* Check the status of the specified CAN flag */
1111:../Libraries/STM32F10x_StdPeriph_Driver/src/stm32f10x_can.c ****     if ((uint32_t)(CANx->RF1R & (CAN_FLAG & 0x000FFFFF)) != (uint32_t)RESET)
1112:../Libraries/STM32F10x_StdPeriph_Driver/src/stm32f10x_can.c ****     { 
1113:../Libraries/STM32F10x_StdPeriph_Driver/src/stm32f10x_can.c ****       /* CAN_FLAG is set */
1114:../Libraries/STM32F10x_StdPeriph_Driver/src/stm32f10x_can.c ****       bitstatus = SET;
1115:../Libraries/STM32F10x_StdPeriph_Driver/src/stm32f10x_can.c ****     }
1116:../Libraries/STM32F10x_StdPeriph_Driver/src/stm32f10x_can.c ****     else
1117:../Libraries/STM32F10x_StdPeriph_Driver/src/stm32f10x_can.c ****     { 
1118:../Libraries/STM32F10x_StdPeriph_Driver/src/stm32f10x_can.c ****       /* CAN_FLAG is reset */
1119:../Libraries/STM32F10x_StdPeriph_Driver/src/stm32f10x_can.c ****       bitstatus = RESET;
1120:../Libraries/STM32F10x_StdPeriph_Driver/src/stm32f10x_can.c ****     }
1121:../Libraries/STM32F10x_StdPeriph_Driver/src/stm32f10x_can.c ****   }
1122:../Libraries/STM32F10x_StdPeriph_Driver/src/stm32f10x_can.c ****   /* Return the CAN_FLAG status */
1123:../Libraries/STM32F10x_StdPeriph_Driver/src/stm32f10x_can.c ****   return  bitstatus;
1124:../Libraries/STM32F10x_StdPeriph_Driver/src/stm32f10x_can.c **** }
1125:../Libraries/STM32F10x_StdPeriph_Driver/src/stm32f10x_can.c **** 
1126:../Libraries/STM32F10x_StdPeriph_Driver/src/stm32f10x_can.c **** /**
1127:../Libraries/STM32F10x_StdPeriph_Driver/src/stm32f10x_can.c ****   * @brief  Clears the CAN's pending flags.
1128:../Libraries/STM32F10x_StdPeriph_Driver/src/stm32f10x_can.c ****   * @param  CANx:     where x can be 1 or 2 to to select the CAN peripheral.
1129:../Libraries/STM32F10x_StdPeriph_Driver/src/stm32f10x_can.c ****   * @param  CAN_FLAG: specifies the flag to clear.
1130:../Libraries/STM32F10x_StdPeriph_Driver/src/stm32f10x_can.c ****   *                   This parameter can be one of the following flags: 
1131:../Libraries/STM32F10x_StdPeriph_Driver/src/stm32f10x_can.c ****   *                    - CAN_FLAG_RQCP0
1132:../Libraries/STM32F10x_StdPeriph_Driver/src/stm32f10x_can.c ****   *                    - CAN_FLAG_RQCP1
1133:../Libraries/STM32F10x_StdPeriph_Driver/src/stm32f10x_can.c ****   *                    - CAN_FLAG_RQCP2
1134:../Libraries/STM32F10x_StdPeriph_Driver/src/stm32f10x_can.c ****   *                    - CAN_FLAG_FF1       
1135:../Libraries/STM32F10x_StdPeriph_Driver/src/stm32f10x_can.c ****   *                    - CAN_FLAG_FOV1   
1136:../Libraries/STM32F10x_StdPeriph_Driver/src/stm32f10x_can.c ****   *                    - CAN_FLAG_FF0       
1137:../Libraries/STM32F10x_StdPeriph_Driver/src/stm32f10x_can.c ****   *                    - CAN_FLAG_FOV0   
1138:../Libraries/STM32F10x_StdPeriph_Driver/src/stm32f10x_can.c ****   *                    - CAN_FLAG_WKU   
1139:../Libraries/STM32F10x_StdPeriph_Driver/src/stm32f10x_can.c ****   *                    - CAN_FLAG_SLAK    
1140:../Libraries/STM32F10x_StdPeriph_Driver/src/stm32f10x_can.c ****   *                    - CAN_FLAG_LEC       
1141:../Libraries/STM32F10x_StdPeriph_Driver/src/stm32f10x_can.c ****   * @retval None.
1142:../Libraries/STM32F10x_StdPeriph_Driver/src/stm32f10x_can.c ****   */
1143:../Libraries/STM32F10x_StdPeriph_Driver/src/stm32f10x_can.c **** void CAN_ClearFlag(CAN_TypeDef* CANx, uint32_t CAN_FLAG)
1144:../Libraries/STM32F10x_StdPeriph_Driver/src/stm32f10x_can.c **** {
1145:../Libraries/STM32F10x_StdPeriph_Driver/src/stm32f10x_can.c ****   uint32_t flagtmp=0;
1146:../Libraries/STM32F10x_StdPeriph_Driver/src/stm32f10x_can.c ****   /* Check the parameters */
1147:../Libraries/STM32F10x_StdPeriph_Driver/src/stm32f10x_can.c ****   assert_param(IS_CAN_ALL_PERIPH(CANx));
1148:../Libraries/STM32F10x_StdPeriph_Driver/src/stm32f10x_can.c ****   assert_param(IS_CAN_CLEAR_FLAG(CAN_FLAG));
1149:../Libraries/STM32F10x_StdPeriph_Driver/src/stm32f10x_can.c ****   
1150:../Libraries/STM32F10x_StdPeriph_Driver/src/stm32f10x_can.c ****   if (CAN_FLAG == CAN_FLAG_LEC) /* ESR register */
1151:../Libraries/STM32F10x_StdPeriph_Driver/src/stm32f10x_can.c ****   {
1152:../Libraries/STM32F10x_StdPeriph_Driver/src/stm32f10x_can.c ****     /* Clear the selected CAN flags */
1153:../Libraries/STM32F10x_StdPeriph_Driver/src/stm32f10x_can.c ****     CANx->ESR = (uint32_t)RESET;
1154:../Libraries/STM32F10x_StdPeriph_Driver/src/stm32f10x_can.c ****   }
1155:../Libraries/STM32F10x_StdPeriph_Driver/src/stm32f10x_can.c ****   else /* MSR or TSR or RF0R or RF1R */
1156:../Libraries/STM32F10x_StdPeriph_Driver/src/stm32f10x_can.c ****   {
1157:../Libraries/STM32F10x_StdPeriph_Driver/src/stm32f10x_can.c ****     flagtmp = CAN_FLAG & 0x000FFFFF;
1158:../Libraries/STM32F10x_StdPeriph_Driver/src/stm32f10x_can.c **** 
1159:../Libraries/STM32F10x_StdPeriph_Driver/src/stm32f10x_can.c ****     if ((CAN_FLAG & CAN_FLAGS_RF0R)!=(uint32_t)RESET)
1160:../Libraries/STM32F10x_StdPeriph_Driver/src/stm32f10x_can.c ****     {
1161:../Libraries/STM32F10x_StdPeriph_Driver/src/stm32f10x_can.c ****       /* Receive Flags */
1162:../Libraries/STM32F10x_StdPeriph_Driver/src/stm32f10x_can.c ****       CANx->RF0R = (uint32_t)(flagtmp);
1163:../Libraries/STM32F10x_StdPeriph_Driver/src/stm32f10x_can.c ****     }
1164:../Libraries/STM32F10x_StdPeriph_Driver/src/stm32f10x_can.c ****     else if ((CAN_FLAG & CAN_FLAGS_RF1R)!=(uint32_t)RESET)
1165:../Libraries/STM32F10x_StdPeriph_Driver/src/stm32f10x_can.c ****     {
1166:../Libraries/STM32F10x_StdPeriph_Driver/src/stm32f10x_can.c ****       /* Receive Flags */
1167:../Libraries/STM32F10x_StdPeriph_Driver/src/stm32f10x_can.c ****       CANx->RF1R = (uint32_t)(flagtmp);
1168:../Libraries/STM32F10x_StdPeriph_Driver/src/stm32f10x_can.c ****     }
1169:../Libraries/STM32F10x_StdPeriph_Driver/src/stm32f10x_can.c ****     else if ((CAN_FLAG & CAN_FLAGS_TSR)!=(uint32_t)RESET)
1170:../Libraries/STM32F10x_StdPeriph_Driver/src/stm32f10x_can.c ****     {
1171:../Libraries/STM32F10x_StdPeriph_Driver/src/stm32f10x_can.c ****       /* Transmit Flags */
1172:../Libraries/STM32F10x_StdPeriph_Driver/src/stm32f10x_can.c ****       CANx->TSR = (uint32_t)(flagtmp);
1173:../Libraries/STM32F10x_StdPeriph_Driver/src/stm32f10x_can.c ****     }
1174:../Libraries/STM32F10x_StdPeriph_Driver/src/stm32f10x_can.c ****     else /* If((CAN_FLAG & CAN_FLAGS_MSR)!=(uint32_t)RESET) */
1175:../Libraries/STM32F10x_StdPeriph_Driver/src/stm32f10x_can.c ****     {
1176:../Libraries/STM32F10x_StdPeriph_Driver/src/stm32f10x_can.c ****       /* Operating mode Flags */
1177:../Libraries/STM32F10x_StdPeriph_Driver/src/stm32f10x_can.c ****       CANx->MSR = (uint32_t)(flagtmp);
1178:../Libraries/STM32F10x_StdPeriph_Driver/src/stm32f10x_can.c ****     }
1179:../Libraries/STM32F10x_StdPeriph_Driver/src/stm32f10x_can.c ****   }
1180:../Libraries/STM32F10x_StdPeriph_Driver/src/stm32f10x_can.c **** }
1181:../Libraries/STM32F10x_StdPeriph_Driver/src/stm32f10x_can.c **** 
1182:../Libraries/STM32F10x_StdPeriph_Driver/src/stm32f10x_can.c **** /**
1183:../Libraries/STM32F10x_StdPeriph_Driver/src/stm32f10x_can.c ****   * @brief  Checks whether the specified CANx interrupt has occurred or not.
1184:../Libraries/STM32F10x_StdPeriph_Driver/src/stm32f10x_can.c ****   * @param  CANx:    where x can be 1 or 2 to to select the CAN peripheral.
1185:../Libraries/STM32F10x_StdPeriph_Driver/src/stm32f10x_can.c ****   * @param  CAN_IT:  specifies the CAN interrupt source to check.
1186:../Libraries/STM32F10x_StdPeriph_Driver/src/stm32f10x_can.c ****   *                  This parameter can be one of the following flags: 
1187:../Libraries/STM32F10x_StdPeriph_Driver/src/stm32f10x_can.c ****   *                 -  CAN_IT_TME               
1188:../Libraries/STM32F10x_StdPeriph_Driver/src/stm32f10x_can.c ****   *                 -  CAN_IT_FMP0              
1189:../Libraries/STM32F10x_StdPeriph_Driver/src/stm32f10x_can.c ****   *                 -  CAN_IT_FF0               
1190:../Libraries/STM32F10x_StdPeriph_Driver/src/stm32f10x_can.c ****   *                 -  CAN_IT_FOV0              
1191:../Libraries/STM32F10x_StdPeriph_Driver/src/stm32f10x_can.c ****   *                 -  CAN_IT_FMP1              
1192:../Libraries/STM32F10x_StdPeriph_Driver/src/stm32f10x_can.c ****   *                 -  CAN_IT_FF1               
1193:../Libraries/STM32F10x_StdPeriph_Driver/src/stm32f10x_can.c ****   *                 -  CAN_IT_FOV1              
1194:../Libraries/STM32F10x_StdPeriph_Driver/src/stm32f10x_can.c ****   *                 -  CAN_IT_WKU  
1195:../Libraries/STM32F10x_StdPeriph_Driver/src/stm32f10x_can.c ****   *                 -  CAN_IT_SLK  
1196:../Libraries/STM32F10x_StdPeriph_Driver/src/stm32f10x_can.c ****   *                 -  CAN_IT_EWG    
1197:../Libraries/STM32F10x_StdPeriph_Driver/src/stm32f10x_can.c ****   *                 -  CAN_IT_EPV    
1198:../Libraries/STM32F10x_StdPeriph_Driver/src/stm32f10x_can.c ****   *                 -  CAN_IT_BOF    
1199:../Libraries/STM32F10x_StdPeriph_Driver/src/stm32f10x_can.c ****   *                 -  CAN_IT_LEC    
1200:../Libraries/STM32F10x_StdPeriph_Driver/src/stm32f10x_can.c ****   *                 -  CAN_IT_ERR 
1201:../Libraries/STM32F10x_StdPeriph_Driver/src/stm32f10x_can.c ****   * @retval The current state of CAN_IT (SET or RESET).
1202:../Libraries/STM32F10x_StdPeriph_Driver/src/stm32f10x_can.c ****   */
1203:../Libraries/STM32F10x_StdPeriph_Driver/src/stm32f10x_can.c **** ITStatus CAN_GetITStatus(CAN_TypeDef* CANx, uint32_t CAN_IT)
1204:../Libraries/STM32F10x_StdPeriph_Driver/src/stm32f10x_can.c **** {
1205:../Libraries/STM32F10x_StdPeriph_Driver/src/stm32f10x_can.c ****   ITStatus itstatus = RESET;
1206:../Libraries/STM32F10x_StdPeriph_Driver/src/stm32f10x_can.c ****   /* Check the parameters */
1207:../Libraries/STM32F10x_StdPeriph_Driver/src/stm32f10x_can.c ****   assert_param(IS_CAN_ALL_PERIPH(CANx));
1208:../Libraries/STM32F10x_StdPeriph_Driver/src/stm32f10x_can.c ****   assert_param(IS_CAN_IT(CAN_IT));
1209:../Libraries/STM32F10x_StdPeriph_Driver/src/stm32f10x_can.c ****   
1210:../Libraries/STM32F10x_StdPeriph_Driver/src/stm32f10x_can.c ****   /* check the enable interrupt bit */
1211:../Libraries/STM32F10x_StdPeriph_Driver/src/stm32f10x_can.c ****  if((CANx->IER & CAN_IT) != RESET)
1212:../Libraries/STM32F10x_StdPeriph_Driver/src/stm32f10x_can.c ****  {
1213:../Libraries/STM32F10x_StdPeriph_Driver/src/stm32f10x_can.c ****    /* in case the Interrupt is enabled, .... */
1214:../Libraries/STM32F10x_StdPeriph_Driver/src/stm32f10x_can.c ****     switch (CAN_IT)
1215:../Libraries/STM32F10x_StdPeriph_Driver/src/stm32f10x_can.c ****     {
1216:../Libraries/STM32F10x_StdPeriph_Driver/src/stm32f10x_can.c ****       case CAN_IT_TME:
1217:../Libraries/STM32F10x_StdPeriph_Driver/src/stm32f10x_can.c ****                /* Check CAN_TSR_RQCPx bits */
1218:../Libraries/STM32F10x_StdPeriph_Driver/src/stm32f10x_can.c **** 	             itstatus = CheckITStatus(CANx->TSR, CAN_TSR_RQCP0|CAN_TSR_RQCP1|CAN_TSR_RQCP2);  
1219:../Libraries/STM32F10x_StdPeriph_Driver/src/stm32f10x_can.c **** 	      break;
1220:../Libraries/STM32F10x_StdPeriph_Driver/src/stm32f10x_can.c ****       case CAN_IT_FMP0:
1221:../Libraries/STM32F10x_StdPeriph_Driver/src/stm32f10x_can.c ****                /* Check CAN_RF0R_FMP0 bit */
1222:../Libraries/STM32F10x_StdPeriph_Driver/src/stm32f10x_can.c **** 	             itstatus = CheckITStatus(CANx->RF0R, CAN_RF0R_FMP0);  
1223:../Libraries/STM32F10x_StdPeriph_Driver/src/stm32f10x_can.c **** 	      break;
1224:../Libraries/STM32F10x_StdPeriph_Driver/src/stm32f10x_can.c ****       case CAN_IT_FF0:
1225:../Libraries/STM32F10x_StdPeriph_Driver/src/stm32f10x_can.c ****                /* Check CAN_RF0R_FULL0 bit */
1226:../Libraries/STM32F10x_StdPeriph_Driver/src/stm32f10x_can.c ****                itstatus = CheckITStatus(CANx->RF0R, CAN_RF0R_FULL0);  
1227:../Libraries/STM32F10x_StdPeriph_Driver/src/stm32f10x_can.c **** 	      break;
1228:../Libraries/STM32F10x_StdPeriph_Driver/src/stm32f10x_can.c ****       case CAN_IT_FOV0:
1229:../Libraries/STM32F10x_StdPeriph_Driver/src/stm32f10x_can.c ****                /* Check CAN_RF0R_FOVR0 bit */
1230:../Libraries/STM32F10x_StdPeriph_Driver/src/stm32f10x_can.c ****                itstatus = CheckITStatus(CANx->RF0R, CAN_RF0R_FOVR0);  
1231:../Libraries/STM32F10x_StdPeriph_Driver/src/stm32f10x_can.c **** 	      break;
1232:../Libraries/STM32F10x_StdPeriph_Driver/src/stm32f10x_can.c ****       case CAN_IT_FMP1:
1233:../Libraries/STM32F10x_StdPeriph_Driver/src/stm32f10x_can.c ****                /* Check CAN_RF1R_FMP1 bit */
1234:../Libraries/STM32F10x_StdPeriph_Driver/src/stm32f10x_can.c ****                itstatus = CheckITStatus(CANx->RF1R, CAN_RF1R_FMP1);  
1235:../Libraries/STM32F10x_StdPeriph_Driver/src/stm32f10x_can.c **** 	      break;
1236:../Libraries/STM32F10x_StdPeriph_Driver/src/stm32f10x_can.c ****       case CAN_IT_FF1:
1237:../Libraries/STM32F10x_StdPeriph_Driver/src/stm32f10x_can.c ****                /* Check CAN_RF1R_FULL1 bit */
1238:../Libraries/STM32F10x_StdPeriph_Driver/src/stm32f10x_can.c **** 	             itstatus = CheckITStatus(CANx->RF1R, CAN_RF1R_FULL1);  
1239:../Libraries/STM32F10x_StdPeriph_Driver/src/stm32f10x_can.c **** 	      break;
1240:../Libraries/STM32F10x_StdPeriph_Driver/src/stm32f10x_can.c ****       case CAN_IT_FOV1:
1241:../Libraries/STM32F10x_StdPeriph_Driver/src/stm32f10x_can.c ****                /* Check CAN_RF1R_FOVR1 bit */
1242:../Libraries/STM32F10x_StdPeriph_Driver/src/stm32f10x_can.c **** 	             itstatus = CheckITStatus(CANx->RF1R, CAN_RF1R_FOVR1);  
1243:../Libraries/STM32F10x_StdPeriph_Driver/src/stm32f10x_can.c **** 	      break;
1244:../Libraries/STM32F10x_StdPeriph_Driver/src/stm32f10x_can.c ****       case CAN_IT_WKU:
1245:../Libraries/STM32F10x_StdPeriph_Driver/src/stm32f10x_can.c ****                /* Check CAN_MSR_WKUI bit */
1246:../Libraries/STM32F10x_StdPeriph_Driver/src/stm32f10x_can.c ****                itstatus = CheckITStatus(CANx->MSR, CAN_MSR_WKUI);  
1247:../Libraries/STM32F10x_StdPeriph_Driver/src/stm32f10x_can.c **** 	      break;
1248:../Libraries/STM32F10x_StdPeriph_Driver/src/stm32f10x_can.c ****       case CAN_IT_SLK:
1249:../Libraries/STM32F10x_StdPeriph_Driver/src/stm32f10x_can.c ****                /* Check CAN_MSR_SLAKI bit */
1250:../Libraries/STM32F10x_StdPeriph_Driver/src/stm32f10x_can.c **** 	             itstatus = CheckITStatus(CANx->MSR, CAN_MSR_SLAKI);  
1251:../Libraries/STM32F10x_StdPeriph_Driver/src/stm32f10x_can.c **** 	      break;
1252:../Libraries/STM32F10x_StdPeriph_Driver/src/stm32f10x_can.c ****       case CAN_IT_EWG:
1253:../Libraries/STM32F10x_StdPeriph_Driver/src/stm32f10x_can.c ****                /* Check CAN_ESR_EWGF bit */
1254:../Libraries/STM32F10x_StdPeriph_Driver/src/stm32f10x_can.c **** 	             itstatus = CheckITStatus(CANx->ESR, CAN_ESR_EWGF);  
1255:../Libraries/STM32F10x_StdPeriph_Driver/src/stm32f10x_can.c **** 	      break;
1256:../Libraries/STM32F10x_StdPeriph_Driver/src/stm32f10x_can.c ****       case CAN_IT_EPV:
1257:../Libraries/STM32F10x_StdPeriph_Driver/src/stm32f10x_can.c ****                /* Check CAN_ESR_EPVF bit */
1258:../Libraries/STM32F10x_StdPeriph_Driver/src/stm32f10x_can.c **** 	             itstatus = CheckITStatus(CANx->ESR, CAN_ESR_EPVF);  
1259:../Libraries/STM32F10x_StdPeriph_Driver/src/stm32f10x_can.c **** 	      break;
1260:../Libraries/STM32F10x_StdPeriph_Driver/src/stm32f10x_can.c ****       case CAN_IT_BOF:
1261:../Libraries/STM32F10x_StdPeriph_Driver/src/stm32f10x_can.c ****                /* Check CAN_ESR_BOFF bit */
1262:../Libraries/STM32F10x_StdPeriph_Driver/src/stm32f10x_can.c **** 	             itstatus = CheckITStatus(CANx->ESR, CAN_ESR_BOFF);  
1263:../Libraries/STM32F10x_StdPeriph_Driver/src/stm32f10x_can.c **** 	      break;
1264:../Libraries/STM32F10x_StdPeriph_Driver/src/stm32f10x_can.c ****       case CAN_IT_LEC:
1265:../Libraries/STM32F10x_StdPeriph_Driver/src/stm32f10x_can.c ****                /* Check CAN_ESR_LEC bit */
1266:../Libraries/STM32F10x_StdPeriph_Driver/src/stm32f10x_can.c **** 	             itstatus = CheckITStatus(CANx->ESR, CAN_ESR_LEC);  
1267:../Libraries/STM32F10x_StdPeriph_Driver/src/stm32f10x_can.c **** 	      break;
1268:../Libraries/STM32F10x_StdPeriph_Driver/src/stm32f10x_can.c ****       case CAN_IT_ERR:
1269:../Libraries/STM32F10x_StdPeriph_Driver/src/stm32f10x_can.c ****                /* Check CAN_MSR_ERRI bit */ 
1270:../Libraries/STM32F10x_StdPeriph_Driver/src/stm32f10x_can.c ****                itstatus = CheckITStatus(CANx->MSR, CAN_MSR_ERRI); 
1271:../Libraries/STM32F10x_StdPeriph_Driver/src/stm32f10x_can.c **** 	      break;
1272:../Libraries/STM32F10x_StdPeriph_Driver/src/stm32f10x_can.c ****       default :
1273:../Libraries/STM32F10x_StdPeriph_Driver/src/stm32f10x_can.c ****                /* in case of error, return RESET */
1274:../Libraries/STM32F10x_StdPeriph_Driver/src/stm32f10x_can.c ****               itstatus = RESET;
1275:../Libraries/STM32F10x_StdPeriph_Driver/src/stm32f10x_can.c ****               break;
1276:../Libraries/STM32F10x_StdPeriph_Driver/src/stm32f10x_can.c ****     }
1277:../Libraries/STM32F10x_StdPeriph_Driver/src/stm32f10x_can.c ****   }
1278:../Libraries/STM32F10x_StdPeriph_Driver/src/stm32f10x_can.c ****   else
1279:../Libraries/STM32F10x_StdPeriph_Driver/src/stm32f10x_can.c ****   {
1280:../Libraries/STM32F10x_StdPeriph_Driver/src/stm32f10x_can.c ****    /* in case the Interrupt is not enabled, return RESET */
1281:../Libraries/STM32F10x_StdPeriph_Driver/src/stm32f10x_can.c ****     itstatus  = RESET;
1282:../Libraries/STM32F10x_StdPeriph_Driver/src/stm32f10x_can.c ****   }
1283:../Libraries/STM32F10x_StdPeriph_Driver/src/stm32f10x_can.c ****   
1284:../Libraries/STM32F10x_StdPeriph_Driver/src/stm32f10x_can.c ****   /* Return the CAN_IT status */
1285:../Libraries/STM32F10x_StdPeriph_Driver/src/stm32f10x_can.c ****   return  itstatus;
1286:../Libraries/STM32F10x_StdPeriph_Driver/src/stm32f10x_can.c **** }
1287:../Libraries/STM32F10x_StdPeriph_Driver/src/stm32f10x_can.c **** 
1288:../Libraries/STM32F10x_StdPeriph_Driver/src/stm32f10x_can.c **** /**
1289:../Libraries/STM32F10x_StdPeriph_Driver/src/stm32f10x_can.c ****   * @brief  Clears the CANx's interrupt pending bits.
1290:../Libraries/STM32F10x_StdPeriph_Driver/src/stm32f10x_can.c ****   * @param  CANx:    where x can be 1 or 2 to to select the CAN peripheral.
1291:../Libraries/STM32F10x_StdPeriph_Driver/src/stm32f10x_can.c ****   * @param  CAN_IT: specifies the interrupt pending bit to clear.
1292:../Libraries/STM32F10x_StdPeriph_Driver/src/stm32f10x_can.c ****   *                  -  CAN_IT_TME                     
1293:../Libraries/STM32F10x_StdPeriph_Driver/src/stm32f10x_can.c ****   *                  -  CAN_IT_FF0               
1294:../Libraries/STM32F10x_StdPeriph_Driver/src/stm32f10x_can.c ****   *                  -  CAN_IT_FOV0                     
1295:../Libraries/STM32F10x_StdPeriph_Driver/src/stm32f10x_can.c ****   *                  -  CAN_IT_FF1               
1296:../Libraries/STM32F10x_StdPeriph_Driver/src/stm32f10x_can.c ****   *                  -  CAN_IT_FOV1              
1297:../Libraries/STM32F10x_StdPeriph_Driver/src/stm32f10x_can.c ****   *                  -  CAN_IT_WKU  
1298:../Libraries/STM32F10x_StdPeriph_Driver/src/stm32f10x_can.c ****   *                  -  CAN_IT_SLK  
1299:../Libraries/STM32F10x_StdPeriph_Driver/src/stm32f10x_can.c ****   *                  -  CAN_IT_EWG    
1300:../Libraries/STM32F10x_StdPeriph_Driver/src/stm32f10x_can.c ****   *                  -  CAN_IT_EPV    
1301:../Libraries/STM32F10x_StdPeriph_Driver/src/stm32f10x_can.c ****   *                  -  CAN_IT_BOF    
1302:../Libraries/STM32F10x_StdPeriph_Driver/src/stm32f10x_can.c ****   *                  -  CAN_IT_LEC    
1303:../Libraries/STM32F10x_StdPeriph_Driver/src/stm32f10x_can.c ****   *                  -  CAN_IT_ERR 
1304:../Libraries/STM32F10x_StdPeriph_Driver/src/stm32f10x_can.c ****   * @retval None.
1305:../Libraries/STM32F10x_StdPeriph_Driver/src/stm32f10x_can.c ****   */
1306:../Libraries/STM32F10x_StdPeriph_Driver/src/stm32f10x_can.c **** void CAN_ClearITPendingBit(CAN_TypeDef* CANx, uint32_t CAN_IT)
1307:../Libraries/STM32F10x_StdPeriph_Driver/src/stm32f10x_can.c **** {
1308:../Libraries/STM32F10x_StdPeriph_Driver/src/stm32f10x_can.c ****   /* Check the parameters */
1309:../Libraries/STM32F10x_StdPeriph_Driver/src/stm32f10x_can.c ****   assert_param(IS_CAN_ALL_PERIPH(CANx));
1310:../Libraries/STM32F10x_StdPeriph_Driver/src/stm32f10x_can.c ****   assert_param(IS_CAN_CLEAR_IT(CAN_IT));
1311:../Libraries/STM32F10x_StdPeriph_Driver/src/stm32f10x_can.c **** 
1312:../Libraries/STM32F10x_StdPeriph_Driver/src/stm32f10x_can.c ****   switch (CAN_IT)
1313:../Libraries/STM32F10x_StdPeriph_Driver/src/stm32f10x_can.c ****   {
1314:../Libraries/STM32F10x_StdPeriph_Driver/src/stm32f10x_can.c ****       case CAN_IT_TME:
1315:../Libraries/STM32F10x_StdPeriph_Driver/src/stm32f10x_can.c ****               /* Clear CAN_TSR_RQCPx (rc_w1)*/
1316:../Libraries/STM32F10x_StdPeriph_Driver/src/stm32f10x_can.c **** 	      CANx->TSR = CAN_TSR_RQCP0|CAN_TSR_RQCP1|CAN_TSR_RQCP2;  
1317:../Libraries/STM32F10x_StdPeriph_Driver/src/stm32f10x_can.c **** 	      break;
1318:../Libraries/STM32F10x_StdPeriph_Driver/src/stm32f10x_can.c ****       case CAN_IT_FF0:
1319:../Libraries/STM32F10x_StdPeriph_Driver/src/stm32f10x_can.c ****               /* Clear CAN_RF0R_FULL0 (rc_w1)*/
1320:../Libraries/STM32F10x_StdPeriph_Driver/src/stm32f10x_can.c **** 	      CANx->RF0R = CAN_RF0R_FULL0; 
1321:../Libraries/STM32F10x_StdPeriph_Driver/src/stm32f10x_can.c **** 	      break;
1322:../Libraries/STM32F10x_StdPeriph_Driver/src/stm32f10x_can.c ****       case CAN_IT_FOV0:
1323:../Libraries/STM32F10x_StdPeriph_Driver/src/stm32f10x_can.c ****               /* Clear CAN_RF0R_FOVR0 (rc_w1)*/
1324:../Libraries/STM32F10x_StdPeriph_Driver/src/stm32f10x_can.c **** 	      CANx->RF0R = CAN_RF0R_FOVR0; 
1325:../Libraries/STM32F10x_StdPeriph_Driver/src/stm32f10x_can.c **** 	      break;
1326:../Libraries/STM32F10x_StdPeriph_Driver/src/stm32f10x_can.c ****       case CAN_IT_FF1:
1327:../Libraries/STM32F10x_StdPeriph_Driver/src/stm32f10x_can.c ****               /* Clear CAN_RF1R_FULL1 (rc_w1)*/
1328:../Libraries/STM32F10x_StdPeriph_Driver/src/stm32f10x_can.c **** 	      CANx->RF1R = CAN_RF1R_FULL1;  
1329:../Libraries/STM32F10x_StdPeriph_Driver/src/stm32f10x_can.c **** 	      break;
1330:../Libraries/STM32F10x_StdPeriph_Driver/src/stm32f10x_can.c ****       case CAN_IT_FOV1:
1331:../Libraries/STM32F10x_StdPeriph_Driver/src/stm32f10x_can.c ****               /* Clear CAN_RF1R_FOVR1 (rc_w1)*/
1332:../Libraries/STM32F10x_StdPeriph_Driver/src/stm32f10x_can.c **** 	      CANx->RF1R = CAN_RF1R_FOVR1; 
1333:../Libraries/STM32F10x_StdPeriph_Driver/src/stm32f10x_can.c **** 	      break;
1334:../Libraries/STM32F10x_StdPeriph_Driver/src/stm32f10x_can.c ****       case CAN_IT_WKU:
1335:../Libraries/STM32F10x_StdPeriph_Driver/src/stm32f10x_can.c ****               /* Clear CAN_MSR_WKUI (rc_w1)*/
1336:../Libraries/STM32F10x_StdPeriph_Driver/src/stm32f10x_can.c **** 	      CANx->MSR = CAN_MSR_WKUI;  
1337:../Libraries/STM32F10x_StdPeriph_Driver/src/stm32f10x_can.c **** 	      break;
1338:../Libraries/STM32F10x_StdPeriph_Driver/src/stm32f10x_can.c ****       case CAN_IT_SLK:
1339:../Libraries/STM32F10x_StdPeriph_Driver/src/stm32f10x_can.c ****               /* Clear CAN_MSR_SLAKI (rc_w1)*/ 
1340:../Libraries/STM32F10x_StdPeriph_Driver/src/stm32f10x_can.c **** 	      CANx->MSR = CAN_MSR_SLAKI;   
1341:../Libraries/STM32F10x_StdPeriph_Driver/src/stm32f10x_can.c **** 	      break;
1342:../Libraries/STM32F10x_StdPeriph_Driver/src/stm32f10x_can.c ****       case CAN_IT_EWG:
1343:../Libraries/STM32F10x_StdPeriph_Driver/src/stm32f10x_can.c ****               /* Clear CAN_MSR_ERRI (rc_w1) */
1344:../Libraries/STM32F10x_StdPeriph_Driver/src/stm32f10x_can.c **** 	      CANx->MSR = CAN_MSR_ERRI;
1345:../Libraries/STM32F10x_StdPeriph_Driver/src/stm32f10x_can.c ****               /* Note : the corresponding Flag is cleared by hardware depending 
1346:../Libraries/STM32F10x_StdPeriph_Driver/src/stm32f10x_can.c ****                         of the CAN Bus status*/ 
1347:../Libraries/STM32F10x_StdPeriph_Driver/src/stm32f10x_can.c **** 	      break;
1348:../Libraries/STM32F10x_StdPeriph_Driver/src/stm32f10x_can.c ****       case CAN_IT_EPV:
1349:../Libraries/STM32F10x_StdPeriph_Driver/src/stm32f10x_can.c ****               /* Clear CAN_MSR_ERRI (rc_w1) */
1350:../Libraries/STM32F10x_StdPeriph_Driver/src/stm32f10x_can.c **** 	      CANx->MSR = CAN_MSR_ERRI; 
1351:../Libraries/STM32F10x_StdPeriph_Driver/src/stm32f10x_can.c ****               /* Note : the corresponding Flag is cleared by hardware depending 
1352:../Libraries/STM32F10x_StdPeriph_Driver/src/stm32f10x_can.c ****                         of the CAN Bus status*/
1353:../Libraries/STM32F10x_StdPeriph_Driver/src/stm32f10x_can.c **** 	      break;
1354:../Libraries/STM32F10x_StdPeriph_Driver/src/stm32f10x_can.c ****       case CAN_IT_BOF:
1355:../Libraries/STM32F10x_StdPeriph_Driver/src/stm32f10x_can.c ****               /* Clear CAN_MSR_ERRI (rc_w1) */ 
1356:../Libraries/STM32F10x_StdPeriph_Driver/src/stm32f10x_can.c **** 	      CANx->MSR = CAN_MSR_ERRI; 
1357:../Libraries/STM32F10x_StdPeriph_Driver/src/stm32f10x_can.c ****               /* Note : the corresponding Flag is cleared by hardware depending 
1358:../Libraries/STM32F10x_StdPeriph_Driver/src/stm32f10x_can.c ****                         of the CAN Bus status*/
1359:../Libraries/STM32F10x_StdPeriph_Driver/src/stm32f10x_can.c **** 	      break;
1360:../Libraries/STM32F10x_StdPeriph_Driver/src/stm32f10x_can.c ****       case CAN_IT_LEC:
1361:../Libraries/STM32F10x_StdPeriph_Driver/src/stm32f10x_can.c ****               /*  Clear LEC bits */
1362:../Libraries/STM32F10x_StdPeriph_Driver/src/stm32f10x_can.c **** 	      CANx->ESR = RESET; 
1363:../Libraries/STM32F10x_StdPeriph_Driver/src/stm32f10x_can.c ****               /* Clear CAN_MSR_ERRI (rc_w1) */
1364:../Libraries/STM32F10x_StdPeriph_Driver/src/stm32f10x_can.c **** 	      CANx->MSR = CAN_MSR_ERRI; 
1365:../Libraries/STM32F10x_StdPeriph_Driver/src/stm32f10x_can.c **** 	      break;
1366:../Libraries/STM32F10x_StdPeriph_Driver/src/stm32f10x_can.c ****       case CAN_IT_ERR:
1367:../Libraries/STM32F10x_StdPeriph_Driver/src/stm32f10x_can.c ****               /*Clear LEC bits */
1368:../Libraries/STM32F10x_StdPeriph_Driver/src/stm32f10x_can.c **** 	      CANx->ESR = RESET; 
1369:../Libraries/STM32F10x_StdPeriph_Driver/src/stm32f10x_can.c ****               /* Clear CAN_MSR_ERRI (rc_w1) */
1370:../Libraries/STM32F10x_StdPeriph_Driver/src/stm32f10x_can.c **** 	      CANx->MSR = CAN_MSR_ERRI; 
1371:../Libraries/STM32F10x_StdPeriph_Driver/src/stm32f10x_can.c **** 	      /* Note : BOFF, EPVF and EWGF Flags are cleared by hardware depending 
1372:../Libraries/STM32F10x_StdPeriph_Driver/src/stm32f10x_can.c ****                   of the CAN Bus status*/
1373:../Libraries/STM32F10x_StdPeriph_Driver/src/stm32f10x_can.c **** 	      break;
1374:../Libraries/STM32F10x_StdPeriph_Driver/src/stm32f10x_can.c ****       default :
1375:../Libraries/STM32F10x_StdPeriph_Driver/src/stm32f10x_can.c **** 	      break;
1376:../Libraries/STM32F10x_StdPeriph_Driver/src/stm32f10x_can.c ****    }
1377:../Libraries/STM32F10x_StdPeriph_Driver/src/stm32f10x_can.c **** }
1378:../Libraries/STM32F10x_StdPeriph_Driver/src/stm32f10x_can.c **** 
1379:../Libraries/STM32F10x_StdPeriph_Driver/src/stm32f10x_can.c **** /**
1380:../Libraries/STM32F10x_StdPeriph_Driver/src/stm32f10x_can.c ****   * @brief  Checks whether the CAN interrupt has occurred or not.
1381:../Libraries/STM32F10x_StdPeriph_Driver/src/stm32f10x_can.c ****   * @param  CAN_Reg: specifies the CAN interrupt register to check.
1382:../Libraries/STM32F10x_StdPeriph_Driver/src/stm32f10x_can.c ****   * @param  It_Bit:  specifies the interrupt source bit to check.
1383:../Libraries/STM32F10x_StdPeriph_Driver/src/stm32f10x_can.c ****   * @retval The new state of the CAN Interrupt (SET or RESET).
1384:../Libraries/STM32F10x_StdPeriph_Driver/src/stm32f10x_can.c ****   */
1385:../Libraries/STM32F10x_StdPeriph_Driver/src/stm32f10x_can.c **** static ITStatus CheckITStatus(uint32_t CAN_Reg, uint32_t It_Bit)
1386:../Libraries/STM32F10x_StdPeriph_Driver/src/stm32f10x_can.c **** {
 18888              		.loc 1 1386 0
 18889              		.cfi_startproc
 18890              		@ args = 0, pretend = 0, frame = 0
 18891              		@ frame_needed = 0, uses_anonymous_args = 0
 18892              		@ link register save eliminated.
 18893              	.LVL0:
1387:../Libraries/STM32F10x_StdPeriph_Driver/src/stm32f10x_can.c ****   ITStatus pendingbitstatus = RESET;
1388:../Libraries/STM32F10x_StdPeriph_Driver/src/stm32f10x_can.c ****   
1389:../Libraries/STM32F10x_StdPeriph_Driver/src/stm32f10x_can.c ****   if ((CAN_Reg & It_Bit) != (uint32_t)RESET)
1390:../Libraries/STM32F10x_StdPeriph_Driver/src/stm32f10x_can.c ****   {
1391:../Libraries/STM32F10x_StdPeriph_Driver/src/stm32f10x_can.c ****     /* CAN_IT is set */
1392:../Libraries/STM32F10x_StdPeriph_Driver/src/stm32f10x_can.c ****     pendingbitstatus = SET;
 18894              		.loc 1 1392 0
 18895 0000 0142     		tst	r1, r0
1393:../Libraries/STM32F10x_StdPeriph_Driver/src/stm32f10x_can.c ****   }
1394:../Libraries/STM32F10x_StdPeriph_Driver/src/stm32f10x_can.c ****   else
1395:../Libraries/STM32F10x_StdPeriph_Driver/src/stm32f10x_can.c ****   {
1396:../Libraries/STM32F10x_StdPeriph_Driver/src/stm32f10x_can.c ****     /* CAN_IT is reset */
1397:../Libraries/STM32F10x_StdPeriph_Driver/src/stm32f10x_can.c ****     pendingbitstatus = RESET;
1398:../Libraries/STM32F10x_StdPeriph_Driver/src/stm32f10x_can.c ****   }
1399:../Libraries/STM32F10x_StdPeriph_Driver/src/stm32f10x_can.c ****   return pendingbitstatus;
1400:../Libraries/STM32F10x_StdPeriph_Driver/src/stm32f10x_can.c **** }
 18896              		.loc 1 1400 0
 18897 0002 0CBF     		ite	eq
 18898 0004 0020     		moveq	r0, #0
 18899 0006 0120     		movne	r0, #1
 18900              	.LVL1:
 18901 0008 7047     		bx	lr
 18902              		.cfi_endproc
 18903              	.LFE53:
 18905              		.section	.text.CAN_DeInit,"ax",%progbits
 18906              		.align	1
 18907              		.global	CAN_DeInit
 18908              		.thumb
 18909              		.thumb_func
 18911              	CAN_DeInit:
 18912              	.LFB29:
 123:../Libraries/STM32F10x_StdPeriph_Driver/src/stm32f10x_can.c **** {
 18913              		.loc 1 123 0
 18914              		.cfi_startproc
 18915              		@ args = 0, pretend = 0, frame = 0
 18916              		@ frame_needed = 0, uses_anonymous_args = 0
 18917              	.LVL2:
 127:../Libraries/STM32F10x_StdPeriph_Driver/src/stm32f10x_can.c ****   if (CANx == CAN1)
 18918              		.loc 1 127 0
 18919 0000 0B4B     		ldr	r3, .L5
 123:../Libraries/STM32F10x_StdPeriph_Driver/src/stm32f10x_can.c **** {
 18920              		.loc 1 123 0
 18921 0002 10B5     		push	{r4, lr}
 18922              	.LCFI0:
 18923              		.cfi_def_cfa_offset 8
 127:../Libraries/STM32F10x_StdPeriph_Driver/src/stm32f10x_can.c ****   if (CANx == CAN1)
 18924              		.loc 1 127 0
 18925 0004 9842     		cmp	r0, r3
 18926 0006 07D1     		bne	.L3
 18927              		.cfi_offset 14, -4
 18928              		.cfi_offset 4, -8
 130:../Libraries/STM32F10x_StdPeriph_Driver/src/stm32f10x_can.c ****     RCC_APB1PeriphResetCmd(RCC_APB1Periph_CAN1, ENABLE);
 18929              		.loc 1 130 0
 18930 0008 4FF00070 		mov	r0, #33554432
 18931              	.LVL3:
 18932 000c 0121     		movs	r1, #1
 18933 000e FFF7FEFF 		bl	RCC_APB1PeriphResetCmd
 132:../Libraries/STM32F10x_StdPeriph_Driver/src/stm32f10x_can.c ****     RCC_APB1PeriphResetCmd(RCC_APB1Periph_CAN1, DISABLE);
 18934              		.loc 1 132 0
 18935 0012 4FF00070 		mov	r0, #33554432
 18936 0016 06E0     		b	.L4
 18937              	.LVL4:
 18938              	.L3:
 137:../Libraries/STM32F10x_StdPeriph_Driver/src/stm32f10x_can.c ****     RCC_APB1PeriphResetCmd(RCC_APB1Periph_CAN2, ENABLE);
 18939              		.loc 1 137 0
 18940 0018 4FF08060 		mov	r0, #67108864
 18941              	.LVL5:
 18942 001c 0121     		movs	r1, #1
 18943 001e FFF7FEFF 		bl	RCC_APB1PeriphResetCmd
 139:../Libraries/STM32F10x_StdPeriph_Driver/src/stm32f10x_can.c ****     RCC_APB1PeriphResetCmd(RCC_APB1Periph_CAN2, DISABLE);
 18944              		.loc 1 139 0
 18945 0022 4FF08060 		mov	r0, #67108864
 18946              	.L4:
 18947 0026 0021     		movs	r1, #0
 141:../Libraries/STM32F10x_StdPeriph_Driver/src/stm32f10x_can.c **** }
 18948              		.loc 1 141 0
 18949 0028 BDE81040 		pop	{r4, lr}
 139:../Libraries/STM32F10x_StdPeriph_Driver/src/stm32f10x_can.c ****     RCC_APB1PeriphResetCmd(RCC_APB1Periph_CAN2, DISABLE);
 18950              		.loc 1 139 0
 18951 002c FFF7FEBF 		b	RCC_APB1PeriphResetCmd
 18952              	.L6:
 18953              		.align	2
 18954              	.L5:
 18955 0030 00640040 		.word	1073767424
 18956              		.cfi_endproc
 18957              	.LFE29:
 18959              		.section	.text.CAN_Init,"ax",%progbits
 18960              		.align	1
 18961              		.global	CAN_Init
 18962              		.thumb
 18963              		.thumb_func
 18965              	CAN_Init:
 18966              	.LFB30:
 155:../Libraries/STM32F10x_StdPeriph_Driver/src/stm32f10x_can.c **** {
 18967              		.loc 1 155 0
 18968              		.cfi_startproc
 18969              		@ args = 0, pretend = 0, frame = 0
 18970              		@ frame_needed = 0, uses_anonymous_args = 0
 18971              		@ link register save eliminated.
 18972              	.LVL6:
 173:../Libraries/STM32F10x_StdPeriph_Driver/src/stm32f10x_can.c ****   CANx->MCR &= (~(uint32_t)CAN_MCR_SLEEP);
 18973              		.loc 1 173 0
 18974 0000 0368     		ldr	r3, [r0, #0]
 18975 0002 23F00203 		bic	r3, r3, #2
 18976 0006 0360     		str	r3, [r0, #0]
 176:../Libraries/STM32F10x_StdPeriph_Driver/src/stm32f10x_can.c ****   CANx->MCR |= CAN_MCR_INRQ ;
 18977              		.loc 1 176 0
 18978 0008 0368     		ldr	r3, [r0, #0]
 18979 000a 43F00103 		orr	r3, r3, #1
 18980 000e 0360     		str	r3, [r0, #0]
 157:../Libraries/STM32F10x_StdPeriph_Driver/src/stm32f10x_can.c ****   uint32_t wait_ack = 0x00000000;
 18981              		.loc 1 157 0
 18982 0010 0023     		movs	r3, #0
 179:../Libraries/STM32F10x_StdPeriph_Driver/src/stm32f10x_can.c ****   while (((CANx->MSR & CAN_MSR_INAK) != CAN_MSR_INAK) && (wait_ack != INAK_TIMEOUT))
 18983              		.loc 1 179 0
 18984 0012 00E0     		b	.L8
 18985              	.LVL7:
 18986              	.L10:
 181:../Libraries/STM32F10x_StdPeriph_Driver/src/stm32f10x_can.c ****     wait_ack++;
 18987              		.loc 1 181 0
 18988 0014 0133     		adds	r3, r3, #1
 18989              	.LVL8:
 18990              	.L8:
 179:../Libraries/STM32F10x_StdPeriph_Driver/src/stm32f10x_can.c ****   while (((CANx->MSR & CAN_MSR_INAK) != CAN_MSR_INAK) && (wait_ack != INAK_TIMEOUT))
 18991              		.loc 1 179 0 discriminator 1
 18992 0016 4268     		ldr	r2, [r0, #4]
 18993 0018 12F0010F 		tst	r2, #1
 18994 001c 03D1     		bne	.L9
 179:../Libraries/STM32F10x_StdPeriph_Driver/src/stm32f10x_can.c ****   while (((CANx->MSR & CAN_MSR_INAK) != CAN_MSR_INAK) && (wait_ack != INAK_TIMEOUT))
 18995              		.loc 1 179 0 is_stmt 0 discriminator 2
 18996 001e 4FF6FF72 		movw	r2, #65535
 18997 0022 9342     		cmp	r3, r2
 18998 0024 F6D1     		bne	.L10
 18999              	.L9:
 185:../Libraries/STM32F10x_StdPeriph_Driver/src/stm32f10x_can.c ****   if ((CANx->MSR & CAN_MSR_INAK) != CAN_MSR_INAK)
 19000              		.loc 1 185 0 is_stmt 1
 19001 0026 4368     		ldr	r3, [r0, #4]
 19002              	.LVL9:
 19003 0028 13F00103 		ands	r3, r3, #1
 19004 002c 59D0     		beq	.L27
 192:../Libraries/STM32F10x_StdPeriph_Driver/src/stm32f10x_can.c ****     if (CAN_InitStruct->CAN_TTCM == ENABLE)
 19005              		.loc 1 192 0
 19006 002e 8B79     		ldrb	r3, [r1, #6]	@ zero_extendqisi2
 19007 0030 012B     		cmp	r3, #1
 194:../Libraries/STM32F10x_StdPeriph_Driver/src/stm32f10x_can.c ****       CANx->MCR |= CAN_MCR_TTCM;
 19008              		.loc 1 194 0
 19009 0032 0368     		ldr	r3, [r0, #0]
 19010 0034 0CBF     		ite	eq
 19011 0036 43F08003 		orreq	r3, r3, #128
 198:../Libraries/STM32F10x_StdPeriph_Driver/src/stm32f10x_can.c ****       CANx->MCR &= ~(uint32_t)CAN_MCR_TTCM;
 19012              		.loc 1 198 0
 19013 003a 23F08003 		bicne	r3, r3, #128
 19014 003e 0360     		str	r3, [r0, #0]
 202:../Libraries/STM32F10x_StdPeriph_Driver/src/stm32f10x_can.c ****     if (CAN_InitStruct->CAN_ABOM == ENABLE)
 19015              		.loc 1 202 0
 19016 0040 CB79     		ldrb	r3, [r1, #7]	@ zero_extendqisi2
 19017 0042 012B     		cmp	r3, #1
 204:../Libraries/STM32F10x_StdPeriph_Driver/src/stm32f10x_can.c ****       CANx->MCR |= CAN_MCR_ABOM;
 19018              		.loc 1 204 0
 19019 0044 0368     		ldr	r3, [r0, #0]
 19020 0046 0CBF     		ite	eq
 19021 0048 43F04003 		orreq	r3, r3, #64
 208:../Libraries/STM32F10x_StdPeriph_Driver/src/stm32f10x_can.c ****       CANx->MCR &= ~(uint32_t)CAN_MCR_ABOM;
 19022              		.loc 1 208 0
 19023 004c 23F04003 		bicne	r3, r3, #64
 19024 0050 0360     		str	r3, [r0, #0]
 212:../Libraries/STM32F10x_StdPeriph_Driver/src/stm32f10x_can.c ****     if (CAN_InitStruct->CAN_AWUM == ENABLE)
 19025              		.loc 1 212 0
 19026 0052 0B7A     		ldrb	r3, [r1, #8]	@ zero_extendqisi2
 19027 0054 012B     		cmp	r3, #1
 214:../Libraries/STM32F10x_StdPeriph_Driver/src/stm32f10x_can.c ****       CANx->MCR |= CAN_MCR_AWUM;
 19028              		.loc 1 214 0
 19029 0056 0368     		ldr	r3, [r0, #0]
 19030 0058 0CBF     		ite	eq
 19031 005a 43F02003 		orreq	r3, r3, #32
 218:../Libraries/STM32F10x_StdPeriph_Driver/src/stm32f10x_can.c ****       CANx->MCR &= ~(uint32_t)CAN_MCR_AWUM;
 19032              		.loc 1 218 0
 19033 005e 23F02003 		bicne	r3, r3, #32
 19034 0062 0360     		str	r3, [r0, #0]
 222:../Libraries/STM32F10x_StdPeriph_Driver/src/stm32f10x_can.c ****     if (CAN_InitStruct->CAN_NART == ENABLE)
 19035              		.loc 1 222 0
 19036 0064 4B7A     		ldrb	r3, [r1, #9]	@ zero_extendqisi2
 19037 0066 012B     		cmp	r3, #1
 224:../Libraries/STM32F10x_StdPeriph_Driver/src/stm32f10x_can.c ****       CANx->MCR |= CAN_MCR_NART;
 19038              		.loc 1 224 0
 19039 0068 0368     		ldr	r3, [r0, #0]
 19040 006a 0CBF     		ite	eq
 19041 006c 43F01003 		orreq	r3, r3, #16
 228:../Libraries/STM32F10x_StdPeriph_Driver/src/stm32f10x_can.c ****       CANx->MCR &= ~(uint32_t)CAN_MCR_NART;
 19042              		.loc 1 228 0
 19043 0070 23F01003 		bicne	r3, r3, #16
 19044 0074 0360     		str	r3, [r0, #0]
 232:../Libraries/STM32F10x_StdPeriph_Driver/src/stm32f10x_can.c ****     if (CAN_InitStruct->CAN_RFLM == ENABLE)
 19045              		.loc 1 232 0
 19046 0076 8B7A     		ldrb	r3, [r1, #10]	@ zero_extendqisi2
 19047 0078 012B     		cmp	r3, #1
 234:../Libraries/STM32F10x_StdPeriph_Driver/src/stm32f10x_can.c ****       CANx->MCR |= CAN_MCR_RFLM;
 19048              		.loc 1 234 0
 19049 007a 0368     		ldr	r3, [r0, #0]
 19050 007c 0CBF     		ite	eq
 19051 007e 43F00803 		orreq	r3, r3, #8
 238:../Libraries/STM32F10x_StdPeriph_Driver/src/stm32f10x_can.c ****       CANx->MCR &= ~(uint32_t)CAN_MCR_RFLM;
 19052              		.loc 1 238 0
 19053 0082 23F00803 		bicne	r3, r3, #8
 19054 0086 0360     		str	r3, [r0, #0]
 242:../Libraries/STM32F10x_StdPeriph_Driver/src/stm32f10x_can.c ****     if (CAN_InitStruct->CAN_TXFP == ENABLE)
 19055              		.loc 1 242 0
 19056 0088 CB7A     		ldrb	r3, [r1, #11]	@ zero_extendqisi2
 19057 008a 012B     		cmp	r3, #1
 244:../Libraries/STM32F10x_StdPeriph_Driver/src/stm32f10x_can.c ****       CANx->MCR |= CAN_MCR_TXFP;
 19058              		.loc 1 244 0
 19059 008c 0368     		ldr	r3, [r0, #0]
 19060 008e 0CBF     		ite	eq
 19061 0090 43F00403 		orreq	r3, r3, #4
 248:../Libraries/STM32F10x_StdPeriph_Driver/src/stm32f10x_can.c ****       CANx->MCR &= ~(uint32_t)CAN_MCR_TXFP;
 19062              		.loc 1 248 0
 19063 0094 23F00403 		bicne	r3, r3, #4
 19064 0098 0360     		str	r3, [r0, #0]
 252:../Libraries/STM32F10x_StdPeriph_Driver/src/stm32f10x_can.c ****     CANx->BTR = (uint32_t)((uint32_t)CAN_InitStruct->CAN_Mode << 30) | \
 19065              		.loc 1 252 0
 19066 009a 8B78     		ldrb	r3, [r1, #2]	@ zero_extendqisi2
 253:../Libraries/STM32F10x_StdPeriph_Driver/src/stm32f10x_can.c ****                 ((uint32_t)CAN_InitStruct->CAN_SJW << 24) | \
 19067              		.loc 1 253 0
 19068 009c CA78     		ldrb	r2, [r1, #3]	@ zero_extendqisi2
 252:../Libraries/STM32F10x_StdPeriph_Driver/src/stm32f10x_can.c ****     CANx->BTR = (uint32_t)((uint32_t)CAN_InitStruct->CAN_Mode << 30) | \
 19069              		.loc 1 252 0
 19070 009e 9B07     		lsls	r3, r3, #30
 19071 00a0 43EA0263 		orr	r3, r3, r2, lsl #24
 254:../Libraries/STM32F10x_StdPeriph_Driver/src/stm32f10x_can.c ****                 ((uint32_t)CAN_InitStruct->CAN_BS1 << 16) | \
 19072              		.loc 1 254 0
 19073 00a4 0A79     		ldrb	r2, [r1, #4]	@ zero_extendqisi2
 253:../Libraries/STM32F10x_StdPeriph_Driver/src/stm32f10x_can.c ****                 ((uint32_t)CAN_InitStruct->CAN_SJW << 24) | \
 19074              		.loc 1 253 0
 19075 00a6 43EA0243 		orr	r3, r3, r2, lsl #16
 255:../Libraries/STM32F10x_StdPeriph_Driver/src/stm32f10x_can.c ****                 ((uint32_t)CAN_InitStruct->CAN_BS2 << 20) | \
 19076              		.loc 1 255 0
 19077 00aa 4A79     		ldrb	r2, [r1, #5]	@ zero_extendqisi2
 254:../Libraries/STM32F10x_StdPeriph_Driver/src/stm32f10x_can.c ****                 ((uint32_t)CAN_InitStruct->CAN_BS1 << 16) | \
 19078              		.loc 1 254 0
 19079 00ac 43EA0253 		orr	r3, r3, r2, lsl #20
 256:../Libraries/STM32F10x_StdPeriph_Driver/src/stm32f10x_can.c ****                ((uint32_t)CAN_InitStruct->CAN_Prescaler - 1);
 19080              		.loc 1 256 0
 19081 00b0 0A88     		ldrh	r2, [r1, #0]
 19082 00b2 013A     		subs	r2, r2, #1
 255:../Libraries/STM32F10x_StdPeriph_Driver/src/stm32f10x_can.c ****                 ((uint32_t)CAN_InitStruct->CAN_BS2 << 20) | \
 19083              		.loc 1 255 0
 19084 00b4 1343     		orrs	r3, r3, r2
 252:../Libraries/STM32F10x_StdPeriph_Driver/src/stm32f10x_can.c ****     CANx->BTR = (uint32_t)((uint32_t)CAN_InitStruct->CAN_Mode << 30) | \
 19085              		.loc 1 252 0
 19086 00b6 C361     		str	r3, [r0, #28]
 259:../Libraries/STM32F10x_StdPeriph_Driver/src/stm32f10x_can.c ****     CANx->MCR &= ~(uint32_t)CAN_MCR_INRQ;
 19087              		.loc 1 259 0
 19088 00b8 0368     		ldr	r3, [r0, #0]
 19089 00ba 23F00103 		bic	r3, r3, #1
 19090 00be 0360     		str	r3, [r0, #0]
 19091              	.LVL10:
 262:../Libraries/STM32F10x_StdPeriph_Driver/src/stm32f10x_can.c ****    wait_ack = 0;
 19092              		.loc 1 262 0
 19093 00c0 0023     		movs	r3, #0
 264:../Libraries/STM32F10x_StdPeriph_Driver/src/stm32f10x_can.c ****    while (((CANx->MSR & CAN_MSR_INAK) == CAN_MSR_INAK) && (wait_ack != INAK_TIMEOUT))
 19094              		.loc 1 264 0
 19095 00c2 00E0     		b	.L24
 19096              	.LVL11:
 19097              	.L26:
 266:../Libraries/STM32F10x_StdPeriph_Driver/src/stm32f10x_can.c ****      wait_ack++;
 19098              		.loc 1 266 0
 19099 00c4 0133     		adds	r3, r3, #1
 19100              	.LVL12:
 19101              	.L24:
 264:../Libraries/STM32F10x_StdPeriph_Driver/src/stm32f10x_can.c ****    while (((CANx->MSR & CAN_MSR_INAK) == CAN_MSR_INAK) && (wait_ack != INAK_TIMEOUT))
 19102              		.loc 1 264 0 discriminator 1
 19103 00c6 4268     		ldr	r2, [r0, #4]
 19104 00c8 12F0010F 		tst	r2, #1
 19105 00cc 03D0     		beq	.L25
 264:../Libraries/STM32F10x_StdPeriph_Driver/src/stm32f10x_can.c ****    while (((CANx->MSR & CAN_MSR_INAK) == CAN_MSR_INAK) && (wait_ack != INAK_TIMEOUT))
 19106              		.loc 1 264 0 is_stmt 0 discriminator 2
 19107 00ce 4FF6FF72 		movw	r2, #65535
 19108 00d2 9342     		cmp	r3, r2
 19109 00d4 F6D1     		bne	.L26
 19110              	.L25:
 270:../Libraries/STM32F10x_StdPeriph_Driver/src/stm32f10x_can.c ****     if ((CANx->MSR & CAN_MSR_INAK) == CAN_MSR_INAK)
 19111              		.loc 1 270 0 is_stmt 1
 19112 00d6 4068     		ldr	r0, [r0, #4]
 19113              	.LVL13:
 19114 00d8 00F00100 		and	r0, r0, #1
 187:../Libraries/STM32F10x_StdPeriph_Driver/src/stm32f10x_can.c ****     InitStatus = CAN_InitStatus_Failed;
 19115              		.loc 1 187 0
 19116 00dc 80F00100 		eor	r0, r0, #1
 19117 00e0 7047     		bx	lr
 19118              	.LVL14:
 19119              	.L27:
 19120 00e2 1846     		mov	r0, r3
 19121              	.LVL15:
 282:../Libraries/STM32F10x_StdPeriph_Driver/src/stm32f10x_can.c **** }
 19122              		.loc 1 282 0
 19123 00e4 7047     		bx	lr
 19124              		.cfi_endproc
 19125              	.LFE30:
 19127              		.section	.text.CAN_FilterInit,"ax",%progbits
 19128              		.align	1
 19129              		.global	CAN_FilterInit
 19130              		.thumb
 19131              		.thumb_func
 19133              	CAN_FilterInit:
 19134              	.LFB31:
 293:../Libraries/STM32F10x_StdPeriph_Driver/src/stm32f10x_can.c **** {
 19135              		.loc 1 293 0
 19136              		.cfi_startproc
 19137              		@ args = 0, pretend = 0, frame = 0
 19138              		@ frame_needed = 0, uses_anonymous_args = 0
 19139              	.LVL16:
 302:../Libraries/STM32F10x_StdPeriph_Driver/src/stm32f10x_can.c ****   filter_number_bit_pos = ((uint32_t)1) << CAN_FilterInitStruct->CAN_FilterNumber;
 19140              		.loc 1 302 0
 19141 0000 837A     		ldrb	r3, [r0, #10]	@ zero_extendqisi2
 19142 0002 0122     		movs	r2, #1
 19143 0004 9A40     		lsls	r2, r2, r3
 19144              	.LVL17:
 305:../Libraries/STM32F10x_StdPeriph_Driver/src/stm32f10x_can.c ****   CAN1->FMR |= FMR_FINIT;
 19145              		.loc 1 305 0
 19146 0006 384B     		ldr	r3, .L44
 293:../Libraries/STM32F10x_StdPeriph_Driver/src/stm32f10x_can.c **** {
 19147              		.loc 1 293 0
 19148 0008 70B5     		push	{r4, r5, r6, lr}
 19149              	.LCFI1:
 19150              		.cfi_def_cfa_offset 16
 305:../Libraries/STM32F10x_StdPeriph_Driver/src/stm32f10x_can.c ****   CAN1->FMR |= FMR_FINIT;
 19151              		.loc 1 305 0
 19152 000a D3F80012 		ldr	r1, [r3, #512]
 19153 000e 41F00101 		orr	r1, r1, #1
 19154 0012 C3F80012 		str	r1, [r3, #512]
 308:../Libraries/STM32F10x_StdPeriph_Driver/src/stm32f10x_can.c ****   CAN1->FA1R &= ~(uint32_t)filter_number_bit_pos;
 19155              		.loc 1 308 0
 19156 0016 D3F81C42 		ldr	r4, [r3, #540]
 19157              		.cfi_offset 14, -4
 19158              		.cfi_offset 6, -8
 19159              		.cfi_offset 5, -12
 19160              		.cfi_offset 4, -16
 19161 001a D143     		mvns	r1, r2
 19162 001c 01EA0404 		and	r4, r1, r4
 19163 0020 C3F81C42 		str	r4, [r3, #540]
 311:../Libraries/STM32F10x_StdPeriph_Driver/src/stm32f10x_can.c ****   if (CAN_FilterInitStruct->CAN_FilterScale == CAN_FilterScale_16bit)
 19164              		.loc 1 311 0
 19165 0024 047B     		ldrb	r4, [r0, #12]	@ zero_extendqisi2
 19166 0026 B4B9     		cbnz	r4, .L35
 314:../Libraries/STM32F10x_StdPeriph_Driver/src/stm32f10x_can.c ****     CAN1->FS1R &= ~(uint32_t)filter_number_bit_pos;
 19167              		.loc 1 314 0
 19168 0028 D3F80C42 		ldr	r4, [r3, #524]
 319:../Libraries/STM32F10x_StdPeriph_Driver/src/stm32f10x_can.c ****     ((0x0000FFFF & (uint32_t)CAN_FilterInitStruct->CAN_FilterMaskIdLow) << 16) |
 19169              		.loc 1 319 0
 19170 002c C688     		ldrh	r6, [r0, #6]
 314:../Libraries/STM32F10x_StdPeriph_Driver/src/stm32f10x_can.c ****     CAN1->FS1R &= ~(uint32_t)filter_number_bit_pos;
 19171              		.loc 1 314 0
 19172 002e 01EA0404 		and	r4, r1, r4
 19173 0032 C3F80C42 		str	r4, [r3, #524]
 318:../Libraries/STM32F10x_StdPeriph_Driver/src/stm32f10x_can.c ****     CAN1->sFilterRegister[CAN_FilterInitStruct->CAN_FilterNumber].FR1 = 
 19174              		.loc 1 318 0
 19175 0036 847A     		ldrb	r4, [r0, #10]	@ zero_extendqisi2
 320:../Libraries/STM32F10x_StdPeriph_Driver/src/stm32f10x_can.c ****         (0x0000FFFF & (uint32_t)CAN_FilterInitStruct->CAN_FilterIdLow);
 19176              		.loc 1 320 0
 19177 0038 4588     		ldrh	r5, [r0, #2]
 318:../Libraries/STM32F10x_StdPeriph_Driver/src/stm32f10x_can.c ****     CAN1->sFilterRegister[CAN_FilterInitStruct->CAN_FilterNumber].FR1 = 
 19178              		.loc 1 318 0
 19179 003a 4834     		adds	r4, r4, #72
 319:../Libraries/STM32F10x_StdPeriph_Driver/src/stm32f10x_can.c ****     ((0x0000FFFF & (uint32_t)CAN_FilterInitStruct->CAN_FilterMaskIdLow) << 16) |
 19180              		.loc 1 319 0
 19181 003c 45EA0645 		orr	r5, r5, r6, lsl #16
 318:../Libraries/STM32F10x_StdPeriph_Driver/src/stm32f10x_can.c ****     CAN1->sFilterRegister[CAN_FilterInitStruct->CAN_FilterNumber].FR1 = 
 19182              		.loc 1 318 0
 19183 0040 43F83450 		str	r5, [r3, r4, lsl #3]
 326:../Libraries/STM32F10x_StdPeriph_Driver/src/stm32f10x_can.c ****         (0x0000FFFF & (uint32_t)CAN_FilterInitStruct->CAN_FilterIdHigh);
 19184              		.loc 1 326 0
 19185 0044 0388     		ldrh	r3, [r0, #0]
 325:../Libraries/STM32F10x_StdPeriph_Driver/src/stm32f10x_can.c ****     ((0x0000FFFF & (uint32_t)CAN_FilterInitStruct->CAN_FilterMaskIdHigh) << 16) |
 19186              		.loc 1 325 0
 19187 0046 8488     		ldrh	r4, [r0, #4]
 324:../Libraries/STM32F10x_StdPeriph_Driver/src/stm32f10x_can.c ****     CAN1->sFilterRegister[CAN_FilterInitStruct->CAN_FilterNumber].FR2 = 
 19188              		.loc 1 324 0
 19189 0048 857A     		ldrb	r5, [r0, #10]	@ zero_extendqisi2
 325:../Libraries/STM32F10x_StdPeriph_Driver/src/stm32f10x_can.c ****     ((0x0000FFFF & (uint32_t)CAN_FilterInitStruct->CAN_FilterMaskIdHigh) << 16) |
 19190              		.loc 1 325 0
 19191 004a 43EA0444 		orr	r4, r3, r4, lsl #16
 324:../Libraries/STM32F10x_StdPeriph_Driver/src/stm32f10x_can.c ****     CAN1->sFilterRegister[CAN_FilterInitStruct->CAN_FilterNumber].FR2 = 
 19192              		.loc 1 324 0
 19193 004e 274B     		ldr	r3, .L44+4
 19194 0050 ED00     		lsls	r5, r5, #3
 19195 0052 EB18     		adds	r3, r5, r3
 19196 0054 5C60     		str	r4, [r3, #4]
 19197              	.L35:
 329:../Libraries/STM32F10x_StdPeriph_Driver/src/stm32f10x_can.c ****   if (CAN_FilterInitStruct->CAN_FilterScale == CAN_FilterScale_32bit)
 19198              		.loc 1 329 0
 19199 0056 037B     		ldrb	r3, [r0, #12]	@ zero_extendqisi2
 19200 0058 012B     		cmp	r3, #1
 19201 005a 17D1     		bne	.L36
 332:../Libraries/STM32F10x_StdPeriph_Driver/src/stm32f10x_can.c ****     CAN1->FS1R |= filter_number_bit_pos;
 19202              		.loc 1 332 0
 19203 005c 224B     		ldr	r3, .L44
 335:../Libraries/STM32F10x_StdPeriph_Driver/src/stm32f10x_can.c ****     ((0x0000FFFF & (uint32_t)CAN_FilterInitStruct->CAN_FilterIdHigh) << 16) |
 19204              		.loc 1 335 0
 19205 005e 0688     		ldrh	r6, [r0, #0]
 332:../Libraries/STM32F10x_StdPeriph_Driver/src/stm32f10x_can.c ****     CAN1->FS1R |= filter_number_bit_pos;
 19206              		.loc 1 332 0
 19207 0060 D3F80C42 		ldr	r4, [r3, #524]
 336:../Libraries/STM32F10x_StdPeriph_Driver/src/stm32f10x_can.c ****         (0x0000FFFF & (uint32_t)CAN_FilterInitStruct->CAN_FilterIdLow);
 19208              		.loc 1 336 0
 19209 0064 4588     		ldrh	r5, [r0, #2]
 332:../Libraries/STM32F10x_StdPeriph_Driver/src/stm32f10x_can.c ****     CAN1->FS1R |= filter_number_bit_pos;
 19210              		.loc 1 332 0
 19211 0066 42EA0404 		orr	r4, r2, r4
 19212 006a C3F80C42 		str	r4, [r3, #524]
 334:../Libraries/STM32F10x_StdPeriph_Driver/src/stm32f10x_can.c ****     CAN1->sFilterRegister[CAN_FilterInitStruct->CAN_FilterNumber].FR1 = 
 19213              		.loc 1 334 0
 19214 006e 847A     		ldrb	r4, [r0, #10]	@ zero_extendqisi2
 335:../Libraries/STM32F10x_StdPeriph_Driver/src/stm32f10x_can.c ****     ((0x0000FFFF & (uint32_t)CAN_FilterInitStruct->CAN_FilterIdHigh) << 16) |
 19215              		.loc 1 335 0
 19216 0070 45EA0645 		orr	r5, r5, r6, lsl #16
 334:../Libraries/STM32F10x_StdPeriph_Driver/src/stm32f10x_can.c ****     CAN1->sFilterRegister[CAN_FilterInitStruct->CAN_FilterNumber].FR1 = 
 19217              		.loc 1 334 0
 19218 0074 4834     		adds	r4, r4, #72
 19219 0076 43F83450 		str	r5, [r3, r4, lsl #3]
 340:../Libraries/STM32F10x_StdPeriph_Driver/src/stm32f10x_can.c ****         (0x0000FFFF & (uint32_t)CAN_FilterInitStruct->CAN_FilterMaskIdLow);
 19220              		.loc 1 340 0
 19221 007a C388     		ldrh	r3, [r0, #6]
 339:../Libraries/STM32F10x_StdPeriph_Driver/src/stm32f10x_can.c ****     ((0x0000FFFF & (uint32_t)CAN_FilterInitStruct->CAN_FilterMaskIdHigh) << 16) |
 19222              		.loc 1 339 0
 19223 007c 8488     		ldrh	r4, [r0, #4]
 338:../Libraries/STM32F10x_StdPeriph_Driver/src/stm32f10x_can.c ****     CAN1->sFilterRegister[CAN_FilterInitStruct->CAN_FilterNumber].FR2 = 
 19224              		.loc 1 338 0
 19225 007e 857A     		ldrb	r5, [r0, #10]	@ zero_extendqisi2
 339:../Libraries/STM32F10x_StdPeriph_Driver/src/stm32f10x_can.c ****     ((0x0000FFFF & (uint32_t)CAN_FilterInitStruct->CAN_FilterMaskIdHigh) << 16) |
 19226              		.loc 1 339 0
 19227 0080 43EA0444 		orr	r4, r3, r4, lsl #16
 338:../Libraries/STM32F10x_StdPeriph_Driver/src/stm32f10x_can.c ****     CAN1->sFilterRegister[CAN_FilterInitStruct->CAN_FilterNumber].FR2 = 
 19228              		.loc 1 338 0
 19229 0084 194B     		ldr	r3, .L44+4
 19230 0086 ED00     		lsls	r5, r5, #3
 19231 0088 EB18     		adds	r3, r5, r3
 19232 008a 5C60     		str	r4, [r3, #4]
 19233              	.L36:
 344:../Libraries/STM32F10x_StdPeriph_Driver/src/stm32f10x_can.c ****   if (CAN_FilterInitStruct->CAN_FilterMode == CAN_FilterMode_IdMask)
 19234              		.loc 1 344 0
 19235 008c C47A     		ldrb	r4, [r0, #11]	@ zero_extendqisi2
 19236 008e 164B     		ldr	r3, .L44
 19237 0090 24B9     		cbnz	r4, .L37
 347:../Libraries/STM32F10x_StdPeriph_Driver/src/stm32f10x_can.c ****     CAN1->FM1R &= ~(uint32_t)filter_number_bit_pos;
 19238              		.loc 1 347 0
 19239 0092 D3F80442 		ldr	r4, [r3, #516]
 19240 0096 01EA0404 		and	r4, r1, r4
 19241 009a 03E0     		b	.L42
 19242              	.L37:
 352:../Libraries/STM32F10x_StdPeriph_Driver/src/stm32f10x_can.c ****     CAN1->FM1R |= (uint32_t)filter_number_bit_pos;
 19243              		.loc 1 352 0
 19244 009c D3F80442 		ldr	r4, [r3, #516]
 19245 00a0 42EA0404 		orr	r4, r2, r4
 19246              	.L42:
 19247 00a4 C3F80442 		str	r4, [r3, #516]
 356:../Libraries/STM32F10x_StdPeriph_Driver/src/stm32f10x_can.c ****   if (CAN_FilterInitStruct->CAN_FilterFIFOAssignment == CAN_Filter_FIFO0)
 19248              		.loc 1 356 0
 19249 00a8 0489     		ldrh	r4, [r0, #8]
 19250 00aa 0F4B     		ldr	r3, .L44
 19251 00ac 1CB9     		cbnz	r4, .L39
 359:../Libraries/STM32F10x_StdPeriph_Driver/src/stm32f10x_can.c ****     CAN1->FFA1R &= ~(uint32_t)filter_number_bit_pos;
 19252              		.loc 1 359 0
 19253 00ae D3F81442 		ldr	r4, [r3, #532]
 19254 00b2 2140     		ands	r1, r1, r4
 19255 00b4 05E0     		b	.L43
 19256              	.L39:
 362:../Libraries/STM32F10x_StdPeriph_Driver/src/stm32f10x_can.c ****   if (CAN_FilterInitStruct->CAN_FilterFIFOAssignment == CAN_Filter_FIFO1)
 19257              		.loc 1 362 0
 19258 00b6 012C     		cmp	r4, #1
 19259 00b8 05D1     		bne	.L40
 365:../Libraries/STM32F10x_StdPeriph_Driver/src/stm32f10x_can.c ****     CAN1->FFA1R |= (uint32_t)filter_number_bit_pos;
 19260              		.loc 1 365 0
 19261 00ba D3F81412 		ldr	r1, [r3, #532]
 19262 00be 42EA0101 		orr	r1, r2, r1
 19263              	.L43:
 19264 00c2 C3F81412 		str	r1, [r3, #532]
 19265              	.L40:
 369:../Libraries/STM32F10x_StdPeriph_Driver/src/stm32f10x_can.c ****   if (CAN_FilterInitStruct->CAN_FilterActivation == ENABLE)
 19266              		.loc 1 369 0
 19267 00c6 437B     		ldrb	r3, [r0, #13]	@ zero_extendqisi2
 19268 00c8 012B     		cmp	r3, #1
 19269 00ca 05D1     		bne	.L41
 371:../Libraries/STM32F10x_StdPeriph_Driver/src/stm32f10x_can.c ****     CAN1->FA1R |= filter_number_bit_pos;
 19270              		.loc 1 371 0
 19271 00cc 064B     		ldr	r3, .L44
 19272 00ce D3F81C12 		ldr	r1, [r3, #540]
 19273 00d2 0A43     		orrs	r2, r2, r1
 19274              	.LVL18:
 19275 00d4 C3F81C22 		str	r2, [r3, #540]
 19276              	.L41:
 375:../Libraries/STM32F10x_StdPeriph_Driver/src/stm32f10x_can.c ****   CAN1->FMR &= ~FMR_FINIT;
 19277              		.loc 1 375 0
 19278 00d8 034B     		ldr	r3, .L44
 19279 00da D3F80022 		ldr	r2, [r3, #512]
 19280 00de 22F00102 		bic	r2, r2, #1
 19281 00e2 C3F80022 		str	r2, [r3, #512]
 376:../Libraries/STM32F10x_StdPeriph_Driver/src/stm32f10x_can.c **** }
 19282              		.loc 1 376 0
 19283 00e6 70BD     		pop	{r4, r5, r6, pc}
 19284              	.L45:
 19285              		.align	2
 19286              	.L44:
 19287 00e8 00640040 		.word	1073767424
 19288 00ec 40660040 		.word	1073768000
 19289              		.cfi_endproc
 19290              	.LFE31:
 19292              		.section	.text.CAN_StructInit,"ax",%progbits
 19293              		.align	1
 19294              		.global	CAN_StructInit
 19295              		.thumb
 19296              		.thumb_func
 19298              	CAN_StructInit:
 19299              	.LFB32:
 385:../Libraries/STM32F10x_StdPeriph_Driver/src/stm32f10x_can.c **** {
 19300              		.loc 1 385 0
 19301              		.cfi_startproc
 19302              		@ args = 0, pretend = 0, frame = 0
 19303              		@ frame_needed = 0, uses_anonymous_args = 0
 19304              		@ link register save eliminated.
 19305              	.LVL19:
 389:../Libraries/STM32F10x_StdPeriph_Driver/src/stm32f10x_can.c ****   CAN_InitStruct->CAN_TTCM = DISABLE;
 19306              		.loc 1 389 0
 19307 0000 0023     		movs	r3, #0
 19308 0002 8371     		strb	r3, [r0, #6]
 392:../Libraries/STM32F10x_StdPeriph_Driver/src/stm32f10x_can.c ****   CAN_InitStruct->CAN_ABOM = DISABLE;
 19309              		.loc 1 392 0
 19310 0004 C371     		strb	r3, [r0, #7]
 395:../Libraries/STM32F10x_StdPeriph_Driver/src/stm32f10x_can.c ****   CAN_InitStruct->CAN_AWUM = DISABLE;
 19311              		.loc 1 395 0
 19312 0006 0372     		strb	r3, [r0, #8]
 398:../Libraries/STM32F10x_StdPeriph_Driver/src/stm32f10x_can.c ****   CAN_InitStruct->CAN_NART = DISABLE;
 19313              		.loc 1 398 0
 19314 0008 4372     		strb	r3, [r0, #9]
 401:../Libraries/STM32F10x_StdPeriph_Driver/src/stm32f10x_can.c ****   CAN_InitStruct->CAN_RFLM = DISABLE;
 19315              		.loc 1 401 0
 19316 000a 8372     		strb	r3, [r0, #10]
 404:../Libraries/STM32F10x_StdPeriph_Driver/src/stm32f10x_can.c ****   CAN_InitStruct->CAN_TXFP = DISABLE;
 19317              		.loc 1 404 0
 19318 000c C372     		strb	r3, [r0, #11]
 407:../Libraries/STM32F10x_StdPeriph_Driver/src/stm32f10x_can.c ****   CAN_InitStruct->CAN_Mode = CAN_Mode_Normal;
 19319              		.loc 1 407 0
 19320 000e 8370     		strb	r3, [r0, #2]
 410:../Libraries/STM32F10x_StdPeriph_Driver/src/stm32f10x_can.c ****   CAN_InitStruct->CAN_SJW = CAN_SJW_1tq;
 19321              		.loc 1 410 0
 19322 0010 C370     		strb	r3, [r0, #3]
 413:../Libraries/STM32F10x_StdPeriph_Driver/src/stm32f10x_can.c ****   CAN_InitStruct->CAN_BS1 = CAN_BS1_4tq;
 19323              		.loc 1 413 0
 19324 0012 0333     		adds	r3, r3, #3
 19325 0014 0371     		strb	r3, [r0, #4]
 416:../Libraries/STM32F10x_StdPeriph_Driver/src/stm32f10x_can.c ****   CAN_InitStruct->CAN_BS2 = CAN_BS2_3tq;
 19326              		.loc 1 416 0
 19327 0016 013B     		subs	r3, r3, #1
 19328 0018 4371     		strb	r3, [r0, #5]
 419:../Libraries/STM32F10x_StdPeriph_Driver/src/stm32f10x_can.c ****   CAN_InitStruct->CAN_Prescaler = 1;
 19329              		.loc 1 419 0
 19330 001a 0123     		movs	r3, #1
 19331 001c 0380     		strh	r3, [r0, #0]	@ movhi
 420:../Libraries/STM32F10x_StdPeriph_Driver/src/stm32f10x_can.c **** }
 19332              		.loc 1 420 0
 19333 001e 7047     		bx	lr
 19334              		.cfi_endproc
 19335              	.LFE32:
 19337              		.section	.text.CAN_SlaveStartBank,"ax",%progbits
 19338              		.align	1
 19339              		.global	CAN_SlaveStartBank
 19340              		.thumb
 19341              		.thumb_func
 19343              	CAN_SlaveStartBank:
 19344              	.LFB33:
 429:../Libraries/STM32F10x_StdPeriph_Driver/src/stm32f10x_can.c **** {
 19345              		.loc 1 429 0
 19346              		.cfi_startproc
 19347              		@ args = 0, pretend = 0, frame = 0
 19348              		@ frame_needed = 0, uses_anonymous_args = 0
 19349              		@ link register save eliminated.
 19350              	.LVL20:
 434:../Libraries/STM32F10x_StdPeriph_Driver/src/stm32f10x_can.c ****   CAN1->FMR |= FMR_FINIT;
 19351              		.loc 1 434 0
 19352 0000 0D4B     		ldr	r3, .L48
 19353 0002 D3F80022 		ldr	r2, [r3, #512]
 19354 0006 42F00102 		orr	r2, r2, #1
 19355 000a C3F80022 		str	r2, [r3, #512]
 437:../Libraries/STM32F10x_StdPeriph_Driver/src/stm32f10x_can.c ****   CAN1->FMR &= (uint32_t)0xFFFFC0F1 ;
 19356              		.loc 1 437 0
 19357 000e D3F80022 		ldr	r2, [r3, #512]
 19358 0012 22F47C52 		bic	r2, r2, #16128
 19359 0016 22F00E02 		bic	r2, r2, #14
 19360 001a C3F80022 		str	r2, [r3, #512]
 438:../Libraries/STM32F10x_StdPeriph_Driver/src/stm32f10x_can.c ****   CAN1->FMR |= (uint32_t)(CAN_BankNumber)<<8;
 19361              		.loc 1 438 0
 19362 001e D3F80022 		ldr	r2, [r3, #512]
 19363 0022 42EA0022 		orr	r2, r2, r0, lsl #8
 19364 0026 C3F80022 		str	r2, [r3, #512]
 441:../Libraries/STM32F10x_StdPeriph_Driver/src/stm32f10x_can.c ****   CAN1->FMR &= ~FMR_FINIT;
 19365              		.loc 1 441 0
 19366 002a D3F80022 		ldr	r2, [r3, #512]
 19367 002e 22F00102 		bic	r2, r2, #1
 19368 0032 C3F80022 		str	r2, [r3, #512]
 442:../Libraries/STM32F10x_StdPeriph_Driver/src/stm32f10x_can.c **** }
 19369              		.loc 1 442 0
 19370 0036 7047     		bx	lr
 19371              	.L49:
 19372              		.align	2
 19373              	.L48:
 19374 0038 00640040 		.word	1073767424
 19375              		.cfi_endproc
 19376              	.LFE33:
 19378              		.section	.text.CAN_DBGFreeze,"ax",%progbits
 19379              		.align	1
 19380              		.global	CAN_DBGFreeze
 19381              		.thumb
 19382              		.thumb_func
 19384              	CAN_DBGFreeze:
 19385              	.LFB34:
 452:../Libraries/STM32F10x_StdPeriph_Driver/src/stm32f10x_can.c **** {
 19386              		.loc 1 452 0
 19387              		.cfi_startproc
 19388              		@ args = 0, pretend = 0, frame = 0
 19389              		@ frame_needed = 0, uses_anonymous_args = 0
 19390              		@ link register save eliminated.
 19391              	.LVL21:
 457:../Libraries/STM32F10x_StdPeriph_Driver/src/stm32f10x_can.c ****   if (NewState != DISABLE)
 19392              		.loc 1 457 0
 19393 0000 19B1     		cbz	r1, .L51
 460:../Libraries/STM32F10x_StdPeriph_Driver/src/stm32f10x_can.c ****     CANx->MCR |= MCR_DBF;
 19394              		.loc 1 460 0
 19395 0002 0368     		ldr	r3, [r0, #0]
 19396 0004 43F48033 		orr	r3, r3, #65536
 19397 0008 02E0     		b	.L53
 19398              	.L51:
 465:../Libraries/STM32F10x_StdPeriph_Driver/src/stm32f10x_can.c ****     CANx->MCR &= ~MCR_DBF;
 19399              		.loc 1 465 0
 19400 000a 0368     		ldr	r3, [r0, #0]
 19401 000c 23F48033 		bic	r3, r3, #65536
 19402              	.L53:
 19403 0010 0360     		str	r3, [r0, #0]
 19404 0012 7047     		bx	lr
 19405              		.cfi_endproc
 19406              	.LFE34:
 19408              		.section	.text.CAN_TTComModeCmd,"ax",%progbits
 19409              		.align	1
 19410              		.global	CAN_TTComModeCmd
 19411              		.thumb
 19412              		.thumb_func
 19414              	CAN_TTComModeCmd:
 19415              	.LFB35:
 482:../Libraries/STM32F10x_StdPeriph_Driver/src/stm32f10x_can.c **** {
 19416              		.loc 1 482 0
 19417              		.cfi_startproc
 19418              		@ args = 0, pretend = 0, frame = 0
 19419              		@ frame_needed = 0, uses_anonymous_args = 0
 19420              		@ link register save eliminated.
 19421              	.LVL22:
 486:../Libraries/STM32F10x_StdPeriph_Driver/src/stm32f10x_can.c ****   if (NewState != DISABLE)
 19422              		.loc 1 486 0
 19423 0000 A1B1     		cbz	r1, .L55
 489:../Libraries/STM32F10x_StdPeriph_Driver/src/stm32f10x_can.c ****     CANx->MCR |= CAN_MCR_TTCM;
 19424              		.loc 1 489 0
 19425 0002 0368     		ldr	r3, [r0, #0]
 19426 0004 43F08003 		orr	r3, r3, #128
 19427 0008 0360     		str	r3, [r0, #0]
 492:../Libraries/STM32F10x_StdPeriph_Driver/src/stm32f10x_can.c ****     CANx->sTxMailBox[0].TDTR |= ((uint32_t)CAN_TDT0R_TGT);
 19428              		.loc 1 492 0
 19429 000a D0F88431 		ldr	r3, [r0, #388]
 19430 000e 43F48073 		orr	r3, r3, #256
 19431 0012 C0F88431 		str	r3, [r0, #388]
 493:../Libraries/STM32F10x_StdPeriph_Driver/src/stm32f10x_can.c ****     CANx->sTxMailBox[1].TDTR |= ((uint32_t)CAN_TDT1R_TGT);
 19432              		.loc 1 493 0
 19433 0016 D0F89431 		ldr	r3, [r0, #404]
 19434 001a 43F48073 		orr	r3, r3, #256
 19435 001e C0F89431 		str	r3, [r0, #404]
 494:../Libraries/STM32F10x_StdPeriph_Driver/src/stm32f10x_can.c ****     CANx->sTxMailBox[2].TDTR |= ((uint32_t)CAN_TDT2R_TGT);
 19436              		.loc 1 494 0
 19437 0022 D0F8A431 		ldr	r3, [r0, #420]
 19438 0026 43F48073 		orr	r3, r3, #256
 19439 002a 13E0     		b	.L57
 19440              	.L55:
 499:../Libraries/STM32F10x_StdPeriph_Driver/src/stm32f10x_can.c ****     CANx->MCR &= (uint32_t)(~(uint32_t)CAN_MCR_TTCM);
 19441              		.loc 1 499 0
 19442 002c 0368     		ldr	r3, [r0, #0]
 19443 002e 23F08003 		bic	r3, r3, #128
 19444 0032 0360     		str	r3, [r0, #0]
 502:../Libraries/STM32F10x_StdPeriph_Driver/src/stm32f10x_can.c ****     CANx->sTxMailBox[0].TDTR &= ((uint32_t)~CAN_TDT0R_TGT);
 19445              		.loc 1 502 0
 19446 0034 D0F88431 		ldr	r3, [r0, #388]
 19447 0038 23F48073 		bic	r3, r3, #256
 19448 003c C0F88431 		str	r3, [r0, #388]
 503:../Libraries/STM32F10x_StdPeriph_Driver/src/stm32f10x_can.c ****     CANx->sTxMailBox[1].TDTR &= ((uint32_t)~CAN_TDT1R_TGT);
 19449              		.loc 1 503 0
 19450 0040 D0F89431 		ldr	r3, [r0, #404]
 19451 0044 23F48073 		bic	r3, r3, #256
 19452 0048 C0F89431 		str	r3, [r0, #404]
 504:../Libraries/STM32F10x_StdPeriph_Driver/src/stm32f10x_can.c ****     CANx->sTxMailBox[2].TDTR &= ((uint32_t)~CAN_TDT2R_TGT);
 19453              		.loc 1 504 0
 19454 004c D0F8A431 		ldr	r3, [r0, #420]
 19455 0050 23F48073 		bic	r3, r3, #256
 19456              	.L57:
 19457 0054 C0F8A431 		str	r3, [r0, #420]
 19458 0058 7047     		bx	lr
 19459              		.cfi_endproc
 19460              	.LFE35:
 19462              		.section	.text.CAN_Transmit,"ax",%progbits
 19463              		.align	1
 19464              		.global	CAN_Transmit
 19465              		.thumb
 19466              		.thumb_func
 19468              	CAN_Transmit:
 19469              	.LFB36:
 516:../Libraries/STM32F10x_StdPeriph_Driver/src/stm32f10x_can.c **** {
 19470              		.loc 1 516 0
 19471              		.cfi_startproc
 19472              		@ args = 0, pretend = 0, frame = 0
 19473              		@ frame_needed = 0, uses_anonymous_args = 0
 19474              	.LVL23:
 525:../Libraries/STM32F10x_StdPeriph_Driver/src/stm32f10x_can.c ****   if ((CANx->TSR&CAN_TSR_TME0) == CAN_TSR_TME0)
 19475              		.loc 1 525 0
 19476 0000 8268     		ldr	r2, [r0, #8]
 516:../Libraries/STM32F10x_StdPeriph_Driver/src/stm32f10x_can.c **** {
 19477              		.loc 1 516 0
 19478 0002 70B5     		push	{r4, r5, r6, lr}
 19479              	.LCFI2:
 19480              		.cfi_def_cfa_offset 16
 525:../Libraries/STM32F10x_StdPeriph_Driver/src/stm32f10x_can.c ****   if ((CANx->TSR&CAN_TSR_TME0) == CAN_TSR_TME0)
 19481              		.loc 1 525 0
 19482 0004 12F0806F 		tst	r2, #67108864
 516:../Libraries/STM32F10x_StdPeriph_Driver/src/stm32f10x_can.c **** {
 19483              		.loc 1 516 0
 19484 0008 0346     		mov	r3, r0
 525:../Libraries/STM32F10x_StdPeriph_Driver/src/stm32f10x_can.c ****   if ((CANx->TSR&CAN_TSR_TME0) == CAN_TSR_TME0)
 19485              		.loc 1 525 0
 19486 000a 09D1     		bne	.L63
 19487              		.cfi_offset 14, -4
 19488              		.cfi_offset 6, -8
 19489              		.cfi_offset 5, -12
 19490              		.cfi_offset 4, -16
 529:../Libraries/STM32F10x_StdPeriph_Driver/src/stm32f10x_can.c ****   else if ((CANx->TSR&CAN_TSR_TME1) == CAN_TSR_TME1)
 19491              		.loc 1 529 0
 19492 000c 8268     		ldr	r2, [r0, #8]
 19493 000e 12F0006F 		tst	r2, #134217728
 19494 0012 07D1     		bne	.L64
 533:../Libraries/STM32F10x_StdPeriph_Driver/src/stm32f10x_can.c ****   else if ((CANx->TSR&CAN_TSR_TME2) == CAN_TSR_TME2)
 19495              		.loc 1 533 0
 19496 0014 8268     		ldr	r2, [r0, #8]
 19497 0016 12F0805F 		tst	r2, #268435456
 19498 001a 4BD0     		beq	.L65
 535:../Libraries/STM32F10x_StdPeriph_Driver/src/stm32f10x_can.c ****     transmit_mailbox = 2;
 19499              		.loc 1 535 0
 19500 001c 0220     		movs	r0, #2
 19501              	.LVL24:
 19502 001e 02E0     		b	.L59
 19503              	.L63:
 527:../Libraries/STM32F10x_StdPeriph_Driver/src/stm32f10x_can.c ****     transmit_mailbox = 0;
 19504              		.loc 1 527 0
 19505 0020 0020     		movs	r0, #0
 19506 0022 00E0     		b	.L59
 19507              	.L64:
 531:../Libraries/STM32F10x_StdPeriph_Driver/src/stm32f10x_can.c ****     transmit_mailbox = 1;
 19508              		.loc 1 531 0
 19509 0024 0120     		movs	r0, #1
 19510              	.L59:
 19511              	.LVL25:
 545:../Libraries/STM32F10x_StdPeriph_Driver/src/stm32f10x_can.c ****     CANx->sTxMailBox[transmit_mailbox].TIR &= TMIDxR_TXRQ;
 19512              		.loc 1 545 0
 19513 0026 00F11802 		add	r2, r0, #24
 19514 002a 1201     		lsls	r2, r2, #4
 19515 002c 9C58     		ldr	r4, [r3, r2]
 19516 002e 04F00104 		and	r4, r4, #1
 19517 0032 9C50     		str	r4, [r3, r2]
 546:../Libraries/STM32F10x_StdPeriph_Driver/src/stm32f10x_can.c ****     if (TxMessage->IDE == CAN_Id_Standard)
 19518              		.loc 1 546 0
 19519 0034 0C7A     		ldrb	r4, [r1, #8]	@ zero_extendqisi2
 19520 0036 2CB9     		cbnz	r4, .L61
 549:../Libraries/STM32F10x_StdPeriph_Driver/src/stm32f10x_can.c ****       CANx->sTxMailBox[transmit_mailbox].TIR |= ((TxMessage->StdId << 21) | \
 19521              		.loc 1 549 0
 19522 0038 0E68     		ldr	r6, [r1, #0]
 19523 003a 4C7A     		ldrb	r4, [r1, #9]	@ zero_extendqisi2
 19524 003c 9D58     		ldr	r5, [r3, r2]
 19525 003e 44EA4654 		orr	r4, r4, r6, lsl #21
 19526 0042 05E0     		b	.L66
 19527              	.L61:
 555:../Libraries/STM32F10x_StdPeriph_Driver/src/stm32f10x_can.c ****       CANx->sTxMailBox[transmit_mailbox].TIR |= ((TxMessage->ExtId << 3) | \
 19528              		.loc 1 555 0
 19529 0044 4E68     		ldr	r6, [r1, #4]
 19530 0046 9D58     		ldr	r5, [r3, r2]
 19531 0048 44EAC604 		orr	r4, r4, r6, lsl #3
 556:../Libraries/STM32F10x_StdPeriph_Driver/src/stm32f10x_can.c ****                                                   TxMessage->IDE | \
 19532              		.loc 1 556 0
 19533 004c 2C43     		orrs	r4, r4, r5
 19534 004e 4D7A     		ldrb	r5, [r1, #9]	@ zero_extendqisi2
 19535              	.L66:
 555:../Libraries/STM32F10x_StdPeriph_Driver/src/stm32f10x_can.c ****       CANx->sTxMailBox[transmit_mailbox].TIR |= ((TxMessage->ExtId << 3) | \
 19536              		.loc 1 555 0
 19537 0050 2C43     		orrs	r4, r4, r5
 19538 0052 9C50     		str	r4, [r3, r2]
 561:../Libraries/STM32F10x_StdPeriph_Driver/src/stm32f10x_can.c ****     TxMessage->DLC &= (uint8_t)0x0000000F;
 19539              		.loc 1 561 0
 19540 0054 8A7A     		ldrb	r2, [r1, #10]	@ zero_extendqisi2
 562:../Libraries/STM32F10x_StdPeriph_Driver/src/stm32f10x_can.c ****     CANx->sTxMailBox[transmit_mailbox].TDTR &= (uint32_t)0xFFFFFFF0;
 19541              		.loc 1 562 0
 19542 0056 00F11804 		add	r4, r0, #24
 19543 005a 2401     		lsls	r4, r4, #4
 561:../Libraries/STM32F10x_StdPeriph_Driver/src/stm32f10x_can.c ****     TxMessage->DLC &= (uint8_t)0x0000000F;
 19544              		.loc 1 561 0
 19545 005c 02F00F02 		and	r2, r2, #15
 19546 0060 8A72     		strb	r2, [r1, #10]
 562:../Libraries/STM32F10x_StdPeriph_Driver/src/stm32f10x_can.c ****     CANx->sTxMailBox[transmit_mailbox].TDTR &= (uint32_t)0xFFFFFFF0;
 19547              		.loc 1 562 0
 19548 0062 1A19     		adds	r2, r3, r4
 19549 0064 5568     		ldr	r5, [r2, #4]
 19550 0066 25F00F05 		bic	r5, r5, #15
 19551 006a 5560     		str	r5, [r2, #4]
 563:../Libraries/STM32F10x_StdPeriph_Driver/src/stm32f10x_can.c ****     CANx->sTxMailBox[transmit_mailbox].TDTR |= TxMessage->DLC;
 19552              		.loc 1 563 0
 19553 006c 5568     		ldr	r5, [r2, #4]
 19554 006e 8E7A     		ldrb	r6, [r1, #10]	@ zero_extendqisi2
 19555 0070 46EA0505 		orr	r5, r6, r5
 19556 0074 5560     		str	r5, [r2, #4]
 567:../Libraries/STM32F10x_StdPeriph_Driver/src/stm32f10x_can.c ****                                              ((uint32_t)TxMessage->Data[2] << 16) |
 19557              		.loc 1 567 0
 19558 0076 4D7B     		ldrb	r5, [r1, #13]	@ zero_extendqisi2
 566:../Libraries/STM32F10x_StdPeriph_Driver/src/stm32f10x_can.c ****     CANx->sTxMailBox[transmit_mailbox].TDLR = (((uint32_t)TxMessage->Data[3] << 24) | 
 19559              		.loc 1 566 0
 19560 0078 8A7B     		ldrb	r2, [r1, #14]	@ zero_extendqisi2
 567:../Libraries/STM32F10x_StdPeriph_Driver/src/stm32f10x_can.c ****                                              ((uint32_t)TxMessage->Data[2] << 16) |
 19561              		.loc 1 567 0
 19562 007a 2D04     		lsls	r5, r5, #16
 566:../Libraries/STM32F10x_StdPeriph_Driver/src/stm32f10x_can.c ****     CANx->sTxMailBox[transmit_mailbox].TDLR = (((uint32_t)TxMessage->Data[3] << 24) | 
 19563              		.loc 1 566 0
 19564 007c 45EA0265 		orr	r5, r5, r2, lsl #24
 569:../Libraries/STM32F10x_StdPeriph_Driver/src/stm32f10x_can.c ****                                              ((uint32_t)TxMessage->Data[0]));
 19565              		.loc 1 569 0
 19566 0080 CA7A     		ldrb	r2, [r1, #11]	@ zero_extendqisi2
 567:../Libraries/STM32F10x_StdPeriph_Driver/src/stm32f10x_can.c ****                                              ((uint32_t)TxMessage->Data[2] << 16) |
 19567              		.loc 1 567 0
 19568 0082 1543     		orrs	r5, r5, r2
 568:../Libraries/STM32F10x_StdPeriph_Driver/src/stm32f10x_can.c ****                                              ((uint32_t)TxMessage->Data[1] << 8) | 
 19569              		.loc 1 568 0
 19570 0084 0A7B     		ldrb	r2, [r1, #12]	@ zero_extendqisi2
 19571 0086 45EA0225 		orr	r5, r5, r2, lsl #8
 566:../Libraries/STM32F10x_StdPeriph_Driver/src/stm32f10x_can.c ****     CANx->sTxMailBox[transmit_mailbox].TDLR = (((uint32_t)TxMessage->Data[3] << 24) | 
 19572              		.loc 1 566 0
 19573 008a 03EB0012 		add	r2, r3, r0, lsl #4
 19574 008e C2F88851 		str	r5, [r2, #392]
 571:../Libraries/STM32F10x_StdPeriph_Driver/src/stm32f10x_can.c ****                                              ((uint32_t)TxMessage->Data[6] << 16) |
 19575              		.loc 1 571 0
 19576 0092 4D7C     		ldrb	r5, [r1, #17]	@ zero_extendqisi2
 570:../Libraries/STM32F10x_StdPeriph_Driver/src/stm32f10x_can.c ****     CANx->sTxMailBox[transmit_mailbox].TDHR = (((uint32_t)TxMessage->Data[7] << 24) | 
 19577              		.loc 1 570 0
 19578 0094 8E7C     		ldrb	r6, [r1, #18]	@ zero_extendqisi2
 571:../Libraries/STM32F10x_StdPeriph_Driver/src/stm32f10x_can.c ****                                              ((uint32_t)TxMessage->Data[6] << 16) |
 19579              		.loc 1 571 0
 19580 0096 2D04     		lsls	r5, r5, #16
 570:../Libraries/STM32F10x_StdPeriph_Driver/src/stm32f10x_can.c ****     CANx->sTxMailBox[transmit_mailbox].TDHR = (((uint32_t)TxMessage->Data[7] << 24) | 
 19581              		.loc 1 570 0
 19582 0098 45EA0665 		orr	r5, r5, r6, lsl #24
 573:../Libraries/STM32F10x_StdPeriph_Driver/src/stm32f10x_can.c ****                                              ((uint32_t)TxMessage->Data[4]));
 19583              		.loc 1 573 0
 19584 009c CE7B     		ldrb	r6, [r1, #15]	@ zero_extendqisi2
 572:../Libraries/STM32F10x_StdPeriph_Driver/src/stm32f10x_can.c ****                                              ((uint32_t)TxMessage->Data[5] << 8) |
 19585              		.loc 1 572 0
 19586 009e 097C     		ldrb	r1, [r1, #16]	@ zero_extendqisi2
 19587              	.LVL26:
 571:../Libraries/STM32F10x_StdPeriph_Driver/src/stm32f10x_can.c ****                                              ((uint32_t)TxMessage->Data[6] << 16) |
 19588              		.loc 1 571 0
 19589 00a0 3543     		orrs	r5, r5, r6
 572:../Libraries/STM32F10x_StdPeriph_Driver/src/stm32f10x_can.c ****                                              ((uint32_t)TxMessage->Data[5] << 8) |
 19590              		.loc 1 572 0
 19591 00a2 45EA0121 		orr	r1, r5, r1, lsl #8
 570:../Libraries/STM32F10x_StdPeriph_Driver/src/stm32f10x_can.c ****     CANx->sTxMailBox[transmit_mailbox].TDHR = (((uint32_t)TxMessage->Data[7] << 24) | 
 19592              		.loc 1 570 0
 19593 00a6 C2F88C11 		str	r1, [r2, #396]
 575:../Libraries/STM32F10x_StdPeriph_Driver/src/stm32f10x_can.c ****     CANx->sTxMailBox[transmit_mailbox].TIR |= TMIDxR_TXRQ;
 19594              		.loc 1 575 0
 19595 00aa 1A59     		ldr	r2, [r3, r4]
 19596 00ac 42F00102 		orr	r2, r2, #1
 19597 00b0 1A51     		str	r2, [r3, r4]
 19598 00b2 70BD     		pop	{r4, r5, r6, pc}
 19599              	.LVL27:
 19600              	.L65:
 539:../Libraries/STM32F10x_StdPeriph_Driver/src/stm32f10x_can.c ****     transmit_mailbox = CAN_TxStatus_NoMailBox;
 19601              		.loc 1 539 0
 19602 00b4 0420     		movs	r0, #4
 578:../Libraries/STM32F10x_StdPeriph_Driver/src/stm32f10x_can.c **** }
 19603              		.loc 1 578 0
 19604 00b6 70BD     		pop	{r4, r5, r6, pc}
 19605              		.cfi_endproc
 19606              	.LFE36:
 19608              		.section	.text.CAN_TransmitStatus,"ax",%progbits
 19609              		.align	1
 19610              		.global	CAN_TransmitStatus
 19611              		.thumb
 19612              		.thumb_func
 19614              	CAN_TransmitStatus:
 19615              	.LFB37:
 590:../Libraries/STM32F10x_StdPeriph_Driver/src/stm32f10x_can.c **** {
 19616              		.loc 1 590 0
 19617              		.cfi_startproc
 19618              		@ args = 0, pretend = 0, frame = 0
 19619              		@ frame_needed = 0, uses_anonymous_args = 0
 19620              		@ link register save eliminated.
 19621              	.LVL28:
 597:../Libraries/STM32F10x_StdPeriph_Driver/src/stm32f10x_can.c ****   switch (TransmitMailbox)
 19622              		.loc 1 597 0
 19623 0000 0129     		cmp	r1, #1
 19624 0002 06D0     		beq	.L70
 19625 0004 02D3     		bcc	.L69
 19626 0006 0229     		cmp	r1, #2
 19627 0008 0BD1     		bne	.L80
 19628 000a 05E0     		b	.L82
 19629              	.L69:
 600:../Libraries/STM32F10x_StdPeriph_Driver/src/stm32f10x_can.c ****       state =   CANx->TSR &  (CAN_TSR_RQCP0 | CAN_TSR_TXOK0 | CAN_TSR_TME0);
 19630              		.loc 1 600 0
 19631 000c 8268     		ldr	r2, [r0, #8]
 19632 000e 0F4B     		ldr	r3, .L83
 19633 0010 04E0     		b	.L81
 19634              	.L70:
 603:../Libraries/STM32F10x_StdPeriph_Driver/src/stm32f10x_can.c ****       state =   CANx->TSR &  (CAN_TSR_RQCP1 | CAN_TSR_TXOK1 | CAN_TSR_TME1);
 19635              		.loc 1 603 0
 19636 0012 8268     		ldr	r2, [r0, #8]
 19637 0014 0E4B     		ldr	r3, .L83+4
 19638 0016 01E0     		b	.L81
 19639              	.L82:
 606:../Libraries/STM32F10x_StdPeriph_Driver/src/stm32f10x_can.c ****       state =   CANx->TSR &  (CAN_TSR_RQCP2 | CAN_TSR_TXOK2 | CAN_TSR_TME2);
 19640              		.loc 1 606 0
 19641 0018 8268     		ldr	r2, [r0, #8]
 19642 001a 0E4B     		ldr	r3, .L83+8
 19643              	.L81:
 19644 001c 02EA0303 		and	r3, r2, r3
 19645              	.LVL29:
 607:../Libraries/STM32F10x_StdPeriph_Driver/src/stm32f10x_can.c ****       break;
 19646              		.loc 1 607 0
 19647 0020 00E0     		b	.L68
 19648              	.LVL30:
 19649              	.L80:
 609:../Libraries/STM32F10x_StdPeriph_Driver/src/stm32f10x_can.c ****       state = CAN_TxStatus_Failed;
 19650              		.loc 1 609 0
 19651 0022 0023     		movs	r3, #0
 19652              	.LVL31:
 19653              	.L68:
 612:../Libraries/STM32F10x_StdPeriph_Driver/src/stm32f10x_can.c ****   switch (state)
 19654              		.loc 1 612 0
 19655 0024 094A     		ldr	r2, .L83
 19656 0026 9342     		cmp	r3, r2
 19657 0028 0BD0     		beq	.L76
 19658 002a 01D8     		bhi	.L77
 19659 002c 3BB1     		cbz	r3, .L73
 19660 002e 0AE0     		b	.L79
 19661              	.L77:
 19662 0030 074A     		ldr	r2, .L83+4
 19663 0032 9342     		cmp	r3, r2
 19664 0034 05D0     		beq	.L76
 19665 0036 074A     		ldr	r2, .L83+8
 19666 0038 9342     		cmp	r3, r2
 19667 003a 04D1     		bne	.L79
 19668 003c 01E0     		b	.L76
 19669              	.L73:
 615:../Libraries/STM32F10x_StdPeriph_Driver/src/stm32f10x_can.c ****     case (0x0): state = CAN_TxStatus_Pending;
 19670              		.loc 1 615 0
 19671 003e 0220     		movs	r0, #2
 19672              	.LVL32:
 19673 0040 7047     		bx	lr
 19674              	.LVL33:
 19675              	.L76:
 629:../Libraries/STM32F10x_StdPeriph_Driver/src/stm32f10x_can.c ****     case (CAN_TSR_RQCP2 | CAN_TSR_TXOK2 | CAN_TSR_TME2):state = CAN_TxStatus_Ok;
 19676              		.loc 1 629 0
 19677 0042 0120     		movs	r0, #1
 19678              	.LVL34:
 630:../Libraries/STM32F10x_StdPeriph_Driver/src/stm32f10x_can.c ****       break;
 19679              		.loc 1 630 0
 19680 0044 7047     		bx	lr
 19681              	.LVL35:
 19682              	.L79:
 618:../Libraries/STM32F10x_StdPeriph_Driver/src/stm32f10x_can.c ****      case (CAN_TSR_RQCP0 | CAN_TSR_TME0): state = CAN_TxStatus_Failed;
 19683              		.loc 1 618 0
 19684 0046 0020     		movs	r0, #0
 19685              	.LVL36:
 635:../Libraries/STM32F10x_StdPeriph_Driver/src/stm32f10x_can.c **** }
 19686              		.loc 1 635 0
 19687 0048 7047     		bx	lr
 19688              	.L84:
 19689 004a 00BF     		.align	2
 19690              	.L83:
 19691 004c 03000004 		.word	67108867
 19692 0050 00030008 		.word	134218496
 19693 0054 00000310 		.word	268632064
 19694              		.cfi_endproc
 19695              	.LFE37:
 19697              		.section	.text.CAN_CancelTransmit,"ax",%progbits
 19698              		.align	1
 19699              		.global	CAN_CancelTransmit
 19700              		.thumb
 19701              		.thumb_func
 19703              	CAN_CancelTransmit:
 19704              	.LFB38:
 644:../Libraries/STM32F10x_StdPeriph_Driver/src/stm32f10x_can.c **** {
 19705              		.loc 1 644 0
 19706              		.cfi_startproc
 19707              		@ args = 0, pretend = 0, frame = 0
 19708              		@ frame_needed = 0, uses_anonymous_args = 0
 19709              		@ link register save eliminated.
 19710              	.LVL37:
 649:../Libraries/STM32F10x_StdPeriph_Driver/src/stm32f10x_can.c ****   switch (Mailbox)
 19711              		.loc 1 649 0
 19712 0000 0129     		cmp	r1, #1
 19713 0002 07D0     		beq	.L88
 19714 0004 02D3     		bcc	.L87
 19715 0006 0229     		cmp	r1, #2
 19716 0008 0DD1     		bne	.L85
 19717 000a 08E0     		b	.L91
 19718              	.L87:
 651:../Libraries/STM32F10x_StdPeriph_Driver/src/stm32f10x_can.c ****     case (CAN_TXMAILBOX_0): CANx->TSR |= CAN_TSR_ABRQ0;
 19719              		.loc 1 651 0
 19720 000c 8368     		ldr	r3, [r0, #8]
 19721 000e 43F08003 		orr	r3, r3, #128
 19722 0012 02E0     		b	.L90
 19723              	.L88:
 653:../Libraries/STM32F10x_StdPeriph_Driver/src/stm32f10x_can.c ****     case (CAN_TXMAILBOX_1): CANx->TSR |= CAN_TSR_ABRQ1;
 19724              		.loc 1 653 0
 19725 0014 8368     		ldr	r3, [r0, #8]
 19726 0016 43F40043 		orr	r3, r3, #32768
 19727              	.L90:
 19728 001a 8360     		str	r3, [r0, #8]
 654:../Libraries/STM32F10x_StdPeriph_Driver/src/stm32f10x_can.c ****       break;
 19729              		.loc 1 654 0
 19730 001c 7047     		bx	lr
 19731              	.L91:
 655:../Libraries/STM32F10x_StdPeriph_Driver/src/stm32f10x_can.c ****     case (CAN_TXMAILBOX_2): CANx->TSR |= CAN_TSR_ABRQ2;
 19732              		.loc 1 655 0
 19733 001e 8368     		ldr	r3, [r0, #8]
 19734 0020 43F40003 		orr	r3, r3, #8388608
 19735 0024 8360     		str	r3, [r0, #8]
 19736              	.L85:
 19737 0026 7047     		bx	lr
 19738              		.cfi_endproc
 19739              	.LFE38:
 19741              		.section	.text.CAN_Receive,"ax",%progbits
 19742              		.align	1
 19743              		.global	CAN_Receive
 19744              		.thumb
 19745              		.thumb_func
 19747              	CAN_Receive:
 19748              	.LFB39:
 672:../Libraries/STM32F10x_StdPeriph_Driver/src/stm32f10x_can.c **** {
 19749              		.loc 1 672 0
 19750              		.cfi_startproc
 19751              		@ args = 0, pretend = 0, frame = 0
 19752              		@ frame_needed = 0, uses_anonymous_args = 0
 19753              	.LVL38:
 19754 0000 30B5     		push	{r4, r5, lr}
 19755              	.LCFI3:
 19756              		.cfi_def_cfa_offset 12
 677:../Libraries/STM32F10x_StdPeriph_Driver/src/stm32f10x_can.c ****   RxMessage->IDE = (uint8_t)0x04 & CANx->sFIFOMailBox[FIFONumber].RIR;
 19757              		.loc 1 677 0
 19758 0002 01F11B04 		add	r4, r1, #27
 19759              		.cfi_offset 14, -4
 19760              		.cfi_offset 5, -8
 19761              		.cfi_offset 4, -12
 19762 0006 2301     		lsls	r3, r4, #4
 19763 0008 C558     		ldr	r5, [r0, r3]
 19764 000a 05F00405 		and	r5, r5, #4
 19765 000e EDB2     		uxtb	r5, r5
 19766 0010 1572     		strb	r5, [r2, #8]
 678:../Libraries/STM32F10x_StdPeriph_Driver/src/stm32f10x_can.c ****   if (RxMessage->IDE == CAN_Id_Standard)
 19767              		.loc 1 678 0
 19768 0012 1DB9     		cbnz	r5, .L93
 680:../Libraries/STM32F10x_StdPeriph_Driver/src/stm32f10x_can.c ****     RxMessage->StdId = (uint32_t)0x000007FF & (CANx->sFIFOMailBox[FIFONumber].RIR >> 21);
 19769              		.loc 1 680 0
 19770 0014 C358     		ldr	r3, [r0, r3]
 19771 0016 5B0D     		lsrs	r3, r3, #21
 19772 0018 1360     		str	r3, [r2, #0]
 19773 001a 02E0     		b	.L94
 19774              	.L93:
 684:../Libraries/STM32F10x_StdPeriph_Driver/src/stm32f10x_can.c ****     RxMessage->ExtId = (uint32_t)0x1FFFFFFF & (CANx->sFIFOMailBox[FIFONumber].RIR >> 3);
 19775              		.loc 1 684 0
 19776 001c C358     		ldr	r3, [r0, r3]
 19777 001e DB08     		lsrs	r3, r3, #3
 19778 0020 5360     		str	r3, [r2, #4]
 19779              	.L94:
 687:../Libraries/STM32F10x_StdPeriph_Driver/src/stm32f10x_can.c ****   RxMessage->RTR = (uint8_t)0x02 & CANx->sFIFOMailBox[FIFONumber].RIR;
 19780              		.loc 1 687 0
 19781 0022 2401     		lsls	r4, r4, #4
 19782 0024 0319     		adds	r3, r0, r4
 19783 0026 0459     		ldr	r4, [r0, r4]
 19784 0028 04F00204 		and	r4, r4, #2
 19785 002c 5472     		strb	r4, [r2, #9]
 689:../Libraries/STM32F10x_StdPeriph_Driver/src/stm32f10x_can.c ****   RxMessage->DLC = (uint8_t)0x0F & CANx->sFIFOMailBox[FIFONumber].RDTR;
 19786              		.loc 1 689 0
 19787 002e 5C68     		ldr	r4, [r3, #4]
 19788 0030 04F00F04 		and	r4, r4, #15
 19789 0034 9472     		strb	r4, [r2, #10]
 691:../Libraries/STM32F10x_StdPeriph_Driver/src/stm32f10x_can.c ****   RxMessage->FMI = (uint8_t)0xFF & (CANx->sFIFOMailBox[FIFONumber].RDTR >> 8);
 19790              		.loc 1 691 0
 19791 0036 5B68     		ldr	r3, [r3, #4]
 19792 0038 1B0A     		lsrs	r3, r3, #8
 19793 003a D374     		strb	r3, [r2, #19]
 693:../Libraries/STM32F10x_StdPeriph_Driver/src/stm32f10x_can.c ****   RxMessage->Data[0] = (uint8_t)0xFF & CANx->sFIFOMailBox[FIFONumber].RDLR;
 19794              		.loc 1 693 0
 19795 003c 00EB0113 		add	r3, r0, r1, lsl #4
 19796 0040 D3F8B841 		ldr	r4, [r3, #440]
 19797 0044 D472     		strb	r4, [r2, #11]
 694:../Libraries/STM32F10x_StdPeriph_Driver/src/stm32f10x_can.c ****   RxMessage->Data[1] = (uint8_t)0xFF & (CANx->sFIFOMailBox[FIFONumber].RDLR >> 8);
 19798              		.loc 1 694 0
 19799 0046 D3F8B841 		ldr	r4, [r3, #440]
 19800 004a 240A     		lsrs	r4, r4, #8
 19801 004c 1473     		strb	r4, [r2, #12]
 695:../Libraries/STM32F10x_StdPeriph_Driver/src/stm32f10x_can.c ****   RxMessage->Data[2] = (uint8_t)0xFF & (CANx->sFIFOMailBox[FIFONumber].RDLR >> 16);
 19802              		.loc 1 695 0
 19803 004e D3F8B841 		ldr	r4, [r3, #440]
 19804 0052 240C     		lsrs	r4, r4, #16
 19805 0054 5473     		strb	r4, [r2, #13]
 696:../Libraries/STM32F10x_StdPeriph_Driver/src/stm32f10x_can.c ****   RxMessage->Data[3] = (uint8_t)0xFF & (CANx->sFIFOMailBox[FIFONumber].RDLR >> 24);
 19806              		.loc 1 696 0
 19807 0056 D3F8B841 		ldr	r4, [r3, #440]
 19808 005a 240E     		lsrs	r4, r4, #24
 19809 005c 9473     		strb	r4, [r2, #14]
 697:../Libraries/STM32F10x_StdPeriph_Driver/src/stm32f10x_can.c ****   RxMessage->Data[4] = (uint8_t)0xFF & CANx->sFIFOMailBox[FIFONumber].RDHR;
 19810              		.loc 1 697 0
 19811 005e D3F8BC41 		ldr	r4, [r3, #444]
 19812 0062 D473     		strb	r4, [r2, #15]
 698:../Libraries/STM32F10x_StdPeriph_Driver/src/stm32f10x_can.c ****   RxMessage->Data[5] = (uint8_t)0xFF & (CANx->sFIFOMailBox[FIFONumber].RDHR >> 8);
 19813              		.loc 1 698 0
 19814 0064 D3F8BC41 		ldr	r4, [r3, #444]
 19815 0068 240A     		lsrs	r4, r4, #8
 19816 006a 1474     		strb	r4, [r2, #16]
 699:../Libraries/STM32F10x_StdPeriph_Driver/src/stm32f10x_can.c ****   RxMessage->Data[6] = (uint8_t)0xFF & (CANx->sFIFOMailBox[FIFONumber].RDHR >> 16);
 19817              		.loc 1 699 0
 19818 006c D3F8BC41 		ldr	r4, [r3, #444]
 19819 0070 240C     		lsrs	r4, r4, #16
 19820 0072 5474     		strb	r4, [r2, #17]
 700:../Libraries/STM32F10x_StdPeriph_Driver/src/stm32f10x_can.c ****   RxMessage->Data[7] = (uint8_t)0xFF & (CANx->sFIFOMailBox[FIFONumber].RDHR >> 24);
 19821              		.loc 1 700 0
 19822 0074 D3F8BC31 		ldr	r3, [r3, #444]
 19823 0078 1B0E     		lsrs	r3, r3, #24
 19824 007a 9374     		strb	r3, [r2, #18]
 703:../Libraries/STM32F10x_StdPeriph_Driver/src/stm32f10x_can.c ****   if (FIFONumber == CAN_FIFO0)
 19825              		.loc 1 703 0
 19826 007c 21B9     		cbnz	r1, .L95
 705:../Libraries/STM32F10x_StdPeriph_Driver/src/stm32f10x_can.c ****     CANx->RF0R |= CAN_RF0R_RFOM0;
 19827              		.loc 1 705 0
 19828 007e C368     		ldr	r3, [r0, #12]
 19829 0080 43F02003 		orr	r3, r3, #32
 19830 0084 C360     		str	r3, [r0, #12]
 19831 0086 30BD     		pop	{r4, r5, pc}
 19832              	.L95:
 710:../Libraries/STM32F10x_StdPeriph_Driver/src/stm32f10x_can.c ****     CANx->RF1R |= CAN_RF1R_RFOM1;
 19833              		.loc 1 710 0
 19834 0088 0369     		ldr	r3, [r0, #16]
 19835 008a 43F02003 		orr	r3, r3, #32
 19836 008e 0361     		str	r3, [r0, #16]
 19837 0090 30BD     		pop	{r4, r5, pc}
 19838              		.cfi_endproc
 19839              	.LFE39:
 19841              		.section	.text.CAN_FIFORelease,"ax",%progbits
 19842              		.align	1
 19843              		.global	CAN_FIFORelease
 19844              		.thumb
 19845              		.thumb_func
 19847              	CAN_FIFORelease:
 19848              	.LFB40:
 721:../Libraries/STM32F10x_StdPeriph_Driver/src/stm32f10x_can.c **** {
 19849              		.loc 1 721 0
 19850              		.cfi_startproc
 19851              		@ args = 0, pretend = 0, frame = 0
 19852              		@ frame_needed = 0, uses_anonymous_args = 0
 19853              		@ link register save eliminated.
 19854              	.LVL39:
 726:../Libraries/STM32F10x_StdPeriph_Driver/src/stm32f10x_can.c ****   if (FIFONumber == CAN_FIFO0)
 19855              		.loc 1 726 0
 19856 0000 21B9     		cbnz	r1, .L98
 728:../Libraries/STM32F10x_StdPeriph_Driver/src/stm32f10x_can.c ****     CANx->RF0R |= CAN_RF0R_RFOM0;
 19857              		.loc 1 728 0
 19858 0002 C368     		ldr	r3, [r0, #12]
 19859 0004 43F02003 		orr	r3, r3, #32
 19860 0008 C360     		str	r3, [r0, #12]
 19861 000a 7047     		bx	lr
 19862              	.L98:
 733:../Libraries/STM32F10x_StdPeriph_Driver/src/stm32f10x_can.c ****     CANx->RF1R |= CAN_RF1R_RFOM1;
 19863              		.loc 1 733 0
 19864 000c 0369     		ldr	r3, [r0, #16]
 19865 000e 43F02003 		orr	r3, r3, #32
 19866 0012 0361     		str	r3, [r0, #16]
 19867 0014 7047     		bx	lr
 19868              		.cfi_endproc
 19869              	.LFE40:
 19871              		.section	.text.CAN_MessagePending,"ax",%progbits
 19872              		.align	1
 19873              		.global	CAN_MessagePending
 19874              		.thumb
 19875              		.thumb_func
 19877              	CAN_MessagePending:
 19878              	.LFB41:
 744:../Libraries/STM32F10x_StdPeriph_Driver/src/stm32f10x_can.c **** {
 19879              		.loc 1 744 0
 19880              		.cfi_startproc
 19881              		@ args = 0, pretend = 0, frame = 0
 19882              		@ frame_needed = 0, uses_anonymous_args = 0
 19883              		@ link register save eliminated.
 19884              	.LVL40:
 749:../Libraries/STM32F10x_StdPeriph_Driver/src/stm32f10x_can.c ****   if (FIFONumber == CAN_FIFO0)
 19885              		.loc 1 749 0
 19886 0000 09B9     		cbnz	r1, .L101
 751:../Libraries/STM32F10x_StdPeriph_Driver/src/stm32f10x_can.c ****     message_pending = (uint8_t)(CANx->RF0R&(uint32_t)0x03);
 19887              		.loc 1 751 0
 19888 0002 C068     		ldr	r0, [r0, #12]
 19889              	.LVL41:
 19890 0004 02E0     		b	.L104
 19891              	.LVL42:
 19892              	.L101:
 753:../Libraries/STM32F10x_StdPeriph_Driver/src/stm32f10x_can.c ****   else if (FIFONumber == CAN_FIFO1)
 19893              		.loc 1 753 0
 19894 0006 0129     		cmp	r1, #1
 19895 0008 03D1     		bne	.L103
 755:../Libraries/STM32F10x_StdPeriph_Driver/src/stm32f10x_can.c ****     message_pending = (uint8_t)(CANx->RF1R&(uint32_t)0x03);
 19896              		.loc 1 755 0
 19897 000a 0069     		ldr	r0, [r0, #16]
 19898              	.LVL43:
 19899              	.L104:
 19900 000c 00F00300 		and	r0, r0, #3
 19901              	.LVL44:
 19902 0010 7047     		bx	lr
 19903              	.LVL45:
 19904              	.L103:
 759:../Libraries/STM32F10x_StdPeriph_Driver/src/stm32f10x_can.c ****     message_pending = 0;
 19905              		.loc 1 759 0
 19906 0012 0020     		movs	r0, #0
 19907              	.LVL46:
 762:../Libraries/STM32F10x_StdPeriph_Driver/src/stm32f10x_can.c **** }
 19908              		.loc 1 762 0
 19909 0014 7047     		bx	lr
 19910              		.cfi_endproc
 19911              	.LFE41:
 19913              		.section	.text.CAN_OperatingModeRequest,"ax",%progbits
 19914              		.align	1
 19915              		.global	CAN_OperatingModeRequest
 19916              		.thumb
 19917              		.thumb_func
 19919              	CAN_OperatingModeRequest:
 19920              	.LFB42:
 775:../Libraries/STM32F10x_StdPeriph_Driver/src/stm32f10x_can.c **** {
 19921              		.loc 1 775 0
 19922              		.cfi_startproc
 19923              		@ args = 0, pretend = 0, frame = 0
 19924              		@ frame_needed = 0, uses_anonymous_args = 0
 19925              		@ link register save eliminated.
 19926              	.LVL47:
 785:../Libraries/STM32F10x_StdPeriph_Driver/src/stm32f10x_can.c ****   if (CAN_OperatingMode == CAN_OperatingMode_Initialization)
 19927              		.loc 1 785 0
 19928 0000 A9B9     		cbnz	r1, .L106
 788:../Libraries/STM32F10x_StdPeriph_Driver/src/stm32f10x_can.c ****     CANx->MCR = (uint32_t)((CANx->MCR & (uint32_t)(~(uint32_t)CAN_MCR_SLEEP)) | CAN_MCR_INRQ);
 19929              		.loc 1 788 0
 19930 0002 0368     		ldr	r3, [r0, #0]
 19931 0004 23F00303 		bic	r3, r3, #3
 19932 0008 43F00103 		orr	r3, r3, #1
 19933 000c 0360     		str	r3, [r0, #0]
 779:../Libraries/STM32F10x_StdPeriph_Driver/src/stm32f10x_can.c ****   uint32_t timeout = INAK_TIMEOUT; 
 19934              		.loc 1 779 0
 19935 000e 4FF6FF73 		movw	r3, #65535
 791:../Libraries/STM32F10x_StdPeriph_Driver/src/stm32f10x_can.c ****     while (((CANx->MSR & CAN_MODE_MASK) != CAN_MSR_INAK) && (timeout != 0))
 19936              		.loc 1 791 0
 19937 0012 00E0     		b	.L107
 19938              	.LVL48:
 19939              	.L109:
 793:../Libraries/STM32F10x_StdPeriph_Driver/src/stm32f10x_can.c ****       timeout--;
 19940              		.loc 1 793 0
 19941 0014 013B     		subs	r3, r3, #1
 19942              	.LVL49:
 19943              	.L107:
 791:../Libraries/STM32F10x_StdPeriph_Driver/src/stm32f10x_can.c ****     while (((CANx->MSR & CAN_MODE_MASK) != CAN_MSR_INAK) && (timeout != 0))
 19944              		.loc 1 791 0 discriminator 1
 19945 0016 4268     		ldr	r2, [r0, #4]
 19946 0018 02F00302 		and	r2, r2, #3
 19947 001c 012A     		cmp	r2, #1
 19948 001e 01D0     		beq	.L108
 791:../Libraries/STM32F10x_StdPeriph_Driver/src/stm32f10x_can.c ****     while (((CANx->MSR & CAN_MODE_MASK) != CAN_MSR_INAK) && (timeout != 0))
 19949              		.loc 1 791 0 is_stmt 0 discriminator 2
 19950 0020 002B     		cmp	r3, #0
 19951 0022 F7D1     		bne	.L109
 19952              	.L108:
 795:../Libraries/STM32F10x_StdPeriph_Driver/src/stm32f10x_can.c ****     if ((CANx->MSR & CAN_MODE_MASK) != CAN_MSR_INAK)
 19953              		.loc 1 795 0 is_stmt 1
 19954 0024 4068     		ldr	r0, [r0, #4]
 19955              	.LVL50:
 19956 0026 00F00300 		and	r0, r0, #3
 801:../Libraries/STM32F10x_StdPeriph_Driver/src/stm32f10x_can.c ****       status = CAN_ModeStatus_Success;
 19957              		.loc 1 801 0
 19958 002a 0128     		cmp	r0, #1
 19959 002c 2EE0     		b	.L119
 19960              	.LVL51:
 19961              	.L106:
 804:../Libraries/STM32F10x_StdPeriph_Driver/src/stm32f10x_can.c ****   else  if (CAN_OperatingMode == CAN_OperatingMode_Normal)
 19962              		.loc 1 804 0
 19963 002e 0129     		cmp	r1, #1
 19964 0030 15D1     		bne	.L111
 807:../Libraries/STM32F10x_StdPeriph_Driver/src/stm32f10x_can.c ****     CANx->MCR &= (uint32_t)(~(CAN_MCR_SLEEP|CAN_MCR_INRQ));
 19965              		.loc 1 807 0
 19966 0032 0368     		ldr	r3, [r0, #0]
 19967 0034 23F00303 		bic	r3, r3, #3
 19968 0038 0360     		str	r3, [r0, #0]
 779:../Libraries/STM32F10x_StdPeriph_Driver/src/stm32f10x_can.c ****   uint32_t timeout = INAK_TIMEOUT; 
 19969              		.loc 1 779 0
 19970 003a 4FF6FF73 		movw	r3, #65535
 810:../Libraries/STM32F10x_StdPeriph_Driver/src/stm32f10x_can.c ****     while (((CANx->MSR & CAN_MODE_MASK) != 0) && (timeout!=0))
 19971              		.loc 1 810 0
 19972 003e 00E0     		b	.L112
 19973              	.LVL52:
 19974              	.L114:
 812:../Libraries/STM32F10x_StdPeriph_Driver/src/stm32f10x_can.c ****       timeout--;
 19975              		.loc 1 812 0
 19976 0040 013B     		subs	r3, r3, #1
 19977              	.LVL53:
 19978              	.L112:
 810:../Libraries/STM32F10x_StdPeriph_Driver/src/stm32f10x_can.c ****     while (((CANx->MSR & CAN_MODE_MASK) != 0) && (timeout!=0))
 19979              		.loc 1 810 0 discriminator 1
 19980 0042 4268     		ldr	r2, [r0, #4]
 19981 0044 12F0030F 		tst	r2, #3
 19982 0048 01D0     		beq	.L113
 810:../Libraries/STM32F10x_StdPeriph_Driver/src/stm32f10x_can.c ****     while (((CANx->MSR & CAN_MODE_MASK) != 0) && (timeout!=0))
 19983              		.loc 1 810 0 is_stmt 0 discriminator 2
 19984 004a 002B     		cmp	r3, #0
 19985 004c F8D1     		bne	.L114
 19986              	.L113:
 814:../Libraries/STM32F10x_StdPeriph_Driver/src/stm32f10x_can.c ****     if ((CANx->MSR & CAN_MODE_MASK) != 0)
 19987              		.loc 1 814 0 is_stmt 1
 19988 004e 4068     		ldr	r0, [r0, #4]
 19989              	.LVL54:
 19990 0050 00F00300 		and	r0, r0, #3
 801:../Libraries/STM32F10x_StdPeriph_Driver/src/stm32f10x_can.c ****       status = CAN_ModeStatus_Success;
 19991              		.loc 1 801 0
 19992 0054 D0F10100 		rsbs	r0, r0, #1
 19993 0058 38BF     		it	cc
 19994 005a 0020     		movcc	r0, #0
 19995 005c 7047     		bx	lr
 19996              	.LVL55:
 19997              	.L111:
 823:../Libraries/STM32F10x_StdPeriph_Driver/src/stm32f10x_can.c ****   else  if (CAN_OperatingMode == CAN_OperatingMode_Sleep)
 19998              		.loc 1 823 0
 19999 005e 0229     		cmp	r1, #2
 20000 0060 18D1     		bne	.L118
 826:../Libraries/STM32F10x_StdPeriph_Driver/src/stm32f10x_can.c ****     CANx->MCR = (uint32_t)((CANx->MCR & (uint32_t)(~(uint32_t)CAN_MCR_INRQ)) | CAN_MCR_SLEEP);
 20001              		.loc 1 826 0
 20002 0062 0368     		ldr	r3, [r0, #0]
 20003 0064 23F00303 		bic	r3, r3, #3
 20004 0068 43F00203 		orr	r3, r3, #2
 20005 006c 0360     		str	r3, [r0, #0]
 779:../Libraries/STM32F10x_StdPeriph_Driver/src/stm32f10x_can.c ****   uint32_t timeout = INAK_TIMEOUT; 
 20006              		.loc 1 779 0
 20007 006e 4FF6FF73 		movw	r3, #65535
 829:../Libraries/STM32F10x_StdPeriph_Driver/src/stm32f10x_can.c ****     while (((CANx->MSR & CAN_MODE_MASK) != CAN_MSR_SLAK) && (timeout!=0))
 20008              		.loc 1 829 0
 20009 0072 00E0     		b	.L115
 20010              	.LVL56:
 20011              	.L117:
 831:../Libraries/STM32F10x_StdPeriph_Driver/src/stm32f10x_can.c ****       timeout--;
 20012              		.loc 1 831 0
 20013 0074 013B     		subs	r3, r3, #1
 20014              	.LVL57:
 20015              	.L115:
 829:../Libraries/STM32F10x_StdPeriph_Driver/src/stm32f10x_can.c ****     while (((CANx->MSR & CAN_MODE_MASK) != CAN_MSR_SLAK) && (timeout!=0))
 20016              		.loc 1 829 0 discriminator 1
 20017 0076 4268     		ldr	r2, [r0, #4]
 20018 0078 02F00302 		and	r2, r2, #3
 20019 007c 022A     		cmp	r2, #2
 20020 007e 01D0     		beq	.L116
 829:../Libraries/STM32F10x_StdPeriph_Driver/src/stm32f10x_can.c ****     while (((CANx->MSR & CAN_MODE_MASK) != CAN_MSR_SLAK) && (timeout!=0))
 20021              		.loc 1 829 0 is_stmt 0 discriminator 2
 20022 0080 002B     		cmp	r3, #0
 20023 0082 F7D1     		bne	.L117
 20024              	.L116:
 833:../Libraries/STM32F10x_StdPeriph_Driver/src/stm32f10x_can.c ****     if ((CANx->MSR & CAN_MODE_MASK) != CAN_MSR_SLAK)
 20025              		.loc 1 833 0 is_stmt 1
 20026 0084 4068     		ldr	r0, [r0, #4]
 20027              	.LVL58:
 20028 0086 00F00300 		and	r0, r0, #3
 801:../Libraries/STM32F10x_StdPeriph_Driver/src/stm32f10x_can.c ****       status = CAN_ModeStatus_Success;
 20029              		.loc 1 801 0
 20030 008a 0228     		cmp	r0, #2
 20031              	.L119:
 20032 008c 14BF     		ite	ne
 20033 008e 0020     		movne	r0, #0
 20034 0090 0120     		moveq	r0, #1
 20035 0092 7047     		bx	lr
 20036              	.LVL59:
 20037              	.L118:
 844:../Libraries/STM32F10x_StdPeriph_Driver/src/stm32f10x_can.c ****     status = CAN_ModeStatus_Failed;
 20038              		.loc 1 844 0
 20039 0094 0020     		movs	r0, #0
 20040              	.LVL60:
 848:../Libraries/STM32F10x_StdPeriph_Driver/src/stm32f10x_can.c **** }
 20041              		.loc 1 848 0
 20042 0096 7047     		bx	lr
 20043              		.cfi_endproc
 20044              	.LFE42:
 20046              		.section	.text.CAN_Sleep,"ax",%progbits
 20047              		.align	1
 20048              		.global	CAN_Sleep
 20049              		.thumb
 20050              		.thumb_func
 20052              	CAN_Sleep:
 20053              	.LFB43:
 857:../Libraries/STM32F10x_StdPeriph_Driver/src/stm32f10x_can.c **** {
 20054              		.loc 1 857 0
 20055              		.cfi_startproc
 20056              		@ args = 0, pretend = 0, frame = 0
 20057              		@ frame_needed = 0, uses_anonymous_args = 0
 20058              		@ link register save eliminated.
 20059              	.LVL61:
 864:../Libraries/STM32F10x_StdPeriph_Driver/src/stm32f10x_can.c ****    CANx->MCR = (((CANx->MCR) & (uint32_t)(~(uint32_t)CAN_MCR_INRQ)) | CAN_MCR_SLEEP);
 20060              		.loc 1 864 0
 20061 0000 0368     		ldr	r3, [r0, #0]
 20062 0002 23F00303 		bic	r3, r3, #3
 20063 0006 43F00203 		orr	r3, r3, #2
 20064 000a 0360     		str	r3, [r0, #0]
 867:../Libraries/STM32F10x_StdPeriph_Driver/src/stm32f10x_can.c ****   if ((CANx->MSR & (CAN_MSR_SLAK|CAN_MSR_INAK)) == CAN_MSR_SLAK)
 20065              		.loc 1 867 0
 20066 000c 4068     		ldr	r0, [r0, #4]
 20067              	.LVL62:
 20068 000e 00F00300 		and	r0, r0, #3
 20069              	.LVL63:
 874:../Libraries/STM32F10x_StdPeriph_Driver/src/stm32f10x_can.c **** }
 20070              		.loc 1 874 0
 20071 0012 A0F10203 		sub	r3, r0, #2
 20072 0016 5842     		rsbs	r0, r3, #0
 20073 0018 40EB0300 		adc	r0, r0, r3
 20074 001c 7047     		bx	lr
 20075              		.cfi_endproc
 20076              	.LFE43:
 20078              		.section	.text.CAN_WakeUp,"ax",%progbits
 20079              		.align	1
 20080              		.global	CAN_WakeUp
 20081              		.thumb
 20082              		.thumb_func
 20084              	CAN_WakeUp:
 20085              	.LFB44:
 883:../Libraries/STM32F10x_StdPeriph_Driver/src/stm32f10x_can.c **** {
 20086              		.loc 1 883 0
 20087              		.cfi_startproc
 20088              		@ args = 0, pretend = 0, frame = 0
 20089              		@ frame_needed = 0, uses_anonymous_args = 0
 20090              		@ link register save eliminated.
 20091              	.LVL64:
 891:../Libraries/STM32F10x_StdPeriph_Driver/src/stm32f10x_can.c ****   CANx->MCR &= ~(uint32_t)CAN_MCR_SLEEP;
 20092              		.loc 1 891 0
 20093 0000 0368     		ldr	r3, [r0, #0]
 20094 0002 23F00203 		bic	r3, r3, #2
 20095 0006 0360     		str	r3, [r0, #0]
 884:../Libraries/STM32F10x_StdPeriph_Driver/src/stm32f10x_can.c ****   uint32_t wait_slak = SLAK_TIMEOUT;
 20096              		.loc 1 884 0
 20097 0008 4FF6FF73 		movw	r3, #65535
 894:../Libraries/STM32F10x_StdPeriph_Driver/src/stm32f10x_can.c ****   while(((CANx->MSR & CAN_MSR_SLAK) == CAN_MSR_SLAK)&&(wait_slak!=0x00))
 20098              		.loc 1 894 0
 20099 000c 00E0     		b	.L122
 20100              	.LVL65:
 20101              	.L124:
 896:../Libraries/STM32F10x_StdPeriph_Driver/src/stm32f10x_can.c ****    wait_slak--;
 20102              		.loc 1 896 0
 20103 000e 013B     		subs	r3, r3, #1
 20104              	.LVL66:
 20105              	.L122:
 894:../Libraries/STM32F10x_StdPeriph_Driver/src/stm32f10x_can.c ****   while(((CANx->MSR & CAN_MSR_SLAK) == CAN_MSR_SLAK)&&(wait_slak!=0x00))
 20106              		.loc 1 894 0 discriminator 1
 20107 0010 4268     		ldr	r2, [r0, #4]
 20108 0012 12F0020F 		tst	r2, #2
 20109 0016 01D0     		beq	.L123
 894:../Libraries/STM32F10x_StdPeriph_Driver/src/stm32f10x_can.c ****   while(((CANx->MSR & CAN_MSR_SLAK) == CAN_MSR_SLAK)&&(wait_slak!=0x00))
 20110              		.loc 1 894 0 is_stmt 0 discriminator 2
 20111 0018 002B     		cmp	r3, #0
 20112 001a F8D1     		bne	.L124
 20113              	.L123:
 898:../Libraries/STM32F10x_StdPeriph_Driver/src/stm32f10x_can.c ****   if((CANx->MSR & CAN_MSR_SLAK) != CAN_MSR_SLAK)
 20114              		.loc 1 898 0 is_stmt 1
 20115 001c 4068     		ldr	r0, [r0, #4]
 20116              	.LVL67:
 20117 001e 00F00200 		and	r0, r0, #2
 20118              	.LVL68:
 905:../Libraries/STM32F10x_StdPeriph_Driver/src/stm32f10x_can.c **** }
 20119              		.loc 1 905 0
 20120 0022 D0F10100 		rsbs	r0, r0, #1
 20121 0026 38BF     		it	cc
 20122 0028 0020     		movcc	r0, #0
 20123 002a 7047     		bx	lr
 20124              		.cfi_endproc
 20125              	.LFE44:
 20127              		.section	.text.CAN_GetLastErrorCode,"ax",%progbits
 20128              		.align	1
 20129              		.global	CAN_GetLastErrorCode
 20130              		.thumb
 20131              		.thumb_func
 20133              	CAN_GetLastErrorCode:
 20134              	.LFB45:
 923:../Libraries/STM32F10x_StdPeriph_Driver/src/stm32f10x_can.c **** {
 20135              		.loc 1 923 0
 20136              		.cfi_startproc
 20137              		@ args = 0, pretend = 0, frame = 0
 20138              		@ frame_needed = 0, uses_anonymous_args = 0
 20139              		@ link register save eliminated.
 20140              	.LVL69:
 930:../Libraries/STM32F10x_StdPeriph_Driver/src/stm32f10x_can.c ****   errorcode = (((uint8_t)CANx->ESR) & (uint8_t)CAN_ESR_LEC);
 20141              		.loc 1 930 0
 20142 0000 8069     		ldr	r0, [r0, #24]
 20143              	.LVL70:
 934:../Libraries/STM32F10x_StdPeriph_Driver/src/stm32f10x_can.c **** }
 20144              		.loc 1 934 0
 20145 0002 00F07000 		and	r0, r0, #112
 20146              	.LVL71:
 20147 0006 7047     		bx	lr
 20148              		.cfi_endproc
 20149              	.LFE45:
 20151              		.section	.text.CAN_GetReceiveErrorCounter,"ax",%progbits
 20152              		.align	1
 20153              		.global	CAN_GetReceiveErrorCounter
 20154              		.thumb
 20155              		.thumb_func
 20157              	CAN_GetReceiveErrorCounter:
 20158              	.LFB46:
 947:../Libraries/STM32F10x_StdPeriph_Driver/src/stm32f10x_can.c **** {
 20159              		.loc 1 947 0
 20160              		.cfi_startproc
 20161              		@ args = 0, pretend = 0, frame = 0
 20162              		@ frame_needed = 0, uses_anonymous_args = 0
 20163              		@ link register save eliminated.
 20164              	.LVL72:
 954:../Libraries/STM32F10x_StdPeriph_Driver/src/stm32f10x_can.c ****   counter = (uint8_t)((CANx->ESR & CAN_ESR_REC)>> 24);
 20165              		.loc 1 954 0
 20166 0000 8069     		ldr	r0, [r0, #24]
 20167              	.LVL73:
 958:../Libraries/STM32F10x_StdPeriph_Driver/src/stm32f10x_can.c **** }
 20168              		.loc 1 958 0
 20169 0002 000E     		lsrs	r0, r0, #24
 20170              	.LVL74:
 20171 0004 7047     		bx	lr
 20172              		.cfi_endproc
 20173              	.LFE46:
 20175              		.section	.text.CAN_GetLSBTransmitErrorCounter,"ax",%progbits
 20176              		.align	1
 20177              		.global	CAN_GetLSBTransmitErrorCounter
 20178              		.thumb
 20179              		.thumb_func
 20181              	CAN_GetLSBTransmitErrorCounter:
 20182              	.LFB47:
 967:../Libraries/STM32F10x_StdPeriph_Driver/src/stm32f10x_can.c **** {
 20183              		.loc 1 967 0
 20184              		.cfi_startproc
 20185              		@ args = 0, pretend = 0, frame = 0
 20186              		@ frame_needed = 0, uses_anonymous_args = 0
 20187              		@ link register save eliminated.
 20188              	.LVL75:
 974:../Libraries/STM32F10x_StdPeriph_Driver/src/stm32f10x_can.c ****   counter = (uint8_t)((CANx->ESR & CAN_ESR_TEC)>> 16);
 20189              		.loc 1 974 0
 20190 0000 8069     		ldr	r0, [r0, #24]
 20191              	.LVL76:
 20192 0002 00F47F00 		and	r0, r0, #16711680
 20193              	.LVL77:
 978:../Libraries/STM32F10x_StdPeriph_Driver/src/stm32f10x_can.c **** }
 20194              		.loc 1 978 0
 20195 0006 000C     		lsrs	r0, r0, #16
 20196 0008 7047     		bx	lr
 20197              		.cfi_endproc
 20198              	.LFE47:
 20200              		.section	.text.CAN_ITConfig,"ax",%progbits
 20201              		.align	1
 20202              		.global	CAN_ITConfig
 20203              		.thumb
 20204              		.thumb_func
 20206              	CAN_ITConfig:
 20207              	.LFB48:
1004:../Libraries/STM32F10x_StdPeriph_Driver/src/stm32f10x_can.c **** {
 20208              		.loc 1 1004 0
 20209              		.cfi_startproc
 20210              		@ args = 0, pretend = 0, frame = 0
 20211              		@ frame_needed = 0, uses_anonymous_args = 0
 20212              		@ link register save eliminated.
 20213              	.LVL78:
1010:../Libraries/STM32F10x_StdPeriph_Driver/src/stm32f10x_can.c ****   if (NewState != DISABLE)
 20214              		.loc 1 1010 0
 20215 0000 12B1     		cbz	r2, .L129
1013:../Libraries/STM32F10x_StdPeriph_Driver/src/stm32f10x_can.c ****     CANx->IER |= CAN_IT;
 20216              		.loc 1 1013 0
 20217 0002 4369     		ldr	r3, [r0, #20]
 20218 0004 1943     		orrs	r1, r1, r3
 20219              	.LVL79:
 20220 0006 02E0     		b	.L131
 20221              	.LVL80:
 20222              	.L129:
1018:../Libraries/STM32F10x_StdPeriph_Driver/src/stm32f10x_can.c ****     CANx->IER &= ~CAN_IT;
 20223              		.loc 1 1018 0
 20224 0008 4369     		ldr	r3, [r0, #20]
 20225 000a 23EA0101 		bic	r1, r3, r1
 20226              	.LVL81:
 20227              	.L131:
 20228 000e 4161     		str	r1, [r0, #20]
 20229 0010 7047     		bx	lr
 20230              		.cfi_endproc
 20231              	.LFE48:
 20233              		.section	.text.CAN_GetFlagStatus,"ax",%progbits
 20234              		.align	1
 20235              		.global	CAN_GetFlagStatus
 20236              		.thumb
 20237              		.thumb_func
 20239              	CAN_GetFlagStatus:
 20240              	.LFB49:
1044:../Libraries/STM32F10x_StdPeriph_Driver/src/stm32f10x_can.c **** {
 20241              		.loc 1 1044 0
 20242              		.cfi_startproc
 20243              		@ args = 0, pretend = 0, frame = 0
 20244              		@ frame_needed = 0, uses_anonymous_args = 0
 20245              		@ link register save eliminated.
 20246              	.LVL82:
1052:../Libraries/STM32F10x_StdPeriph_Driver/src/stm32f10x_can.c ****   if((CAN_FLAG & CAN_FLAGS_ESR) != (uint32_t)RESET)
 20247              		.loc 1 1052 0
 20248 0000 11F4700F 		tst	r1, #15728640
 20249 0004 01D0     		beq	.L133
1055:../Libraries/STM32F10x_StdPeriph_Driver/src/stm32f10x_can.c ****     if ((CANx->ESR & (CAN_FLAG & 0x000FFFFF)) != (uint32_t)RESET)
 20250              		.loc 1 1055 0
 20251 0006 8369     		ldr	r3, [r0, #24]
 20252 0008 03E0     		b	.L138
 20253              	.L133:
1066:../Libraries/STM32F10x_StdPeriph_Driver/src/stm32f10x_can.c ****   else if((CAN_FLAG & CAN_FLAGS_MSR) != (uint32_t)RESET)
 20254              		.loc 1 1066 0
 20255 000a 11F0807F 		tst	r1, #16777216
 20256 000e 09D0     		beq	.L135
1069:../Libraries/STM32F10x_StdPeriph_Driver/src/stm32f10x_can.c ****     if ((CANx->MSR & (CAN_FLAG & 0x000FFFFF)) != (uint32_t)RESET)
 20257              		.loc 1 1069 0
 20258 0010 4368     		ldr	r3, [r0, #4]
 20259              	.L138:
 20260 0012 23F07F43 		bic	r3, r3, #-16777216
 20261 0016 23F47003 		bic	r3, r3, #15728640
1063:../Libraries/STM32F10x_StdPeriph_Driver/src/stm32f10x_can.c ****       bitstatus = RESET;
 20262              		.loc 1 1063 0
 20263 001a 0B42     		tst	r3, r1
 20264 001c 0CBF     		ite	eq
 20265 001e 0020     		moveq	r0, #0
 20266 0020 0120     		movne	r0, #1
 20267              	.LVL83:
 20268 0022 7047     		bx	lr
 20269              	.LVL84:
 20270              	.L135:
1080:../Libraries/STM32F10x_StdPeriph_Driver/src/stm32f10x_can.c ****   else if((CAN_FLAG & CAN_FLAGS_TSR) != (uint32_t)RESET)
 20271              		.loc 1 1080 0
 20272 0024 11F0006F 		tst	r1, #134217728
 20273 0028 01D0     		beq	.L136
1083:../Libraries/STM32F10x_StdPeriph_Driver/src/stm32f10x_can.c ****     if ((CANx->TSR & (CAN_FLAG & 0x000FFFFF)) != (uint32_t)RESET)
 20274              		.loc 1 1083 0
 20275 002a 8368     		ldr	r3, [r0, #8]
 20276 002c F1E7     		b	.L138
 20277              	.L136:
1094:../Libraries/STM32F10x_StdPeriph_Driver/src/stm32f10x_can.c ****   else if((CAN_FLAG & CAN_FLAGS_RF0R) != (uint32_t)RESET)
 20278              		.loc 1 1094 0
 20279 002e 11F0007F 		tst	r1, #33554432
 20280 0032 01D0     		beq	.L137
1097:../Libraries/STM32F10x_StdPeriph_Driver/src/stm32f10x_can.c ****     if ((CANx->RF0R & (CAN_FLAG & 0x000FFFFF)) != (uint32_t)RESET)
 20281              		.loc 1 1097 0
 20282 0034 C368     		ldr	r3, [r0, #12]
 20283 0036 ECE7     		b	.L138
 20284              	.L137:
1111:../Libraries/STM32F10x_StdPeriph_Driver/src/stm32f10x_can.c ****     if ((uint32_t)(CANx->RF1R & (CAN_FLAG & 0x000FFFFF)) != (uint32_t)RESET)
 20285              		.loc 1 1111 0
 20286 0038 0369     		ldr	r3, [r0, #16]
 20287 003a 23F07F43 		bic	r3, r3, #-16777216
 20288 003e 23F47003 		bic	r3, r3, #15728640
1063:../Libraries/STM32F10x_StdPeriph_Driver/src/stm32f10x_can.c ****       bitstatus = RESET;
 20289              		.loc 1 1063 0
 20290 0042 0B42     		tst	r3, r1
 20291 0044 0CBF     		ite	eq
 20292 0046 0020     		moveq	r0, #0
 20293 0048 0120     		movne	r0, #1
 20294              	.LVL85:
1124:../Libraries/STM32F10x_StdPeriph_Driver/src/stm32f10x_can.c **** }
 20295              		.loc 1 1124 0
 20296 004a 7047     		bx	lr
 20297              		.cfi_endproc
 20298              	.LFE49:
 20300              		.section	.text.CAN_ClearFlag,"ax",%progbits
 20301              		.align	1
 20302              		.global	CAN_ClearFlag
 20303              		.thumb
 20304              		.thumb_func
 20306              	CAN_ClearFlag:
 20307              	.LFB50:
1144:../Libraries/STM32F10x_StdPeriph_Driver/src/stm32f10x_can.c **** {
 20308              		.loc 1 1144 0
 20309              		.cfi_startproc
 20310              		@ args = 0, pretend = 0, frame = 0
 20311              		@ frame_needed = 0, uses_anonymous_args = 0
 20312              		@ link register save eliminated.
 20313              	.LVL86:
1150:../Libraries/STM32F10x_StdPeriph_Driver/src/stm32f10x_can.c ****   if (CAN_FLAG == CAN_FLAG_LEC) /* ESR register */
 20314              		.loc 1 1150 0
 20315 0000 0C4B     		ldr	r3, .L145
 20316 0002 9942     		cmp	r1, r3
 20317 0004 02D1     		bne	.L140
1153:../Libraries/STM32F10x_StdPeriph_Driver/src/stm32f10x_can.c ****     CANx->ESR = (uint32_t)RESET;
 20318              		.loc 1 1153 0
 20319 0006 0023     		movs	r3, #0
 20320 0008 8361     		str	r3, [r0, #24]
 20321 000a 7047     		bx	lr
 20322              	.L140:
1157:../Libraries/STM32F10x_StdPeriph_Driver/src/stm32f10x_can.c ****     flagtmp = CAN_FLAG & 0x000FFFFF;
 20323              		.loc 1 1157 0
 20324 000c 21F07F43 		bic	r3, r1, #-16777216
1159:../Libraries/STM32F10x_StdPeriph_Driver/src/stm32f10x_can.c ****     if ((CAN_FLAG & CAN_FLAGS_RF0R)!=(uint32_t)RESET)
 20325              		.loc 1 1159 0
 20326 0010 11F0007F 		tst	r1, #33554432
1157:../Libraries/STM32F10x_StdPeriph_Driver/src/stm32f10x_can.c ****     flagtmp = CAN_FLAG & 0x000FFFFF;
 20327              		.loc 1 1157 0
 20328 0014 23F47003 		bic	r3, r3, #15728640
 20329              	.LVL87:
1159:../Libraries/STM32F10x_StdPeriph_Driver/src/stm32f10x_can.c ****     if ((CAN_FLAG & CAN_FLAGS_RF0R)!=(uint32_t)RESET)
 20330              		.loc 1 1159 0
 20331 0018 01D0     		beq	.L142
1162:../Libraries/STM32F10x_StdPeriph_Driver/src/stm32f10x_can.c ****       CANx->RF0R = (uint32_t)(flagtmp);
 20332              		.loc 1 1162 0
 20333 001a C360     		str	r3, [r0, #12]
 20334 001c 7047     		bx	lr
 20335              	.L142:
1164:../Libraries/STM32F10x_StdPeriph_Driver/src/stm32f10x_can.c ****     else if ((CAN_FLAG & CAN_FLAGS_RF1R)!=(uint32_t)RESET)
 20336              		.loc 1 1164 0
 20337 001e 11F0806F 		tst	r1, #67108864
 20338 0022 01D0     		beq	.L143
1167:../Libraries/STM32F10x_StdPeriph_Driver/src/stm32f10x_can.c ****       CANx->RF1R = (uint32_t)(flagtmp);
 20339              		.loc 1 1167 0
 20340 0024 0361     		str	r3, [r0, #16]
 20341 0026 7047     		bx	lr
 20342              	.L143:
1169:../Libraries/STM32F10x_StdPeriph_Driver/src/stm32f10x_can.c ****     else if ((CAN_FLAG & CAN_FLAGS_TSR)!=(uint32_t)RESET)
 20343              		.loc 1 1169 0
 20344 0028 11F0006F 		tst	r1, #134217728
1172:../Libraries/STM32F10x_StdPeriph_Driver/src/stm32f10x_can.c ****       CANx->TSR = (uint32_t)(flagtmp);
 20345              		.loc 1 1172 0
 20346 002c 14BF     		ite	ne
 20347 002e 8360     		strne	r3, [r0, #8]
1177:../Libraries/STM32F10x_StdPeriph_Driver/src/stm32f10x_can.c ****       CANx->MSR = (uint32_t)(flagtmp);
 20348              		.loc 1 1177 0
 20349 0030 4360     		streq	r3, [r0, #4]
 20350 0032 7047     		bx	lr
 20351              	.L146:
 20352              		.align	2
 20353              	.L145:
 20354 0034 7000F030 		.word	821035120
 20355              		.cfi_endproc
 20356              	.LFE50:
 20358              		.section	.text.CAN_GetITStatus,"ax",%progbits
 20359              		.align	1
 20360              		.global	CAN_GetITStatus
 20361              		.thumb
 20362              		.thumb_func
 20364              	CAN_GetITStatus:
 20365              	.LFB51:
1204:../Libraries/STM32F10x_StdPeriph_Driver/src/stm32f10x_can.c **** {
 20366              		.loc 1 1204 0
 20367              		.cfi_startproc
 20368              		@ args = 0, pretend = 0, frame = 0
 20369              		@ frame_needed = 0, uses_anonymous_args = 0
 20370              		@ link register save eliminated.
 20371              	.LVL88:
1211:../Libraries/STM32F10x_StdPeriph_Driver/src/stm32f10x_can.c ****  if((CANx->IER & CAN_IT) != RESET)
 20372              		.loc 1 1211 0
 20373 0000 4369     		ldr	r3, [r0, #20]
 20374 0002 0B40     		ands	r3, r1, r3
 20375 0004 4ED0     		beq	.L166
1214:../Libraries/STM32F10x_StdPeriph_Driver/src/stm32f10x_can.c ****     switch (CAN_IT)
 20376              		.loc 1 1214 0
 20377 0006 4029     		cmp	r1, #64
 20378 0008 35D0     		beq	.L155
 20379 000a 0ED8     		bhi	.L163
 20380 000c 0429     		cmp	r1, #4
 20381 000e 29D0     		beq	.L151
 20382 0010 04D8     		bhi	.L164
 20383 0012 0129     		cmp	r1, #1
 20384 0014 21D0     		beq	.L149
 20385 0016 0229     		cmp	r1, #2
 20386 0018 46D1     		bne	.L167
 20387 001a 21E0     		b	.L173
 20388              	.L164:
 20389 001c 1029     		cmp	r1, #16
 20390 001e 25D0     		beq	.L153
 20391 0020 2029     		cmp	r1, #32
 20392 0022 26D0     		beq	.L154
 20393 0024 0829     		cmp	r1, #8
 20394 0026 3FD1     		bne	.L167
 20395 0028 1EE0     		b	.L174
 20396              	.L163:
 20397 002a B1F5006F 		cmp	r1, #2048
 20398 002e 32D0     		beq	.L159
 20399 0030 09D8     		bhi	.L165
 20400 0032 B1F5007F 		cmp	r1, #512
 20401 0036 29D0     		beq	.L157
 20402 0038 B1F5806F 		cmp	r1, #1024
 20403 003c 29D0     		beq	.L158
 20404 003e B1F5807F 		cmp	r1, #256
 20405 0042 31D1     		bne	.L167
 20406 0044 1FE0     		b	.L175
 20407              	.L165:
 20408 0046 B1F5803F 		cmp	r1, #65536
 20409 004a 16D0     		beq	.L161
 20410 004c B1F5003F 		cmp	r1, #131072
 20411 0050 16D0     		beq	.L162
 20412 0052 B1F5004F 		cmp	r1, #32768
 20413 0056 27D1     		bne	.L167
 20414 0058 20E0     		b	.L176
 20415              	.L149:
1218:../Libraries/STM32F10x_StdPeriph_Driver/src/stm32f10x_can.c **** 	             itstatus = CheckITStatus(CANx->TSR, CAN_TSR_RQCP0|CAN_TSR_RQCP1|CAN_TSR_RQCP2);  
 20416              		.loc 1 1218 0
 20417 005a 8068     		ldr	r0, [r0, #8]
 20418              	.LVL89:
 20419 005c 1349     		ldr	r1, .L177
 20420              	.LVL90:
 20421 005e 1FE0     		b	.L168
 20422              	.LVL91:
 20423              	.L173:
1222:../Libraries/STM32F10x_StdPeriph_Driver/src/stm32f10x_can.c **** 	             itstatus = CheckITStatus(CANx->RF0R, CAN_RF0R_FMP0);  
 20424              		.loc 1 1222 0
 20425 0060 C068     		ldr	r0, [r0, #12]
 20426              	.LVL92:
 20427 0062 04E0     		b	.L169
 20428              	.LVL93:
 20429              	.L151:
1226:../Libraries/STM32F10x_StdPeriph_Driver/src/stm32f10x_can.c ****                itstatus = CheckITStatus(CANx->RF0R, CAN_RF0R_FULL0);  
 20430              		.loc 1 1226 0
 20431 0064 C068     		ldr	r0, [r0, #12]
 20432              	.LVL94:
 20433 0066 09E0     		b	.L171
 20434              	.LVL95:
 20435              	.L174:
1230:../Libraries/STM32F10x_StdPeriph_Driver/src/stm32f10x_can.c ****                itstatus = CheckITStatus(CANx->RF0R, CAN_RF0R_FOVR0);  
 20436              		.loc 1 1230 0
 20437 0068 C068     		ldr	r0, [r0, #12]
 20438              	.LVL96:
 20439 006a 0AE0     		b	.L170
 20440              	.LVL97:
 20441              	.L153:
1234:../Libraries/STM32F10x_StdPeriph_Driver/src/stm32f10x_can.c ****                itstatus = CheckITStatus(CANx->RF1R, CAN_RF1R_FMP1);  
 20442              		.loc 1 1234 0
 20443 006c 0069     		ldr	r0, [r0, #16]
 20444              	.LVL98:
 20445              	.L169:
 20446 006e 0321     		movs	r1, #3
 20447              	.LVL99:
 20448 0070 16E0     		b	.L168
 20449              	.LVL100:
 20450              	.L154:
1238:../Libraries/STM32F10x_StdPeriph_Driver/src/stm32f10x_can.c **** 	             itstatus = CheckITStatus(CANx->RF1R, CAN_RF1R_FULL1);  
 20451              		.loc 1 1238 0
 20452 0072 0069     		ldr	r0, [r0, #16]
 20453              	.LVL101:
 20454 0074 02E0     		b	.L171
 20455              	.LVL102:
 20456              	.L155:
1242:../Libraries/STM32F10x_StdPeriph_Driver/src/stm32f10x_can.c **** 	             itstatus = CheckITStatus(CANx->RF1R, CAN_RF1R_FOVR1);  
 20457              		.loc 1 1242 0
 20458 0076 0069     		ldr	r0, [r0, #16]
 20459              	.LVL103:
 20460 0078 03E0     		b	.L170
 20461              	.LVL104:
 20462              	.L161:
1246:../Libraries/STM32F10x_StdPeriph_Driver/src/stm32f10x_can.c ****                itstatus = CheckITStatus(CANx->MSR, CAN_MSR_WKUI);  
 20463              		.loc 1 1246 0
 20464 007a 4068     		ldr	r0, [r0, #4]
 20465              	.LVL105:
 20466              	.L171:
 20467 007c 0821     		movs	r1, #8
 20468              	.LVL106:
 20469 007e 0FE0     		b	.L168
 20470              	.LVL107:
 20471              	.L162:
1250:../Libraries/STM32F10x_StdPeriph_Driver/src/stm32f10x_can.c **** 	             itstatus = CheckITStatus(CANx->MSR, CAN_MSR_SLAKI);  
 20472              		.loc 1 1250 0
 20473 0080 4068     		ldr	r0, [r0, #4]
 20474              	.LVL108:
 20475              	.L170:
 20476 0082 1021     		movs	r1, #16
 20477              	.LVL109:
 20478 0084 0CE0     		b	.L168
 20479              	.LVL110:
 20480              	.L175:
1254:../Libraries/STM32F10x_StdPeriph_Driver/src/stm32f10x_can.c **** 	             itstatus = CheckITStatus(CANx->ESR, CAN_ESR_EWGF);  
 20481              		.loc 1 1254 0
 20482 0086 8069     		ldr	r0, [r0, #24]
 20483              	.LVL111:
 20484 0088 0121     		movs	r1, #1
 20485              	.LVL112:
 20486 008a 09E0     		b	.L168
 20487              	.LVL113:
 20488              	.L157:
1258:../Libraries/STM32F10x_StdPeriph_Driver/src/stm32f10x_can.c **** 	             itstatus = CheckITStatus(CANx->ESR, CAN_ESR_EPVF);  
 20489              		.loc 1 1258 0
 20490 008c 8069     		ldr	r0, [r0, #24]
 20491              	.LVL114:
 20492 008e 0221     		movs	r1, #2
 20493              	.LVL115:
 20494 0090 06E0     		b	.L168
 20495              	.LVL116:
 20496              	.L158:
1262:../Libraries/STM32F10x_StdPeriph_Driver/src/stm32f10x_can.c **** 	             itstatus = CheckITStatus(CANx->ESR, CAN_ESR_BOFF);  
 20497              		.loc 1 1262 0
 20498 0092 8069     		ldr	r0, [r0, #24]
 20499              	.LVL117:
 20500 0094 03E0     		b	.L172
 20501              	.LVL118:
 20502              	.L159:
1266:../Libraries/STM32F10x_StdPeriph_Driver/src/stm32f10x_can.c **** 	             itstatus = CheckITStatus(CANx->ESR, CAN_ESR_LEC);  
 20503              		.loc 1 1266 0
 20504 0096 8069     		ldr	r0, [r0, #24]
 20505              	.LVL119:
 20506 0098 7021     		movs	r1, #112
 20507              	.LVL120:
 20508 009a 01E0     		b	.L168
 20509              	.LVL121:
 20510              	.L176:
1270:../Libraries/STM32F10x_StdPeriph_Driver/src/stm32f10x_can.c ****                itstatus = CheckITStatus(CANx->MSR, CAN_MSR_ERRI); 
 20511              		.loc 1 1270 0
 20512 009c 4068     		ldr	r0, [r0, #4]
 20513              	.LVL122:
 20514              	.L172:
 20515 009e 0421     		movs	r1, #4
 20516              	.LVL123:
 20517              	.L168:
1286:../Libraries/STM32F10x_StdPeriph_Driver/src/stm32f10x_can.c **** }
 20518              		.loc 1 1286 0
1270:../Libraries/STM32F10x_StdPeriph_Driver/src/stm32f10x_can.c ****                itstatus = CheckITStatus(CANx->MSR, CAN_MSR_ERRI); 
 20519              		.loc 1 1270 0
 20520 00a0 FFF7FEBF 		b	CheckITStatus
 20521              	.LVL124:
 20522              	.L166:
1281:../Libraries/STM32F10x_StdPeriph_Driver/src/stm32f10x_can.c ****     itstatus  = RESET;
 20523              		.loc 1 1281 0
 20524 00a4 1846     		mov	r0, r3
 20525              	.LVL125:
 20526 00a6 7047     		bx	lr
 20527              	.LVL126:
 20528              	.L167:
1274:../Libraries/STM32F10x_StdPeriph_Driver/src/stm32f10x_can.c ****               itstatus = RESET;
 20529              		.loc 1 1274 0
 20530 00a8 0020     		movs	r0, #0
 20531              	.LVL127:
1286:../Libraries/STM32F10x_StdPeriph_Driver/src/stm32f10x_can.c **** }
 20532              		.loc 1 1286 0
 20533 00aa 7047     		bx	lr
 20534              	.L178:
 20535              		.align	2
 20536              	.L177:
 20537 00ac 01010100 		.word	65793
 20538              		.cfi_endproc
 20539              	.LFE51:
 20541              		.section	.text.CAN_ClearITPendingBit,"ax",%progbits
 20542              		.align	1
 20543              		.global	CAN_ClearITPendingBit
 20544              		.thumb
 20545              		.thumb_func
 20547              	CAN_ClearITPendingBit:
 20548              	.LFB52:
1307:../Libraries/STM32F10x_StdPeriph_Driver/src/stm32f10x_can.c **** {
 20549              		.loc 1 1307 0
 20550              		.cfi_startproc
 20551              		@ args = 0, pretend = 0, frame = 0
 20552              		@ frame_needed = 0, uses_anonymous_args = 0
 20553              		@ link register save eliminated.
 20554              	.LVL128:
1312:../Libraries/STM32F10x_StdPeriph_Driver/src/stm32f10x_can.c ****   switch (CAN_IT)
 20555              		.loc 1 1312 0
 20556 0000 B1F5807F 		cmp	r1, #256
 20557 0004 33D0     		beq	.L188
 20558 0006 0CD8     		bhi	.L193
 20559 0008 0829     		cmp	r1, #8
 20560 000a 24D0     		beq	.L183
 20561 000c 04D8     		bhi	.L194
 20562 000e 0129     		cmp	r1, #1
 20563 0010 1CD0     		beq	.L181
 20564 0012 0429     		cmp	r1, #4
 20565 0014 36D1     		bne	.L179
 20566 0016 1CE0     		b	.L199
 20567              	.L194:
 20568 0018 2029     		cmp	r1, #32
 20569 001a 1FD0     		beq	.L184
 20570 001c 4029     		cmp	r1, #64
 20571 001e 31D1     		bne	.L179
 20572 0020 1EE0     		b	.L200
 20573              	.L193:
 20574 0022 B1F5006F 		cmp	r1, #2048
 20575 0026 24D0     		beq	.L189
 20576 0028 06D8     		bhi	.L195
 20577 002a B1F5007F 		cmp	r1, #512
 20578 002e 1ED0     		beq	.L188
 20579 0030 B1F5806F 		cmp	r1, #1024
 20580 0034 26D1     		bne	.L179
 20581 0036 1AE0     		b	.L188
 20582              	.L195:
 20583 0038 B1F5803F 		cmp	r1, #65536
 20584 003c 13D0     		beq	.L191
 20585 003e B1F5003F 		cmp	r1, #131072
 20586 0042 12D0     		beq	.L192
 20587 0044 B1F5004F 		cmp	r1, #32768
 20588 0048 1CD1     		bne	.L179
 20589 004a 17E0     		b	.L201
 20590              	.L181:
1316:../Libraries/STM32F10x_StdPeriph_Driver/src/stm32f10x_can.c **** 	      CANx->TSR = CAN_TSR_RQCP0|CAN_TSR_RQCP1|CAN_TSR_RQCP2;  
 20591              		.loc 1 1316 0
 20592 004c 0E4B     		ldr	r3, .L202
 20593 004e 8360     		str	r3, [r0, #8]
1317:../Libraries/STM32F10x_StdPeriph_Driver/src/stm32f10x_can.c **** 	      break;
 20594              		.loc 1 1317 0
 20595 0050 7047     		bx	lr
 20596              	.L199:
1320:../Libraries/STM32F10x_StdPeriph_Driver/src/stm32f10x_can.c **** 	      CANx->RF0R = CAN_RF0R_FULL0; 
 20597              		.loc 1 1320 0
 20598 0052 0823     		movs	r3, #8
 20599 0054 00E0     		b	.L197
 20600              	.L183:
1324:../Libraries/STM32F10x_StdPeriph_Driver/src/stm32f10x_can.c **** 	      CANx->RF0R = CAN_RF0R_FOVR0; 
 20601              		.loc 1 1324 0
 20602 0056 1023     		movs	r3, #16
 20603              	.L197:
 20604 0058 C360     		str	r3, [r0, #12]
1325:../Libraries/STM32F10x_StdPeriph_Driver/src/stm32f10x_can.c **** 	      break;
 20605              		.loc 1 1325 0
 20606 005a 7047     		bx	lr
 20607              	.L184:
1328:../Libraries/STM32F10x_StdPeriph_Driver/src/stm32f10x_can.c **** 	      CANx->RF1R = CAN_RF1R_FULL1;  
 20608              		.loc 1 1328 0
 20609 005c 0823     		movs	r3, #8
 20610 005e 00E0     		b	.L198
 20611              	.L200:
1332:../Libraries/STM32F10x_StdPeriph_Driver/src/stm32f10x_can.c **** 	      CANx->RF1R = CAN_RF1R_FOVR1; 
 20612              		.loc 1 1332 0
 20613 0060 1023     		movs	r3, #16
 20614              	.L198:
 20615 0062 0361     		str	r3, [r0, #16]
1333:../Libraries/STM32F10x_StdPeriph_Driver/src/stm32f10x_can.c **** 	      break;
 20616              		.loc 1 1333 0
 20617 0064 7047     		bx	lr
 20618              	.L191:
1336:../Libraries/STM32F10x_StdPeriph_Driver/src/stm32f10x_can.c **** 	      CANx->MSR = CAN_MSR_WKUI;  
 20619              		.loc 1 1336 0
 20620 0066 0823     		movs	r3, #8
 20621 0068 06E0     		b	.L196
 20622              	.L192:
1340:../Libraries/STM32F10x_StdPeriph_Driver/src/stm32f10x_can.c **** 	      CANx->MSR = CAN_MSR_SLAKI;   
 20623              		.loc 1 1340 0
 20624 006a 1023     		movs	r3, #16
 20625 006c 04E0     		b	.L196
 20626              	.L188:
1356:../Libraries/STM32F10x_StdPeriph_Driver/src/stm32f10x_can.c **** 	      CANx->MSR = CAN_MSR_ERRI; 
 20627              		.loc 1 1356 0
 20628 006e 0423     		movs	r3, #4
 20629 0070 02E0     		b	.L196
 20630              	.L189:
1362:../Libraries/STM32F10x_StdPeriph_Driver/src/stm32f10x_can.c **** 	      CANx->ESR = RESET; 
 20631              		.loc 1 1362 0
 20632 0072 0023     		movs	r3, #0
 20633 0074 8361     		str	r3, [r0, #24]
1364:../Libraries/STM32F10x_StdPeriph_Driver/src/stm32f10x_can.c **** 	      CANx->MSR = CAN_MSR_ERRI; 
 20634              		.loc 1 1364 0
 20635 0076 0433     		adds	r3, r3, #4
 20636              	.L196:
 20637 0078 4360     		str	r3, [r0, #4]
1365:../Libraries/STM32F10x_StdPeriph_Driver/src/stm32f10x_can.c **** 	      break;
 20638              		.loc 1 1365 0
 20639 007a 7047     		bx	lr
 20640              	.L201:
1368:../Libraries/STM32F10x_StdPeriph_Driver/src/stm32f10x_can.c **** 	      CANx->ESR = RESET; 
 20641              		.loc 1 1368 0
 20642 007c 0023     		movs	r3, #0
 20643 007e 8361     		str	r3, [r0, #24]
1370:../Libraries/STM32F10x_StdPeriph_Driver/src/stm32f10x_can.c **** 	      CANx->MSR = CAN_MSR_ERRI; 
 20644              		.loc 1 1370 0
 20645 0080 0433     		adds	r3, r3, #4
 20646 0082 4360     		str	r3, [r0, #4]
 20647              	.L179:
 20648 0084 7047     		bx	lr
 20649              	.L203:
 20650 0086 00BF     		.align	2
 20651              	.L202:
 20652 0088 01010100 		.word	65793
 20653              		.cfi_endproc
 20654              	.LFE52:
 20656              		.text
 20657              	.Letext0:
DEFINED SYMBOLS
                            *ABS*:00000000 stm32f10x_can.c
     /tmp/ccTx9pwy.s:18882  .text.CheckITStatus:00000000 $t
     /tmp/ccTx9pwy.s:18886  .text.CheckITStatus:00000000 CheckITStatus
     /tmp/ccTx9pwy.s:18906  .text.CAN_DeInit:00000000 $t
     /tmp/ccTx9pwy.s:18911  .text.CAN_DeInit:00000000 CAN_DeInit
     /tmp/ccTx9pwy.s:18955  .text.CAN_DeInit:00000030 $d
     /tmp/ccTx9pwy.s:18960  .text.CAN_Init:00000000 $t
     /tmp/ccTx9pwy.s:18965  .text.CAN_Init:00000000 CAN_Init
     /tmp/ccTx9pwy.s:19128  .text.CAN_FilterInit:00000000 $t
     /tmp/ccTx9pwy.s:19133  .text.CAN_FilterInit:00000000 CAN_FilterInit
     /tmp/ccTx9pwy.s:19287  .text.CAN_FilterInit:000000e8 $d
     /tmp/ccTx9pwy.s:19293  .text.CAN_StructInit:00000000 $t
     /tmp/ccTx9pwy.s:19298  .text.CAN_StructInit:00000000 CAN_StructInit
     /tmp/ccTx9pwy.s:19338  .text.CAN_SlaveStartBank:00000000 $t
     /tmp/ccTx9pwy.s:19343  .text.CAN_SlaveStartBank:00000000 CAN_SlaveStartBank
     /tmp/ccTx9pwy.s:19374  .text.CAN_SlaveStartBank:00000038 $d
     /tmp/ccTx9pwy.s:19379  .text.CAN_DBGFreeze:00000000 $t
     /tmp/ccTx9pwy.s:19384  .text.CAN_DBGFreeze:00000000 CAN_DBGFreeze
     /tmp/ccTx9pwy.s:19409  .text.CAN_TTComModeCmd:00000000 $t
     /tmp/ccTx9pwy.s:19414  .text.CAN_TTComModeCmd:00000000 CAN_TTComModeCmd
     /tmp/ccTx9pwy.s:19463  .text.CAN_Transmit:00000000 $t
     /tmp/ccTx9pwy.s:19468  .text.CAN_Transmit:00000000 CAN_Transmit
     /tmp/ccTx9pwy.s:19609  .text.CAN_TransmitStatus:00000000 $t
     /tmp/ccTx9pwy.s:19614  .text.CAN_TransmitStatus:00000000 CAN_TransmitStatus
     /tmp/ccTx9pwy.s:19691  .text.CAN_TransmitStatus:0000004c $d
     /tmp/ccTx9pwy.s:19698  .text.CAN_CancelTransmit:00000000 $t
     /tmp/ccTx9pwy.s:19703  .text.CAN_CancelTransmit:00000000 CAN_CancelTransmit
     /tmp/ccTx9pwy.s:19742  .text.CAN_Receive:00000000 $t
     /tmp/ccTx9pwy.s:19747  .text.CAN_Receive:00000000 CAN_Receive
     /tmp/ccTx9pwy.s:19842  .text.CAN_FIFORelease:00000000 $t
     /tmp/ccTx9pwy.s:19847  .text.CAN_FIFORelease:00000000 CAN_FIFORelease
     /tmp/ccTx9pwy.s:19872  .text.CAN_MessagePending:00000000 $t
     /tmp/ccTx9pwy.s:19877  .text.CAN_MessagePending:00000000 CAN_MessagePending
     /tmp/ccTx9pwy.s:19914  .text.CAN_OperatingModeRequest:00000000 $t
     /tmp/ccTx9pwy.s:19919  .text.CAN_OperatingModeRequest:00000000 CAN_OperatingModeRequest
     /tmp/ccTx9pwy.s:20047  .text.CAN_Sleep:00000000 $t
     /tmp/ccTx9pwy.s:20052  .text.CAN_Sleep:00000000 CAN_Sleep
     /tmp/ccTx9pwy.s:20079  .text.CAN_WakeUp:00000000 $t
     /tmp/ccTx9pwy.s:20084  .text.CAN_WakeUp:00000000 CAN_WakeUp
     /tmp/ccTx9pwy.s:20128  .text.CAN_GetLastErrorCode:00000000 $t
     /tmp/ccTx9pwy.s:20133  .text.CAN_GetLastErrorCode:00000000 CAN_GetLastErrorCode
     /tmp/ccTx9pwy.s:20152  .text.CAN_GetReceiveErrorCounter:00000000 $t
     /tmp/ccTx9pwy.s:20157  .text.CAN_GetReceiveErrorCounter:00000000 CAN_GetReceiveErrorCounter
     /tmp/ccTx9pwy.s:20176  .text.CAN_GetLSBTransmitErrorCounter:00000000 $t
     /tmp/ccTx9pwy.s:20181  .text.CAN_GetLSBTransmitErrorCounter:00000000 CAN_GetLSBTransmitErrorCounter
     /tmp/ccTx9pwy.s:20201  .text.CAN_ITConfig:00000000 $t
     /tmp/ccTx9pwy.s:20206  .text.CAN_ITConfig:00000000 CAN_ITConfig
     /tmp/ccTx9pwy.s:20234  .text.CAN_GetFlagStatus:00000000 $t
     /tmp/ccTx9pwy.s:20239  .text.CAN_GetFlagStatus:00000000 CAN_GetFlagStatus
     /tmp/ccTx9pwy.s:20301  .text.CAN_ClearFlag:00000000 $t
     /tmp/ccTx9pwy.s:20306  .text.CAN_ClearFlag:00000000 CAN_ClearFlag
     /tmp/ccTx9pwy.s:20354  .text.CAN_ClearFlag:00000034 $d
     /tmp/ccTx9pwy.s:20359  .text.CAN_GetITStatus:00000000 $t
     /tmp/ccTx9pwy.s:20364  .text.CAN_GetITStatus:00000000 CAN_GetITStatus
     /tmp/ccTx9pwy.s:20537  .text.CAN_GetITStatus:000000ac $d
     /tmp/ccTx9pwy.s:20542  .text.CAN_ClearITPendingBit:00000000 $t
     /tmp/ccTx9pwy.s:20547  .text.CAN_ClearITPendingBit:00000000 CAN_ClearITPendingBit
     /tmp/ccTx9pwy.s:20652  .text.CAN_ClearITPendingBit:00000088 $d
                     .debug_frame:00000010 $d

UNDEFINED SYMBOLS
RCC_APB1PeriphResetCmd
