   1              		.syntax unified
   2              		.cpu cortex-m3
   3              		.fpu softvfp
   4              		.eabi_attribute 20, 1
   5              		.eabi_attribute 21, 1
   6              		.eabi_attribute 23, 3
   7              		.eabi_attribute 24, 1
   8              		.eabi_attribute 25, 1
   9              		.eabi_attribute 26, 1
  10              		.eabi_attribute 30, 4
  11              		.eabi_attribute 18, 4
  12              		.thumb
  13              		.file	"stm32f10x_exti.c"
  23              	.Ltext0:
  24              		.file 1 "../Libraries/STM32F10x_StdPeriph_Driver/src/stm32f10x_exti.c"
 18381              		.align	1
 18382              		.global	EXTI_DeInit
 18383              		.thumb
 18384              		.thumb_func
 18386              	EXTI_DeInit:
 18387              	.LFB29:
   1:../Libraries/STM32F10x_StdPeriph_Driver/src/stm32f10x_exti.c **** /**
   2:../Libraries/STM32F10x_StdPeriph_Driver/src/stm32f10x_exti.c ****   ******************************************************************************
   3:../Libraries/STM32F10x_StdPeriph_Driver/src/stm32f10x_exti.c ****   * @file    stm32f10x_exti.c
   4:../Libraries/STM32F10x_StdPeriph_Driver/src/stm32f10x_exti.c ****   * @author  MCD Application Team
   5:../Libraries/STM32F10x_StdPeriph_Driver/src/stm32f10x_exti.c ****   * @version V3.5.0
   6:../Libraries/STM32F10x_StdPeriph_Driver/src/stm32f10x_exti.c ****   * @date    11-March-2011
   7:../Libraries/STM32F10x_StdPeriph_Driver/src/stm32f10x_exti.c ****   * @brief   This file provides all the EXTI firmware functions.
   8:../Libraries/STM32F10x_StdPeriph_Driver/src/stm32f10x_exti.c ****   ******************************************************************************
   9:../Libraries/STM32F10x_StdPeriph_Driver/src/stm32f10x_exti.c ****   * @attention
  10:../Libraries/STM32F10x_StdPeriph_Driver/src/stm32f10x_exti.c ****   *
  11:../Libraries/STM32F10x_StdPeriph_Driver/src/stm32f10x_exti.c ****   * THE PRESENT FIRMWARE WHICH IS FOR GUIDANCE ONLY AIMS AT PROVIDING CUSTOMERS
  12:../Libraries/STM32F10x_StdPeriph_Driver/src/stm32f10x_exti.c ****   * WITH CODING INFORMATION REGARDING THEIR PRODUCTS IN ORDER FOR THEM TO SAVE
  13:../Libraries/STM32F10x_StdPeriph_Driver/src/stm32f10x_exti.c ****   * TIME. AS A RESULT, STMICROELECTRONICS SHALL NOT BE HELD LIABLE FOR ANY
  14:../Libraries/STM32F10x_StdPeriph_Driver/src/stm32f10x_exti.c ****   * DIRECT, INDIRECT OR CONSEQUENTIAL DAMAGES WITH RESPECT TO ANY CLAIMS ARISING
  15:../Libraries/STM32F10x_StdPeriph_Driver/src/stm32f10x_exti.c ****   * FROM THE CONTENT OF SUCH FIRMWARE AND/OR THE USE MADE BY CUSTOMERS OF THE
  16:../Libraries/STM32F10x_StdPeriph_Driver/src/stm32f10x_exti.c ****   * CODING INFORMATION CONTAINED HEREIN IN CONNECTION WITH THEIR PRODUCTS.
  17:../Libraries/STM32F10x_StdPeriph_Driver/src/stm32f10x_exti.c ****   *
  18:../Libraries/STM32F10x_StdPeriph_Driver/src/stm32f10x_exti.c ****   * <h2><center>&copy; COPYRIGHT 2011 STMicroelectronics</center></h2>
  19:../Libraries/STM32F10x_StdPeriph_Driver/src/stm32f10x_exti.c ****   ******************************************************************************
  20:../Libraries/STM32F10x_StdPeriph_Driver/src/stm32f10x_exti.c ****   */
  21:../Libraries/STM32F10x_StdPeriph_Driver/src/stm32f10x_exti.c **** 
  22:../Libraries/STM32F10x_StdPeriph_Driver/src/stm32f10x_exti.c **** /* Includes ------------------------------------------------------------------*/
  23:../Libraries/STM32F10x_StdPeriph_Driver/src/stm32f10x_exti.c **** #include "stm32f10x_exti.h"
  24:../Libraries/STM32F10x_StdPeriph_Driver/src/stm32f10x_exti.c **** 
  25:../Libraries/STM32F10x_StdPeriph_Driver/src/stm32f10x_exti.c **** /** @addtogroup STM32F10x_StdPeriph_Driver
  26:../Libraries/STM32F10x_StdPeriph_Driver/src/stm32f10x_exti.c ****   * @{
  27:../Libraries/STM32F10x_StdPeriph_Driver/src/stm32f10x_exti.c ****   */
  28:../Libraries/STM32F10x_StdPeriph_Driver/src/stm32f10x_exti.c **** 
  29:../Libraries/STM32F10x_StdPeriph_Driver/src/stm32f10x_exti.c **** /** @defgroup EXTI 
  30:../Libraries/STM32F10x_StdPeriph_Driver/src/stm32f10x_exti.c ****   * @brief EXTI driver modules
  31:../Libraries/STM32F10x_StdPeriph_Driver/src/stm32f10x_exti.c ****   * @{
  32:../Libraries/STM32F10x_StdPeriph_Driver/src/stm32f10x_exti.c ****   */
  33:../Libraries/STM32F10x_StdPeriph_Driver/src/stm32f10x_exti.c **** 
  34:../Libraries/STM32F10x_StdPeriph_Driver/src/stm32f10x_exti.c **** /** @defgroup EXTI_Private_TypesDefinitions
  35:../Libraries/STM32F10x_StdPeriph_Driver/src/stm32f10x_exti.c ****   * @{
  36:../Libraries/STM32F10x_StdPeriph_Driver/src/stm32f10x_exti.c ****   */
  37:../Libraries/STM32F10x_StdPeriph_Driver/src/stm32f10x_exti.c **** 
  38:../Libraries/STM32F10x_StdPeriph_Driver/src/stm32f10x_exti.c **** /**
  39:../Libraries/STM32F10x_StdPeriph_Driver/src/stm32f10x_exti.c ****   * @}
  40:../Libraries/STM32F10x_StdPeriph_Driver/src/stm32f10x_exti.c ****   */
  41:../Libraries/STM32F10x_StdPeriph_Driver/src/stm32f10x_exti.c **** 
  42:../Libraries/STM32F10x_StdPeriph_Driver/src/stm32f10x_exti.c **** /** @defgroup EXTI_Private_Defines
  43:../Libraries/STM32F10x_StdPeriph_Driver/src/stm32f10x_exti.c ****   * @{
  44:../Libraries/STM32F10x_StdPeriph_Driver/src/stm32f10x_exti.c ****   */
  45:../Libraries/STM32F10x_StdPeriph_Driver/src/stm32f10x_exti.c **** 
  46:../Libraries/STM32F10x_StdPeriph_Driver/src/stm32f10x_exti.c **** #define EXTI_LINENONE    ((uint32_t)0x00000)  /* No interrupt selected */
  47:../Libraries/STM32F10x_StdPeriph_Driver/src/stm32f10x_exti.c **** 
  48:../Libraries/STM32F10x_StdPeriph_Driver/src/stm32f10x_exti.c **** /**
  49:../Libraries/STM32F10x_StdPeriph_Driver/src/stm32f10x_exti.c ****   * @}
  50:../Libraries/STM32F10x_StdPeriph_Driver/src/stm32f10x_exti.c ****   */
  51:../Libraries/STM32F10x_StdPeriph_Driver/src/stm32f10x_exti.c **** 
  52:../Libraries/STM32F10x_StdPeriph_Driver/src/stm32f10x_exti.c **** /** @defgroup EXTI_Private_Macros
  53:../Libraries/STM32F10x_StdPeriph_Driver/src/stm32f10x_exti.c ****   * @{
  54:../Libraries/STM32F10x_StdPeriph_Driver/src/stm32f10x_exti.c ****   */
  55:../Libraries/STM32F10x_StdPeriph_Driver/src/stm32f10x_exti.c **** 
  56:../Libraries/STM32F10x_StdPeriph_Driver/src/stm32f10x_exti.c **** /**
  57:../Libraries/STM32F10x_StdPeriph_Driver/src/stm32f10x_exti.c ****   * @}
  58:../Libraries/STM32F10x_StdPeriph_Driver/src/stm32f10x_exti.c ****   */
  59:../Libraries/STM32F10x_StdPeriph_Driver/src/stm32f10x_exti.c **** 
  60:../Libraries/STM32F10x_StdPeriph_Driver/src/stm32f10x_exti.c **** /** @defgroup EXTI_Private_Variables
  61:../Libraries/STM32F10x_StdPeriph_Driver/src/stm32f10x_exti.c ****   * @{
  62:../Libraries/STM32F10x_StdPeriph_Driver/src/stm32f10x_exti.c ****   */
  63:../Libraries/STM32F10x_StdPeriph_Driver/src/stm32f10x_exti.c **** 
  64:../Libraries/STM32F10x_StdPeriph_Driver/src/stm32f10x_exti.c **** /**
  65:../Libraries/STM32F10x_StdPeriph_Driver/src/stm32f10x_exti.c ****   * @}
  66:../Libraries/STM32F10x_StdPeriph_Driver/src/stm32f10x_exti.c ****   */
  67:../Libraries/STM32F10x_StdPeriph_Driver/src/stm32f10x_exti.c **** 
  68:../Libraries/STM32F10x_StdPeriph_Driver/src/stm32f10x_exti.c **** /** @defgroup EXTI_Private_FunctionPrototypes
  69:../Libraries/STM32F10x_StdPeriph_Driver/src/stm32f10x_exti.c ****   * @{
  70:../Libraries/STM32F10x_StdPeriph_Driver/src/stm32f10x_exti.c ****   */
  71:../Libraries/STM32F10x_StdPeriph_Driver/src/stm32f10x_exti.c **** 
  72:../Libraries/STM32F10x_StdPeriph_Driver/src/stm32f10x_exti.c **** /**
  73:../Libraries/STM32F10x_StdPeriph_Driver/src/stm32f10x_exti.c ****   * @}
  74:../Libraries/STM32F10x_StdPeriph_Driver/src/stm32f10x_exti.c ****   */
  75:../Libraries/STM32F10x_StdPeriph_Driver/src/stm32f10x_exti.c **** 
  76:../Libraries/STM32F10x_StdPeriph_Driver/src/stm32f10x_exti.c **** /** @defgroup EXTI_Private_Functions
  77:../Libraries/STM32F10x_StdPeriph_Driver/src/stm32f10x_exti.c ****   * @{
  78:../Libraries/STM32F10x_StdPeriph_Driver/src/stm32f10x_exti.c ****   */
  79:../Libraries/STM32F10x_StdPeriph_Driver/src/stm32f10x_exti.c **** 
  80:../Libraries/STM32F10x_StdPeriph_Driver/src/stm32f10x_exti.c **** /**
  81:../Libraries/STM32F10x_StdPeriph_Driver/src/stm32f10x_exti.c ****   * @brief  Deinitializes the EXTI peripheral registers to their default reset values.
  82:../Libraries/STM32F10x_StdPeriph_Driver/src/stm32f10x_exti.c ****   * @param  None
  83:../Libraries/STM32F10x_StdPeriph_Driver/src/stm32f10x_exti.c ****   * @retval None
  84:../Libraries/STM32F10x_StdPeriph_Driver/src/stm32f10x_exti.c ****   */
  85:../Libraries/STM32F10x_StdPeriph_Driver/src/stm32f10x_exti.c **** void EXTI_DeInit(void)
  86:../Libraries/STM32F10x_StdPeriph_Driver/src/stm32f10x_exti.c **** {
 18388              		.loc 1 86 0
 18389              		.cfi_startproc
 18390              		@ args = 0, pretend = 0, frame = 0
 18391              		@ frame_needed = 0, uses_anonymous_args = 0
 18392              		@ link register save eliminated.
  87:../Libraries/STM32F10x_StdPeriph_Driver/src/stm32f10x_exti.c ****   EXTI->IMR = 0x00000000;
 18393              		.loc 1 87 0
 18394 0000 044B     		ldr	r3, .L2
 18395 0002 0022     		movs	r2, #0
 18396 0004 1A60     		str	r2, [r3, #0]
  88:../Libraries/STM32F10x_StdPeriph_Driver/src/stm32f10x_exti.c ****   EXTI->EMR = 0x00000000;
 18397              		.loc 1 88 0
 18398 0006 5A60     		str	r2, [r3, #4]
  89:../Libraries/STM32F10x_StdPeriph_Driver/src/stm32f10x_exti.c ****   EXTI->RTSR = 0x00000000; 
 18399              		.loc 1 89 0
 18400 0008 9A60     		str	r2, [r3, #8]
  90:../Libraries/STM32F10x_StdPeriph_Driver/src/stm32f10x_exti.c ****   EXTI->FTSR = 0x00000000; 
 18401              		.loc 1 90 0
 18402 000a DA60     		str	r2, [r3, #12]
  91:../Libraries/STM32F10x_StdPeriph_Driver/src/stm32f10x_exti.c ****   EXTI->PR = 0x000FFFFF;
 18403              		.loc 1 91 0
 18404 000c 024A     		ldr	r2, .L2+4
 18405 000e 5A61     		str	r2, [r3, #20]
  92:../Libraries/STM32F10x_StdPeriph_Driver/src/stm32f10x_exti.c **** }
 18406              		.loc 1 92 0
 18407 0010 7047     		bx	lr
 18408              	.L3:
 18409 0012 00BF     		.align	2
 18410              	.L2:
 18411 0014 00040140 		.word	1073808384
 18412 0018 FFFF0F00 		.word	1048575
 18413              		.cfi_endproc
 18414              	.LFE29:
 18416              		.section	.text.EXTI_Init,"ax",%progbits
 18417              		.align	1
 18418              		.global	EXTI_Init
 18419              		.thumb
 18420              		.thumb_func
 18422              	EXTI_Init:
 18423              	.LFB30:
  93:../Libraries/STM32F10x_StdPeriph_Driver/src/stm32f10x_exti.c **** 
  94:../Libraries/STM32F10x_StdPeriph_Driver/src/stm32f10x_exti.c **** /**
  95:../Libraries/STM32F10x_StdPeriph_Driver/src/stm32f10x_exti.c ****   * @brief  Initializes the EXTI peripheral according to the specified
  96:../Libraries/STM32F10x_StdPeriph_Driver/src/stm32f10x_exti.c ****   *         parameters in the EXTI_InitStruct.
  97:../Libraries/STM32F10x_StdPeriph_Driver/src/stm32f10x_exti.c ****   * @param  EXTI_InitStruct: pointer to a EXTI_InitTypeDef structure
  98:../Libraries/STM32F10x_StdPeriph_Driver/src/stm32f10x_exti.c ****   *         that contains the configuration information for the EXTI peripheral.
  99:../Libraries/STM32F10x_StdPeriph_Driver/src/stm32f10x_exti.c ****   * @retval None
 100:../Libraries/STM32F10x_StdPeriph_Driver/src/stm32f10x_exti.c ****   */
 101:../Libraries/STM32F10x_StdPeriph_Driver/src/stm32f10x_exti.c **** void EXTI_Init(EXTI_InitTypeDef* EXTI_InitStruct)
 102:../Libraries/STM32F10x_StdPeriph_Driver/src/stm32f10x_exti.c **** {
 18424              		.loc 1 102 0
 18425              		.cfi_startproc
 18426              		@ args = 0, pretend = 0, frame = 0
 18427              		@ frame_needed = 0, uses_anonymous_args = 0
 18428              	.LVL0:
 103:../Libraries/STM32F10x_StdPeriph_Driver/src/stm32f10x_exti.c ****   uint32_t tmp = 0;
 104:../Libraries/STM32F10x_StdPeriph_Driver/src/stm32f10x_exti.c **** 
 105:../Libraries/STM32F10x_StdPeriph_Driver/src/stm32f10x_exti.c ****   /* Check the parameters */
 106:../Libraries/STM32F10x_StdPeriph_Driver/src/stm32f10x_exti.c ****   assert_param(IS_EXTI_MODE(EXTI_InitStruct->EXTI_Mode));
 107:../Libraries/STM32F10x_StdPeriph_Driver/src/stm32f10x_exti.c ****   assert_param(IS_EXTI_TRIGGER(EXTI_InitStruct->EXTI_Trigger));
 108:../Libraries/STM32F10x_StdPeriph_Driver/src/stm32f10x_exti.c ****   assert_param(IS_EXTI_LINE(EXTI_InitStruct->EXTI_Line));  
 109:../Libraries/STM32F10x_StdPeriph_Driver/src/stm32f10x_exti.c ****   assert_param(IS_FUNCTIONAL_STATE(EXTI_InitStruct->EXTI_LineCmd));
 110:../Libraries/STM32F10x_StdPeriph_Driver/src/stm32f10x_exti.c **** 
 111:../Libraries/STM32F10x_StdPeriph_Driver/src/stm32f10x_exti.c ****   tmp = (uint32_t)EXTI_BASE;
 112:../Libraries/STM32F10x_StdPeriph_Driver/src/stm32f10x_exti.c ****      
 113:../Libraries/STM32F10x_StdPeriph_Driver/src/stm32f10x_exti.c ****   if (EXTI_InitStruct->EXTI_LineCmd != DISABLE)
 18429              		.loc 1 113 0
 18430 0000 8379     		ldrb	r3, [r0, #6]	@ zero_extendqisi2
 102:../Libraries/STM32F10x_StdPeriph_Driver/src/stm32f10x_exti.c **** {
 18431              		.loc 1 102 0
 18432 0002 10B5     		push	{r4, lr}
 18433              	.LCFI0:
 18434              		.cfi_def_cfa_offset 8
 18435 0004 0168     		ldr	r1, [r0, #0]
 18436              		.loc 1 113 0
 18437 0006 002B     		cmp	r3, #0
 18438 0008 2BD0     		beq	.L5
 18439              		.cfi_offset 14, -4
 18440              		.cfi_offset 4, -8
 114:../Libraries/STM32F10x_StdPeriph_Driver/src/stm32f10x_exti.c ****   {
 115:../Libraries/STM32F10x_StdPeriph_Driver/src/stm32f10x_exti.c ****     /* Clear EXTI line configuration */
 116:../Libraries/STM32F10x_StdPeriph_Driver/src/stm32f10x_exti.c ****     EXTI->IMR &= ~EXTI_InitStruct->EXTI_Line;
 18441              		.loc 1 116 0
 18442 000a 1B4B     		ldr	r3, .L8
 18443 000c CA43     		mvns	r2, r1
 18444 000e 1C68     		ldr	r4, [r3, #0]
 18445 0010 02EA0404 		and	r4, r2, r4
 18446 0014 1C60     		str	r4, [r3, #0]
 117:../Libraries/STM32F10x_StdPeriph_Driver/src/stm32f10x_exti.c ****     EXTI->EMR &= ~EXTI_InitStruct->EXTI_Line;
 18447              		.loc 1 117 0
 18448 0016 5C68     		ldr	r4, [r3, #4]
 18449 0018 2240     		ands	r2, r2, r4
 18450 001a 5A60     		str	r2, [r3, #4]
 18451              	.LVL1:
 118:../Libraries/STM32F10x_StdPeriph_Driver/src/stm32f10x_exti.c ****     
 119:../Libraries/STM32F10x_StdPeriph_Driver/src/stm32f10x_exti.c ****     tmp += EXTI_InitStruct->EXTI_Mode;
 18452              		.loc 1 119 0
 18453 001c 0279     		ldrb	r2, [r0, #4]	@ zero_extendqisi2
 18454 001e D218     		adds	r2, r2, r3
 120:../Libraries/STM32F10x_StdPeriph_Driver/src/stm32f10x_exti.c **** 
 121:../Libraries/STM32F10x_StdPeriph_Driver/src/stm32f10x_exti.c ****     *(__IO uint32_t *) tmp |= EXTI_InitStruct->EXTI_Line;
 18455              		.loc 1 121 0
 18456 0020 1468     		ldr	r4, [r2, #0]
 18457 0022 44EA0101 		orr	r1, r4, r1
 18458 0026 1160     		str	r1, [r2, #0]
 122:../Libraries/STM32F10x_StdPeriph_Driver/src/stm32f10x_exti.c **** 
 123:../Libraries/STM32F10x_StdPeriph_Driver/src/stm32f10x_exti.c ****     /* Clear Rising Falling edge configuration */
 124:../Libraries/STM32F10x_StdPeriph_Driver/src/stm32f10x_exti.c ****     EXTI->RTSR &= ~EXTI_InitStruct->EXTI_Line;
 18459              		.loc 1 124 0
 18460 0028 0268     		ldr	r2, [r0, #0]
 18461 002a 9C68     		ldr	r4, [r3, #8]
 18462 002c D143     		mvns	r1, r2
 18463 002e 01EA0404 		and	r4, r1, r4
 18464 0032 9C60     		str	r4, [r3, #8]
 125:../Libraries/STM32F10x_StdPeriph_Driver/src/stm32f10x_exti.c ****     EXTI->FTSR &= ~EXTI_InitStruct->EXTI_Line;
 18465              		.loc 1 125 0
 18466 0034 DC68     		ldr	r4, [r3, #12]
 18467 0036 2140     		ands	r1, r1, r4
 18468 0038 D960     		str	r1, [r3, #12]
 126:../Libraries/STM32F10x_StdPeriph_Driver/src/stm32f10x_exti.c ****     
 127:../Libraries/STM32F10x_StdPeriph_Driver/src/stm32f10x_exti.c ****     /* Select the trigger for the selected external interrupts */
 128:../Libraries/STM32F10x_StdPeriph_Driver/src/stm32f10x_exti.c ****     if (EXTI_InitStruct->EXTI_Trigger == EXTI_Trigger_Rising_Falling)
 18469              		.loc 1 128 0
 18470 003a 4179     		ldrb	r1, [r0, #5]	@ zero_extendqisi2
 18471 003c 1029     		cmp	r1, #16
 18472 003e 07D1     		bne	.L6
 129:../Libraries/STM32F10x_StdPeriph_Driver/src/stm32f10x_exti.c ****     {
 130:../Libraries/STM32F10x_StdPeriph_Driver/src/stm32f10x_exti.c ****       /* Rising Falling edge */
 131:../Libraries/STM32F10x_StdPeriph_Driver/src/stm32f10x_exti.c ****       EXTI->RTSR |= EXTI_InitStruct->EXTI_Line;
 18473              		.loc 1 131 0
 18474 0040 9968     		ldr	r1, [r3, #8]
 18475 0042 1143     		orrs	r1, r1, r2
 18476 0044 9960     		str	r1, [r3, #8]
 132:../Libraries/STM32F10x_StdPeriph_Driver/src/stm32f10x_exti.c ****       EXTI->FTSR |= EXTI_InitStruct->EXTI_Line;
 18477              		.loc 1 132 0
 18478 0046 D968     		ldr	r1, [r3, #12]
 18479 0048 41EA0202 		orr	r2, r1, r2
 18480 004c DA60     		str	r2, [r3, #12]
 18481 004e 10BD     		pop	{r4, pc}
 18482              	.L6:
 18483              	.LVL2:
 133:../Libraries/STM32F10x_StdPeriph_Driver/src/stm32f10x_exti.c ****     }
 134:../Libraries/STM32F10x_StdPeriph_Driver/src/stm32f10x_exti.c ****     else
 135:../Libraries/STM32F10x_StdPeriph_Driver/src/stm32f10x_exti.c ****     {
 136:../Libraries/STM32F10x_StdPeriph_Driver/src/stm32f10x_exti.c ****       tmp = (uint32_t)EXTI_BASE;
 137:../Libraries/STM32F10x_StdPeriph_Driver/src/stm32f10x_exti.c ****       tmp += EXTI_InitStruct->EXTI_Trigger;
 18484              		.loc 1 137 0
 18485 0050 01F18043 		add	r3, r1, #1073741824
 18486 0054 03F58233 		add	r3, r3, #66560
 138:../Libraries/STM32F10x_StdPeriph_Driver/src/stm32f10x_exti.c **** 
 139:../Libraries/STM32F10x_StdPeriph_Driver/src/stm32f10x_exti.c ****       *(__IO uint32_t *) tmp |= EXTI_InitStruct->EXTI_Line;
 18487              		.loc 1 139 0
 18488 0058 1968     		ldr	r1, [r3, #0]
 18489              	.LVL3:
 18490 005a 41EA0202 		orr	r2, r1, r2
 18491 005e 1A60     		str	r2, [r3, #0]
 18492 0060 10BD     		pop	{r4, pc}
 18493              	.LVL4:
 18494              	.L5:
 140:../Libraries/STM32F10x_StdPeriph_Driver/src/stm32f10x_exti.c ****     }
 141:../Libraries/STM32F10x_StdPeriph_Driver/src/stm32f10x_exti.c ****   }
 142:../Libraries/STM32F10x_StdPeriph_Driver/src/stm32f10x_exti.c ****   else
 143:../Libraries/STM32F10x_StdPeriph_Driver/src/stm32f10x_exti.c ****   {
 144:../Libraries/STM32F10x_StdPeriph_Driver/src/stm32f10x_exti.c ****     tmp += EXTI_InitStruct->EXTI_Mode;
 18495              		.loc 1 144 0
 18496 0062 0379     		ldrb	r3, [r0, #4]	@ zero_extendqisi2
 18497 0064 03F18043 		add	r3, r3, #1073741824
 18498 0068 03F58233 		add	r3, r3, #66560
 145:../Libraries/STM32F10x_StdPeriph_Driver/src/stm32f10x_exti.c **** 
 146:../Libraries/STM32F10x_StdPeriph_Driver/src/stm32f10x_exti.c ****     /* Disable the selected external lines */
 147:../Libraries/STM32F10x_StdPeriph_Driver/src/stm32f10x_exti.c ****     *(__IO uint32_t *) tmp &= ~EXTI_InitStruct->EXTI_Line;
 18499              		.loc 1 147 0
 18500 006c 1A68     		ldr	r2, [r3, #0]
 18501 006e 22EA0101 		bic	r1, r2, r1
 18502 0072 1960     		str	r1, [r3, #0]
 18503 0074 10BD     		pop	{r4, pc}
 18504              	.L9:
 18505 0076 00BF     		.align	2
 18506              	.L8:
 18507 0078 00040140 		.word	1073808384
 18508              		.cfi_endproc
 18509              	.LFE30:
 18511              		.section	.text.EXTI_StructInit,"ax",%progbits
 18512              		.align	1
 18513              		.global	EXTI_StructInit
 18514              		.thumb
 18515              		.thumb_func
 18517              	EXTI_StructInit:
 18518              	.LFB31:
 148:../Libraries/STM32F10x_StdPeriph_Driver/src/stm32f10x_exti.c ****   }
 149:../Libraries/STM32F10x_StdPeriph_Driver/src/stm32f10x_exti.c **** }
 150:../Libraries/STM32F10x_StdPeriph_Driver/src/stm32f10x_exti.c **** 
 151:../Libraries/STM32F10x_StdPeriph_Driver/src/stm32f10x_exti.c **** /**
 152:../Libraries/STM32F10x_StdPeriph_Driver/src/stm32f10x_exti.c ****   * @brief  Fills each EXTI_InitStruct member with its reset value.
 153:../Libraries/STM32F10x_StdPeriph_Driver/src/stm32f10x_exti.c ****   * @param  EXTI_InitStruct: pointer to a EXTI_InitTypeDef structure which will
 154:../Libraries/STM32F10x_StdPeriph_Driver/src/stm32f10x_exti.c ****   *         be initialized.
 155:../Libraries/STM32F10x_StdPeriph_Driver/src/stm32f10x_exti.c ****   * @retval None
 156:../Libraries/STM32F10x_StdPeriph_Driver/src/stm32f10x_exti.c ****   */
 157:../Libraries/STM32F10x_StdPeriph_Driver/src/stm32f10x_exti.c **** void EXTI_StructInit(EXTI_InitTypeDef* EXTI_InitStruct)
 158:../Libraries/STM32F10x_StdPeriph_Driver/src/stm32f10x_exti.c **** {
 18519              		.loc 1 158 0
 18520              		.cfi_startproc
 18521              		@ args = 0, pretend = 0, frame = 0
 18522              		@ frame_needed = 0, uses_anonymous_args = 0
 18523              		@ link register save eliminated.
 18524              	.LVL5:
 159:../Libraries/STM32F10x_StdPeriph_Driver/src/stm32f10x_exti.c ****   EXTI_InitStruct->EXTI_Line = EXTI_LINENONE;
 18525              		.loc 1 159 0
 18526 0000 0023     		movs	r3, #0
 160:../Libraries/STM32F10x_StdPeriph_Driver/src/stm32f10x_exti.c ****   EXTI_InitStruct->EXTI_Mode = EXTI_Mode_Interrupt;
 161:../Libraries/STM32F10x_StdPeriph_Driver/src/stm32f10x_exti.c ****   EXTI_InitStruct->EXTI_Trigger = EXTI_Trigger_Falling;
 18527              		.loc 1 161 0
 18528 0002 0C22     		movs	r2, #12
 159:../Libraries/STM32F10x_StdPeriph_Driver/src/stm32f10x_exti.c ****   EXTI_InitStruct->EXTI_Line = EXTI_LINENONE;
 18529              		.loc 1 159 0
 18530 0004 0360     		str	r3, [r0, #0]
 160:../Libraries/STM32F10x_StdPeriph_Driver/src/stm32f10x_exti.c ****   EXTI_InitStruct->EXTI_Mode = EXTI_Mode_Interrupt;
 18531              		.loc 1 160 0
 18532 0006 0371     		strb	r3, [r0, #4]
 18533              		.loc 1 161 0
 18534 0008 4271     		strb	r2, [r0, #5]
 162:../Libraries/STM32F10x_StdPeriph_Driver/src/stm32f10x_exti.c ****   EXTI_InitStruct->EXTI_LineCmd = DISABLE;
 18535              		.loc 1 162 0
 18536 000a 8371     		strb	r3, [r0, #6]
 163:../Libraries/STM32F10x_StdPeriph_Driver/src/stm32f10x_exti.c **** }
 18537              		.loc 1 163 0
 18538 000c 7047     		bx	lr
 18539              		.cfi_endproc
 18540              	.LFE31:
 18542              		.section	.text.EXTI_GenerateSWInterrupt,"ax",%progbits
 18543              		.align	1
 18544              		.global	EXTI_GenerateSWInterrupt
 18545              		.thumb
 18546              		.thumb_func
 18548              	EXTI_GenerateSWInterrupt:
 18549              	.LFB32:
 164:../Libraries/STM32F10x_StdPeriph_Driver/src/stm32f10x_exti.c **** 
 165:../Libraries/STM32F10x_StdPeriph_Driver/src/stm32f10x_exti.c **** /**
 166:../Libraries/STM32F10x_StdPeriph_Driver/src/stm32f10x_exti.c ****   * @brief  Generates a Software interrupt.
 167:../Libraries/STM32F10x_StdPeriph_Driver/src/stm32f10x_exti.c ****   * @param  EXTI_Line: specifies the EXTI lines to be enabled or disabled.
 168:../Libraries/STM32F10x_StdPeriph_Driver/src/stm32f10x_exti.c ****   *   This parameter can be any combination of EXTI_Linex where x can be (0..19).
 169:../Libraries/STM32F10x_StdPeriph_Driver/src/stm32f10x_exti.c ****   * @retval None
 170:../Libraries/STM32F10x_StdPeriph_Driver/src/stm32f10x_exti.c ****   */
 171:../Libraries/STM32F10x_StdPeriph_Driver/src/stm32f10x_exti.c **** void EXTI_GenerateSWInterrupt(uint32_t EXTI_Line)
 172:../Libraries/STM32F10x_StdPeriph_Driver/src/stm32f10x_exti.c **** {
 18550              		.loc 1 172 0
 18551              		.cfi_startproc
 18552              		@ args = 0, pretend = 0, frame = 0
 18553              		@ frame_needed = 0, uses_anonymous_args = 0
 18554              		@ link register save eliminated.
 18555              	.LVL6:
 173:../Libraries/STM32F10x_StdPeriph_Driver/src/stm32f10x_exti.c ****   /* Check the parameters */
 174:../Libraries/STM32F10x_StdPeriph_Driver/src/stm32f10x_exti.c ****   assert_param(IS_EXTI_LINE(EXTI_Line));
 175:../Libraries/STM32F10x_StdPeriph_Driver/src/stm32f10x_exti.c ****   
 176:../Libraries/STM32F10x_StdPeriph_Driver/src/stm32f10x_exti.c ****   EXTI->SWIER |= EXTI_Line;
 18556              		.loc 1 176 0
 18557 0000 024B     		ldr	r3, .L12
 18558 0002 1A69     		ldr	r2, [r3, #16]
 18559 0004 40EA0202 		orr	r2, r0, r2
 18560 0008 1A61     		str	r2, [r3, #16]
 177:../Libraries/STM32F10x_StdPeriph_Driver/src/stm32f10x_exti.c **** }
 18561              		.loc 1 177 0
 18562 000a 7047     		bx	lr
 18563              	.L13:
 18564              		.align	2
 18565              	.L12:
 18566 000c 00040140 		.word	1073808384
 18567              		.cfi_endproc
 18568              	.LFE32:
 18570              		.section	.text.EXTI_GetFlagStatus,"ax",%progbits
 18571              		.align	1
 18572              		.global	EXTI_GetFlagStatus
 18573              		.thumb
 18574              		.thumb_func
 18576              	EXTI_GetFlagStatus:
 18577              	.LFB33:
 178:../Libraries/STM32F10x_StdPeriph_Driver/src/stm32f10x_exti.c **** 
 179:../Libraries/STM32F10x_StdPeriph_Driver/src/stm32f10x_exti.c **** /**
 180:../Libraries/STM32F10x_StdPeriph_Driver/src/stm32f10x_exti.c ****   * @brief  Checks whether the specified EXTI line flag is set or not.
 181:../Libraries/STM32F10x_StdPeriph_Driver/src/stm32f10x_exti.c ****   * @param  EXTI_Line: specifies the EXTI line flag to check.
 182:../Libraries/STM32F10x_StdPeriph_Driver/src/stm32f10x_exti.c ****   *   This parameter can be:
 183:../Libraries/STM32F10x_StdPeriph_Driver/src/stm32f10x_exti.c ****   *     @arg EXTI_Linex: External interrupt line x where x(0..19)
 184:../Libraries/STM32F10x_StdPeriph_Driver/src/stm32f10x_exti.c ****   * @retval The new state of EXTI_Line (SET or RESET).
 185:../Libraries/STM32F10x_StdPeriph_Driver/src/stm32f10x_exti.c ****   */
 186:../Libraries/STM32F10x_StdPeriph_Driver/src/stm32f10x_exti.c **** FlagStatus EXTI_GetFlagStatus(uint32_t EXTI_Line)
 187:../Libraries/STM32F10x_StdPeriph_Driver/src/stm32f10x_exti.c **** {
 18578              		.loc 1 187 0
 18579              		.cfi_startproc
 18580              		@ args = 0, pretend = 0, frame = 0
 18581              		@ frame_needed = 0, uses_anonymous_args = 0
 18582              		@ link register save eliminated.
 18583              	.LVL7:
 188:../Libraries/STM32F10x_StdPeriph_Driver/src/stm32f10x_exti.c ****   FlagStatus bitstatus = RESET;
 189:../Libraries/STM32F10x_StdPeriph_Driver/src/stm32f10x_exti.c ****   /* Check the parameters */
 190:../Libraries/STM32F10x_StdPeriph_Driver/src/stm32f10x_exti.c ****   assert_param(IS_GET_EXTI_LINE(EXTI_Line));
 191:../Libraries/STM32F10x_StdPeriph_Driver/src/stm32f10x_exti.c ****   
 192:../Libraries/STM32F10x_StdPeriph_Driver/src/stm32f10x_exti.c ****   if ((EXTI->PR & EXTI_Line) != (uint32_t)RESET)
 18584              		.loc 1 192 0
 18585 0000 034B     		ldr	r3, .L15
 18586 0002 5B69     		ldr	r3, [r3, #20]
 18587              	.LVL8:
 193:../Libraries/STM32F10x_StdPeriph_Driver/src/stm32f10x_exti.c ****   {
 194:../Libraries/STM32F10x_StdPeriph_Driver/src/stm32f10x_exti.c ****     bitstatus = SET;
 18588              		.loc 1 194 0
 18589 0004 1842     		tst	r0, r3
 195:../Libraries/STM32F10x_StdPeriph_Driver/src/stm32f10x_exti.c ****   }
 196:../Libraries/STM32F10x_StdPeriph_Driver/src/stm32f10x_exti.c ****   else
 197:../Libraries/STM32F10x_StdPeriph_Driver/src/stm32f10x_exti.c ****   {
 198:../Libraries/STM32F10x_StdPeriph_Driver/src/stm32f10x_exti.c ****     bitstatus = RESET;
 199:../Libraries/STM32F10x_StdPeriph_Driver/src/stm32f10x_exti.c ****   }
 200:../Libraries/STM32F10x_StdPeriph_Driver/src/stm32f10x_exti.c ****   return bitstatus;
 201:../Libraries/STM32F10x_StdPeriph_Driver/src/stm32f10x_exti.c **** }
 18590              		.loc 1 201 0
 18591 0006 0CBF     		ite	eq
 18592 0008 0020     		moveq	r0, #0
 18593 000a 0120     		movne	r0, #1
 18594              	.LVL9:
 18595 000c 7047     		bx	lr
 18596              	.L16:
 18597 000e 00BF     		.align	2
 18598              	.L15:
 18599 0010 00040140 		.word	1073808384
 18600              		.cfi_endproc
 18601              	.LFE33:
 18603              		.section	.text.EXTI_ClearFlag,"ax",%progbits
 18604              		.align	1
 18605              		.global	EXTI_ClearFlag
 18606              		.thumb
 18607              		.thumb_func
 18609              	EXTI_ClearFlag:
 18610              	.LFB34:
 202:../Libraries/STM32F10x_StdPeriph_Driver/src/stm32f10x_exti.c **** 
 203:../Libraries/STM32F10x_StdPeriph_Driver/src/stm32f10x_exti.c **** /**
 204:../Libraries/STM32F10x_StdPeriph_Driver/src/stm32f10x_exti.c ****   * @brief  Clears the EXTI's line pending flags.
 205:../Libraries/STM32F10x_StdPeriph_Driver/src/stm32f10x_exti.c ****   * @param  EXTI_Line: specifies the EXTI lines flags to clear.
 206:../Libraries/STM32F10x_StdPeriph_Driver/src/stm32f10x_exti.c ****   *   This parameter can be any combination of EXTI_Linex where x can be (0..19).
 207:../Libraries/STM32F10x_StdPeriph_Driver/src/stm32f10x_exti.c ****   * @retval None
 208:../Libraries/STM32F10x_StdPeriph_Driver/src/stm32f10x_exti.c ****   */
 209:../Libraries/STM32F10x_StdPeriph_Driver/src/stm32f10x_exti.c **** void EXTI_ClearFlag(uint32_t EXTI_Line)
 210:../Libraries/STM32F10x_StdPeriph_Driver/src/stm32f10x_exti.c **** {
 18611              		.loc 1 210 0
 18612              		.cfi_startproc
 18613              		@ args = 0, pretend = 0, frame = 0
 18614              		@ frame_needed = 0, uses_anonymous_args = 0
 18615              		@ link register save eliminated.
 18616              	.LVL10:
 211:../Libraries/STM32F10x_StdPeriph_Driver/src/stm32f10x_exti.c ****   /* Check the parameters */
 212:../Libraries/STM32F10x_StdPeriph_Driver/src/stm32f10x_exti.c ****   assert_param(IS_EXTI_LINE(EXTI_Line));
 213:../Libraries/STM32F10x_StdPeriph_Driver/src/stm32f10x_exti.c ****   
 214:../Libraries/STM32F10x_StdPeriph_Driver/src/stm32f10x_exti.c ****   EXTI->PR = EXTI_Line;
 18617              		.loc 1 214 0
 18618 0000 014B     		ldr	r3, .L18
 18619 0002 5861     		str	r0, [r3, #20]
 215:../Libraries/STM32F10x_StdPeriph_Driver/src/stm32f10x_exti.c **** }
 18620              		.loc 1 215 0
 18621 0004 7047     		bx	lr
 18622              	.L19:
 18623 0006 00BF     		.align	2
 18624              	.L18:
 18625 0008 00040140 		.word	1073808384
 18626              		.cfi_endproc
 18627              	.LFE34:
 18629              		.section	.text.EXTI_GetITStatus,"ax",%progbits
 18630              		.align	1
 18631              		.global	EXTI_GetITStatus
 18632              		.thumb
 18633              		.thumb_func
 18635              	EXTI_GetITStatus:
 18636              	.LFB35:
 216:../Libraries/STM32F10x_StdPeriph_Driver/src/stm32f10x_exti.c **** 
 217:../Libraries/STM32F10x_StdPeriph_Driver/src/stm32f10x_exti.c **** /**
 218:../Libraries/STM32F10x_StdPeriph_Driver/src/stm32f10x_exti.c ****   * @brief  Checks whether the specified EXTI line is asserted or not.
 219:../Libraries/STM32F10x_StdPeriph_Driver/src/stm32f10x_exti.c ****   * @param  EXTI_Line: specifies the EXTI line to check.
 220:../Libraries/STM32F10x_StdPeriph_Driver/src/stm32f10x_exti.c ****   *   This parameter can be:
 221:../Libraries/STM32F10x_StdPeriph_Driver/src/stm32f10x_exti.c ****   *     @arg EXTI_Linex: External interrupt line x where x(0..19)
 222:../Libraries/STM32F10x_StdPeriph_Driver/src/stm32f10x_exti.c ****   * @retval The new state of EXTI_Line (SET or RESET).
 223:../Libraries/STM32F10x_StdPeriph_Driver/src/stm32f10x_exti.c ****   */
 224:../Libraries/STM32F10x_StdPeriph_Driver/src/stm32f10x_exti.c **** ITStatus EXTI_GetITStatus(uint32_t EXTI_Line)
 225:../Libraries/STM32F10x_StdPeriph_Driver/src/stm32f10x_exti.c **** {
 18637              		.loc 1 225 0
 18638              		.cfi_startproc
 18639              		@ args = 0, pretend = 0, frame = 0
 18640              		@ frame_needed = 0, uses_anonymous_args = 0
 18641              		@ link register save eliminated.
 18642              	.LVL11:
 226:../Libraries/STM32F10x_StdPeriph_Driver/src/stm32f10x_exti.c ****   ITStatus bitstatus = RESET;
 227:../Libraries/STM32F10x_StdPeriph_Driver/src/stm32f10x_exti.c ****   uint32_t enablestatus = 0;
 228:../Libraries/STM32F10x_StdPeriph_Driver/src/stm32f10x_exti.c ****   /* Check the parameters */
 229:../Libraries/STM32F10x_StdPeriph_Driver/src/stm32f10x_exti.c ****   assert_param(IS_GET_EXTI_LINE(EXTI_Line));
 230:../Libraries/STM32F10x_StdPeriph_Driver/src/stm32f10x_exti.c ****   
 231:../Libraries/STM32F10x_StdPeriph_Driver/src/stm32f10x_exti.c ****   enablestatus =  EXTI->IMR & EXTI_Line;
 18643              		.loc 1 231 0
 18644 0000 054B     		ldr	r3, .L23
 18645 0002 1A68     		ldr	r2, [r3, #0]
 18646              	.LVL12:
 232:../Libraries/STM32F10x_StdPeriph_Driver/src/stm32f10x_exti.c ****   if (((EXTI->PR & EXTI_Line) != (uint32_t)RESET) && (enablestatus != (uint32_t)RESET))
 18647              		.loc 1 232 0
 18648 0004 5B69     		ldr	r3, [r3, #20]
 18649 0006 0340     		ands	r3, r0, r3
 18650 0008 04D0     		beq	.L22
 233:../Libraries/STM32F10x_StdPeriph_Driver/src/stm32f10x_exti.c ****   {
 234:../Libraries/STM32F10x_StdPeriph_Driver/src/stm32f10x_exti.c ****     bitstatus = SET;
 18651              		.loc 1 234 0 discriminator 1
 18652 000a 1042     		tst	r0, r2
 18653 000c 0CBF     		ite	eq
 18654 000e 0020     		moveq	r0, #0
 18655 0010 0120     		movne	r0, #1
 18656              	.LVL13:
 18657 0012 7047     		bx	lr
 18658              	.LVL14:
 18659              	.L22:
 235:../Libraries/STM32F10x_StdPeriph_Driver/src/stm32f10x_exti.c ****   }
 236:../Libraries/STM32F10x_StdPeriph_Driver/src/stm32f10x_exti.c ****   else
 237:../Libraries/STM32F10x_StdPeriph_Driver/src/stm32f10x_exti.c ****   {
 238:../Libraries/STM32F10x_StdPeriph_Driver/src/stm32f10x_exti.c ****     bitstatus = RESET;
 18660              		.loc 1 238 0
 18661 0014 1846     		mov	r0, r3
 18662              	.LVL15:
 239:../Libraries/STM32F10x_StdPeriph_Driver/src/stm32f10x_exti.c ****   }
 240:../Libraries/STM32F10x_StdPeriph_Driver/src/stm32f10x_exti.c ****   return bitstatus;
 241:../Libraries/STM32F10x_StdPeriph_Driver/src/stm32f10x_exti.c **** }
 18663              		.loc 1 241 0
 18664 0016 7047     		bx	lr
 18665              	.L24:
 18666              		.align	2
 18667              	.L23:
 18668 0018 00040140 		.word	1073808384
 18669              		.cfi_endproc
 18670              	.LFE35:
 18672              		.section	.text.EXTI_ClearITPendingBit,"ax",%progbits
 18673              		.align	1
 18674              		.global	EXTI_ClearITPendingBit
 18675              		.thumb
 18676              		.thumb_func
 18678              	EXTI_ClearITPendingBit:
 18679              	.LFB36:
 242:../Libraries/STM32F10x_StdPeriph_Driver/src/stm32f10x_exti.c **** 
 243:../Libraries/STM32F10x_StdPeriph_Driver/src/stm32f10x_exti.c **** /**
 244:../Libraries/STM32F10x_StdPeriph_Driver/src/stm32f10x_exti.c ****   * @brief  Clears the EXTI's line pending bits.
 245:../Libraries/STM32F10x_StdPeriph_Driver/src/stm32f10x_exti.c ****   * @param  EXTI_Line: specifies the EXTI lines to clear.
 246:../Libraries/STM32F10x_StdPeriph_Driver/src/stm32f10x_exti.c ****   *   This parameter can be any combination of EXTI_Linex where x can be (0..19).
 247:../Libraries/STM32F10x_StdPeriph_Driver/src/stm32f10x_exti.c ****   * @retval None
 248:../Libraries/STM32F10x_StdPeriph_Driver/src/stm32f10x_exti.c ****   */
 249:../Libraries/STM32F10x_StdPeriph_Driver/src/stm32f10x_exti.c **** void EXTI_ClearITPendingBit(uint32_t EXTI_Line)
 250:../Libraries/STM32F10x_StdPeriph_Driver/src/stm32f10x_exti.c **** {
 18680              		.loc 1 250 0
 18681              		.cfi_startproc
 18682              		@ args = 0, pretend = 0, frame = 0
 18683              		@ frame_needed = 0, uses_anonymous_args = 0
 18684              		@ link register save eliminated.
 18685              	.LVL16:
 251:../Libraries/STM32F10x_StdPeriph_Driver/src/stm32f10x_exti.c ****   /* Check the parameters */
 252:../Libraries/STM32F10x_StdPeriph_Driver/src/stm32f10x_exti.c ****   assert_param(IS_EXTI_LINE(EXTI_Line));
 253:../Libraries/STM32F10x_StdPeriph_Driver/src/stm32f10x_exti.c ****   
 254:../Libraries/STM32F10x_StdPeriph_Driver/src/stm32f10x_exti.c ****   EXTI->PR = EXTI_Line;
 18686              		.loc 1 254 0
 18687 0000 014B     		ldr	r3, .L26
 18688 0002 5861     		str	r0, [r3, #20]
 255:../Libraries/STM32F10x_StdPeriph_Driver/src/stm32f10x_exti.c **** }
 18689              		.loc 1 255 0
 18690 0004 7047     		bx	lr
 18691              	.L27:
 18692 0006 00BF     		.align	2
 18693              	.L26:
 18694 0008 00040140 		.word	1073808384
 18695              		.cfi_endproc
 18696              	.LFE36:
 18698              		.text
 18699              	.Letext0: