   1              		.syntax unified
   2              		.cpu cortex-m3
   3              		.fpu softvfp
   4              		.eabi_attribute 20, 1
   5              		.eabi_attribute 21, 1
   6              		.eabi_attribute 23, 3
   7              		.eabi_attribute 24, 1
   8              		.eabi_attribute 25, 1
   9              		.eabi_attribute 26, 1
  10              		.eabi_attribute 30, 4
  11              		.eabi_attribute 18, 4
  12              		.thumb
  13              		.file	"stm32f10x_dac.c"
  23              	.Ltext0:
  24              		.file 1 "../Libraries/STM32F10x_StdPeriph_Driver/src/stm32f10x_dac.c"
 18602              		.align	1
 18603              		.global	DAC_DeInit
 18604              		.thumb
 18605              		.thumb_func
 18607              	DAC_DeInit:
 18608              	.LFB29:
   1:../Libraries/STM32F10x_StdPeriph_Driver/src/stm32f10x_dac.c **** /**
   2:../Libraries/STM32F10x_StdPeriph_Driver/src/stm32f10x_dac.c ****   ******************************************************************************
   3:../Libraries/STM32F10x_StdPeriph_Driver/src/stm32f10x_dac.c ****   * @file    stm32f10x_dac.c
   4:../Libraries/STM32F10x_StdPeriph_Driver/src/stm32f10x_dac.c ****   * @author  MCD Application Team
   5:../Libraries/STM32F10x_StdPeriph_Driver/src/stm32f10x_dac.c ****   * @version V3.5.0
   6:../Libraries/STM32F10x_StdPeriph_Driver/src/stm32f10x_dac.c ****   * @date    11-March-2011
   7:../Libraries/STM32F10x_StdPeriph_Driver/src/stm32f10x_dac.c ****   * @brief   This file provides all the DAC firmware functions.
   8:../Libraries/STM32F10x_StdPeriph_Driver/src/stm32f10x_dac.c ****   ******************************************************************************
   9:../Libraries/STM32F10x_StdPeriph_Driver/src/stm32f10x_dac.c ****   * @attention
  10:../Libraries/STM32F10x_StdPeriph_Driver/src/stm32f10x_dac.c ****   *
  11:../Libraries/STM32F10x_StdPeriph_Driver/src/stm32f10x_dac.c ****   * THE PRESENT FIRMWARE WHICH IS FOR GUIDANCE ONLY AIMS AT PROVIDING CUSTOMERS
  12:../Libraries/STM32F10x_StdPeriph_Driver/src/stm32f10x_dac.c ****   * WITH CODING INFORMATION REGARDING THEIR PRODUCTS IN ORDER FOR THEM TO SAVE
  13:../Libraries/STM32F10x_StdPeriph_Driver/src/stm32f10x_dac.c ****   * TIME. AS A RESULT, STMICROELECTRONICS SHALL NOT BE HELD LIABLE FOR ANY
  14:../Libraries/STM32F10x_StdPeriph_Driver/src/stm32f10x_dac.c ****   * DIRECT, INDIRECT OR CONSEQUENTIAL DAMAGES WITH RESPECT TO ANY CLAIMS ARISING
  15:../Libraries/STM32F10x_StdPeriph_Driver/src/stm32f10x_dac.c ****   * FROM THE CONTENT OF SUCH FIRMWARE AND/OR THE USE MADE BY CUSTOMERS OF THE
  16:../Libraries/STM32F10x_StdPeriph_Driver/src/stm32f10x_dac.c ****   * CODING INFORMATION CONTAINED HEREIN IN CONNECTION WITH THEIR PRODUCTS.
  17:../Libraries/STM32F10x_StdPeriph_Driver/src/stm32f10x_dac.c ****   *
  18:../Libraries/STM32F10x_StdPeriph_Driver/src/stm32f10x_dac.c ****   * <h2><center>&copy; COPYRIGHT 2011 STMicroelectronics</center></h2>
  19:../Libraries/STM32F10x_StdPeriph_Driver/src/stm32f10x_dac.c ****   ******************************************************************************
  20:../Libraries/STM32F10x_StdPeriph_Driver/src/stm32f10x_dac.c ****   */
  21:../Libraries/STM32F10x_StdPeriph_Driver/src/stm32f10x_dac.c **** 
  22:../Libraries/STM32F10x_StdPeriph_Driver/src/stm32f10x_dac.c **** /* Includes ------------------------------------------------------------------*/
  23:../Libraries/STM32F10x_StdPeriph_Driver/src/stm32f10x_dac.c **** #include "stm32f10x_dac.h"
  24:../Libraries/STM32F10x_StdPeriph_Driver/src/stm32f10x_dac.c **** #include "stm32f10x_rcc.h"
  25:../Libraries/STM32F10x_StdPeriph_Driver/src/stm32f10x_dac.c **** 
  26:../Libraries/STM32F10x_StdPeriph_Driver/src/stm32f10x_dac.c **** /** @addtogroup STM32F10x_StdPeriph_Driver
  27:../Libraries/STM32F10x_StdPeriph_Driver/src/stm32f10x_dac.c ****   * @{
  28:../Libraries/STM32F10x_StdPeriph_Driver/src/stm32f10x_dac.c ****   */
  29:../Libraries/STM32F10x_StdPeriph_Driver/src/stm32f10x_dac.c **** 
  30:../Libraries/STM32F10x_StdPeriph_Driver/src/stm32f10x_dac.c **** /** @defgroup DAC 
  31:../Libraries/STM32F10x_StdPeriph_Driver/src/stm32f10x_dac.c ****   * @brief DAC driver modules
  32:../Libraries/STM32F10x_StdPeriph_Driver/src/stm32f10x_dac.c ****   * @{
  33:../Libraries/STM32F10x_StdPeriph_Driver/src/stm32f10x_dac.c ****   */ 
  34:../Libraries/STM32F10x_StdPeriph_Driver/src/stm32f10x_dac.c **** 
  35:../Libraries/STM32F10x_StdPeriph_Driver/src/stm32f10x_dac.c **** /** @defgroup DAC_Private_TypesDefinitions
  36:../Libraries/STM32F10x_StdPeriph_Driver/src/stm32f10x_dac.c ****   * @{
  37:../Libraries/STM32F10x_StdPeriph_Driver/src/stm32f10x_dac.c ****   */
  38:../Libraries/STM32F10x_StdPeriph_Driver/src/stm32f10x_dac.c **** 
  39:../Libraries/STM32F10x_StdPeriph_Driver/src/stm32f10x_dac.c **** /**
  40:../Libraries/STM32F10x_StdPeriph_Driver/src/stm32f10x_dac.c ****   * @}
  41:../Libraries/STM32F10x_StdPeriph_Driver/src/stm32f10x_dac.c ****   */
  42:../Libraries/STM32F10x_StdPeriph_Driver/src/stm32f10x_dac.c **** 
  43:../Libraries/STM32F10x_StdPeriph_Driver/src/stm32f10x_dac.c **** /** @defgroup DAC_Private_Defines
  44:../Libraries/STM32F10x_StdPeriph_Driver/src/stm32f10x_dac.c ****   * @{
  45:../Libraries/STM32F10x_StdPeriph_Driver/src/stm32f10x_dac.c ****   */
  46:../Libraries/STM32F10x_StdPeriph_Driver/src/stm32f10x_dac.c **** 
  47:../Libraries/STM32F10x_StdPeriph_Driver/src/stm32f10x_dac.c **** /* CR register Mask */
  48:../Libraries/STM32F10x_StdPeriph_Driver/src/stm32f10x_dac.c **** #define CR_CLEAR_MASK              ((uint32_t)0x00000FFE)
  49:../Libraries/STM32F10x_StdPeriph_Driver/src/stm32f10x_dac.c **** 
  50:../Libraries/STM32F10x_StdPeriph_Driver/src/stm32f10x_dac.c **** /* DAC Dual Channels SWTRIG masks */
  51:../Libraries/STM32F10x_StdPeriph_Driver/src/stm32f10x_dac.c **** #define DUAL_SWTRIG_SET            ((uint32_t)0x00000003)
  52:../Libraries/STM32F10x_StdPeriph_Driver/src/stm32f10x_dac.c **** #define DUAL_SWTRIG_RESET          ((uint32_t)0xFFFFFFFC)
  53:../Libraries/STM32F10x_StdPeriph_Driver/src/stm32f10x_dac.c **** 
  54:../Libraries/STM32F10x_StdPeriph_Driver/src/stm32f10x_dac.c **** /* DHR registers offsets */
  55:../Libraries/STM32F10x_StdPeriph_Driver/src/stm32f10x_dac.c **** #define DHR12R1_OFFSET             ((uint32_t)0x00000008)
  56:../Libraries/STM32F10x_StdPeriph_Driver/src/stm32f10x_dac.c **** #define DHR12R2_OFFSET             ((uint32_t)0x00000014)
  57:../Libraries/STM32F10x_StdPeriph_Driver/src/stm32f10x_dac.c **** #define DHR12RD_OFFSET             ((uint32_t)0x00000020)
  58:../Libraries/STM32F10x_StdPeriph_Driver/src/stm32f10x_dac.c **** 
  59:../Libraries/STM32F10x_StdPeriph_Driver/src/stm32f10x_dac.c **** /* DOR register offset */
  60:../Libraries/STM32F10x_StdPeriph_Driver/src/stm32f10x_dac.c **** #define DOR_OFFSET                 ((uint32_t)0x0000002C)
  61:../Libraries/STM32F10x_StdPeriph_Driver/src/stm32f10x_dac.c **** /**
  62:../Libraries/STM32F10x_StdPeriph_Driver/src/stm32f10x_dac.c ****   * @}
  63:../Libraries/STM32F10x_StdPeriph_Driver/src/stm32f10x_dac.c ****   */
  64:../Libraries/STM32F10x_StdPeriph_Driver/src/stm32f10x_dac.c **** 
  65:../Libraries/STM32F10x_StdPeriph_Driver/src/stm32f10x_dac.c **** /** @defgroup DAC_Private_Macros
  66:../Libraries/STM32F10x_StdPeriph_Driver/src/stm32f10x_dac.c ****   * @{
  67:../Libraries/STM32F10x_StdPeriph_Driver/src/stm32f10x_dac.c ****   */
  68:../Libraries/STM32F10x_StdPeriph_Driver/src/stm32f10x_dac.c **** 
  69:../Libraries/STM32F10x_StdPeriph_Driver/src/stm32f10x_dac.c **** /**
  70:../Libraries/STM32F10x_StdPeriph_Driver/src/stm32f10x_dac.c ****   * @}
  71:../Libraries/STM32F10x_StdPeriph_Driver/src/stm32f10x_dac.c ****   */
  72:../Libraries/STM32F10x_StdPeriph_Driver/src/stm32f10x_dac.c **** 
  73:../Libraries/STM32F10x_StdPeriph_Driver/src/stm32f10x_dac.c **** /** @defgroup DAC_Private_Variables
  74:../Libraries/STM32F10x_StdPeriph_Driver/src/stm32f10x_dac.c ****   * @{
  75:../Libraries/STM32F10x_StdPeriph_Driver/src/stm32f10x_dac.c ****   */
  76:../Libraries/STM32F10x_StdPeriph_Driver/src/stm32f10x_dac.c **** 
  77:../Libraries/STM32F10x_StdPeriph_Driver/src/stm32f10x_dac.c **** /**
  78:../Libraries/STM32F10x_StdPeriph_Driver/src/stm32f10x_dac.c ****   * @}
  79:../Libraries/STM32F10x_StdPeriph_Driver/src/stm32f10x_dac.c ****   */
  80:../Libraries/STM32F10x_StdPeriph_Driver/src/stm32f10x_dac.c **** 
  81:../Libraries/STM32F10x_StdPeriph_Driver/src/stm32f10x_dac.c **** /** @defgroup DAC_Private_FunctionPrototypes
  82:../Libraries/STM32F10x_StdPeriph_Driver/src/stm32f10x_dac.c ****   * @{
  83:../Libraries/STM32F10x_StdPeriph_Driver/src/stm32f10x_dac.c ****   */
  84:../Libraries/STM32F10x_StdPeriph_Driver/src/stm32f10x_dac.c **** 
  85:../Libraries/STM32F10x_StdPeriph_Driver/src/stm32f10x_dac.c **** /**
  86:../Libraries/STM32F10x_StdPeriph_Driver/src/stm32f10x_dac.c ****   * @}
  87:../Libraries/STM32F10x_StdPeriph_Driver/src/stm32f10x_dac.c ****   */
  88:../Libraries/STM32F10x_StdPeriph_Driver/src/stm32f10x_dac.c **** 
  89:../Libraries/STM32F10x_StdPeriph_Driver/src/stm32f10x_dac.c **** /** @defgroup DAC_Private_Functions
  90:../Libraries/STM32F10x_StdPeriph_Driver/src/stm32f10x_dac.c ****   * @{
  91:../Libraries/STM32F10x_StdPeriph_Driver/src/stm32f10x_dac.c ****   */
  92:../Libraries/STM32F10x_StdPeriph_Driver/src/stm32f10x_dac.c **** 
  93:../Libraries/STM32F10x_StdPeriph_Driver/src/stm32f10x_dac.c **** /**
  94:../Libraries/STM32F10x_StdPeriph_Driver/src/stm32f10x_dac.c ****   * @brief  Deinitializes the DAC peripheral registers to their default reset values.
  95:../Libraries/STM32F10x_StdPeriph_Driver/src/stm32f10x_dac.c ****   * @param  None
  96:../Libraries/STM32F10x_StdPeriph_Driver/src/stm32f10x_dac.c ****   * @retval None
  97:../Libraries/STM32F10x_StdPeriph_Driver/src/stm32f10x_dac.c ****   */
  98:../Libraries/STM32F10x_StdPeriph_Driver/src/stm32f10x_dac.c **** void DAC_DeInit(void)
  99:../Libraries/STM32F10x_StdPeriph_Driver/src/stm32f10x_dac.c **** {
 18609              		.loc 1 99 0
 18610              		.cfi_startproc
 18611              		@ args = 0, pretend = 0, frame = 0
 18612              		@ frame_needed = 0, uses_anonymous_args = 0
 100:../Libraries/STM32F10x_StdPeriph_Driver/src/stm32f10x_dac.c ****   /* Enable DAC reset state */
 101:../Libraries/STM32F10x_StdPeriph_Driver/src/stm32f10x_dac.c ****   RCC_APB1PeriphResetCmd(RCC_APB1Periph_DAC, ENABLE);
 18613              		.loc 1 101 0
 18614 0000 0121     		movs	r1, #1
  99:../Libraries/STM32F10x_StdPeriph_Driver/src/stm32f10x_dac.c **** {
 18615              		.loc 1 99 0
 18616 0002 10B5     		push	{r4, lr}
 18617              	.LCFI0:
 18618              		.cfi_def_cfa_offset 8
 18619              		.loc 1 101 0
 18620 0004 4FF00050 		mov	r0, #536870912
 18621              		.cfi_offset 14, -4
 18622              		.cfi_offset 4, -8
 18623 0008 FFF7FEFF 		bl	RCC_APB1PeriphResetCmd
 102:../Libraries/STM32F10x_StdPeriph_Driver/src/stm32f10x_dac.c ****   /* Release DAC from reset state */
 103:../Libraries/STM32F10x_StdPeriph_Driver/src/stm32f10x_dac.c ****   RCC_APB1PeriphResetCmd(RCC_APB1Periph_DAC, DISABLE);
 18624              		.loc 1 103 0
 18625 000c 4FF00050 		mov	r0, #536870912
 18626 0010 0021     		movs	r1, #0
 104:../Libraries/STM32F10x_StdPeriph_Driver/src/stm32f10x_dac.c **** }
 18627              		.loc 1 104 0
 18628 0012 BDE81040 		pop	{r4, lr}
 103:../Libraries/STM32F10x_StdPeriph_Driver/src/stm32f10x_dac.c ****   RCC_APB1PeriphResetCmd(RCC_APB1Periph_DAC, DISABLE);
 18629              		.loc 1 103 0
 18630 0016 FFF7FEBF 		b	RCC_APB1PeriphResetCmd
 18631              		.cfi_endproc
 18632              	.LFE29:
 18634              		.section	.text.DAC_Init,"ax",%progbits
 18635              		.align	1
 18636              		.global	DAC_Init
 18637              		.thumb
 18638              		.thumb_func
 18640              	DAC_Init:
 18641              	.LFB30:
 105:../Libraries/STM32F10x_StdPeriph_Driver/src/stm32f10x_dac.c **** 
 106:../Libraries/STM32F10x_StdPeriph_Driver/src/stm32f10x_dac.c **** /**
 107:../Libraries/STM32F10x_StdPeriph_Driver/src/stm32f10x_dac.c ****   * @brief  Initializes the DAC peripheral according to the specified 
 108:../Libraries/STM32F10x_StdPeriph_Driver/src/stm32f10x_dac.c ****   *         parameters in the DAC_InitStruct.
 109:../Libraries/STM32F10x_StdPeriph_Driver/src/stm32f10x_dac.c ****   * @param  DAC_Channel: the selected DAC channel. 
 110:../Libraries/STM32F10x_StdPeriph_Driver/src/stm32f10x_dac.c ****   *   This parameter can be one of the following values:
 111:../Libraries/STM32F10x_StdPeriph_Driver/src/stm32f10x_dac.c ****   *     @arg DAC_Channel_1: DAC Channel1 selected
 112:../Libraries/STM32F10x_StdPeriph_Driver/src/stm32f10x_dac.c ****   *     @arg DAC_Channel_2: DAC Channel2 selected
 113:../Libraries/STM32F10x_StdPeriph_Driver/src/stm32f10x_dac.c ****   * @param  DAC_InitStruct: pointer to a DAC_InitTypeDef structure that
 114:../Libraries/STM32F10x_StdPeriph_Driver/src/stm32f10x_dac.c ****   *        contains the configuration information for the specified DAC channel.
 115:../Libraries/STM32F10x_StdPeriph_Driver/src/stm32f10x_dac.c ****   * @retval None
 116:../Libraries/STM32F10x_StdPeriph_Driver/src/stm32f10x_dac.c ****   */
 117:../Libraries/STM32F10x_StdPeriph_Driver/src/stm32f10x_dac.c **** void DAC_Init(uint32_t DAC_Channel, DAC_InitTypeDef* DAC_InitStruct)
 118:../Libraries/STM32F10x_StdPeriph_Driver/src/stm32f10x_dac.c **** {
 18642              		.loc 1 118 0
 18643              		.cfi_startproc
 18644              		@ args = 0, pretend = 0, frame = 0
 18645              		@ frame_needed = 0, uses_anonymous_args = 0
 18646              	.LVL0:
 119:../Libraries/STM32F10x_StdPeriph_Driver/src/stm32f10x_dac.c ****   uint32_t tmpreg1 = 0, tmpreg2 = 0;
 120:../Libraries/STM32F10x_StdPeriph_Driver/src/stm32f10x_dac.c ****   /* Check the DAC parameters */
 121:../Libraries/STM32F10x_StdPeriph_Driver/src/stm32f10x_dac.c ****   assert_param(IS_DAC_TRIGGER(DAC_InitStruct->DAC_Trigger));
 122:../Libraries/STM32F10x_StdPeriph_Driver/src/stm32f10x_dac.c ****   assert_param(IS_DAC_GENERATE_WAVE(DAC_InitStruct->DAC_WaveGeneration));
 123:../Libraries/STM32F10x_StdPeriph_Driver/src/stm32f10x_dac.c ****   assert_param(IS_DAC_LFSR_UNMASK_TRIANGLE_AMPLITUDE(DAC_InitStruct->DAC_LFSRUnmask_TriangleAmplitu
 124:../Libraries/STM32F10x_StdPeriph_Driver/src/stm32f10x_dac.c ****   assert_param(IS_DAC_OUTPUT_BUFFER_STATE(DAC_InitStruct->DAC_OutputBuffer));
 125:../Libraries/STM32F10x_StdPeriph_Driver/src/stm32f10x_dac.c **** /*---------------------------- DAC CR Configuration --------------------------*/
 126:../Libraries/STM32F10x_StdPeriph_Driver/src/stm32f10x_dac.c ****   /* Get the DAC CR value */
 127:../Libraries/STM32F10x_StdPeriph_Driver/src/stm32f10x_dac.c ****   tmpreg1 = DAC->CR;
 128:../Libraries/STM32F10x_StdPeriph_Driver/src/stm32f10x_dac.c ****   /* Clear BOFFx, TENx, TSELx, WAVEx and MAMPx bits */
 129:../Libraries/STM32F10x_StdPeriph_Driver/src/stm32f10x_dac.c ****   tmpreg1 &= ~(CR_CLEAR_MASK << DAC_Channel);
 18647              		.loc 1 129 0
 18648 0000 40F6FE72 		movw	r2, #4094
 18649 0004 8240     		lsls	r2, r2, r0
 127:../Libraries/STM32F10x_StdPeriph_Driver/src/stm32f10x_dac.c ****   tmpreg1 = DAC->CR;
 18650              		.loc 1 127 0
 18651 0006 094B     		ldr	r3, .L3
 118:../Libraries/STM32F10x_StdPeriph_Driver/src/stm32f10x_dac.c **** {
 18652              		.loc 1 118 0
 18653 0008 30B5     		push	{r4, r5, lr}
 18654              	.LCFI1:
 18655              		.cfi_def_cfa_offset 12
 127:../Libraries/STM32F10x_StdPeriph_Driver/src/stm32f10x_dac.c ****   tmpreg1 = DAC->CR;
 18656              		.loc 1 127 0
 18657 000a 1C68     		ldr	r4, [r3, #0]
 18658              		.cfi_offset 14, -4
 18659              		.cfi_offset 5, -8
 18660              		.cfi_offset 4, -12
 18661              	.LVL1:
 130:../Libraries/STM32F10x_StdPeriph_Driver/src/stm32f10x_dac.c ****   /* Configure for the selected DAC channel: buffer output, trigger, wave generation,
 131:../Libraries/STM32F10x_StdPeriph_Driver/src/stm32f10x_dac.c ****      mask/amplitude for wave generation */
 132:../Libraries/STM32F10x_StdPeriph_Driver/src/stm32f10x_dac.c ****   /* Set TSELx and TENx bits according to DAC_Trigger value */
 133:../Libraries/STM32F10x_StdPeriph_Driver/src/stm32f10x_dac.c ****   /* Set WAVEx bits according to DAC_WaveGeneration value */
 134:../Libraries/STM32F10x_StdPeriph_Driver/src/stm32f10x_dac.c ****   /* Set MAMPx bits according to DAC_LFSRUnmask_TriangleAmplitude value */ 
 135:../Libraries/STM32F10x_StdPeriph_Driver/src/stm32f10x_dac.c ****   /* Set BOFFx bit according to DAC_OutputBuffer value */   
 136:../Libraries/STM32F10x_StdPeriph_Driver/src/stm32f10x_dac.c ****   tmpreg2 = (DAC_InitStruct->DAC_Trigger | DAC_InitStruct->DAC_WaveGeneration |
 18662              		.loc 1 136 0
 18663 000c 4D68     		ldr	r5, [r1, #4]
 129:../Libraries/STM32F10x_StdPeriph_Driver/src/stm32f10x_dac.c ****   tmpreg1 &= ~(CR_CLEAR_MASK << DAC_Channel);
 18664              		.loc 1 129 0
 18665 000e 24EA0202 		bic	r2, r4, r2
 18666              	.LVL2:
 18667              		.loc 1 136 0
 18668 0012 0C68     		ldr	r4, [r1, #0]
 18669 0014 2543     		orrs	r5, r5, r4
 18670 0016 8C68     		ldr	r4, [r1, #8]
 18671 0018 2543     		orrs	r5, r5, r4
 18672 001a CC68     		ldr	r4, [r1, #12]
 18673 001c 45EA0401 		orr	r1, r5, r4
 18674              	.LVL3:
 137:../Libraries/STM32F10x_StdPeriph_Driver/src/stm32f10x_dac.c ****              DAC_InitStruct->DAC_LFSRUnmask_TriangleAmplitude | DAC_InitStruct->DAC_OutputBuffer);
 138:../Libraries/STM32F10x_StdPeriph_Driver/src/stm32f10x_dac.c ****   /* Calculate CR register value depending on DAC_Channel */
 139:../Libraries/STM32F10x_StdPeriph_Driver/src/stm32f10x_dac.c ****   tmpreg1 |= tmpreg2 << DAC_Channel;
 18675              		.loc 1 139 0
 18676 0020 11FA00F0 		lsls	r0, r1, r0
 18677              	.LVL4:
 18678 0024 42EA0000 		orr	r0, r2, r0
 18679              	.LVL5:
 140:../Libraries/STM32F10x_StdPeriph_Driver/src/stm32f10x_dac.c ****   /* Write to DAC CR */
 141:../Libraries/STM32F10x_StdPeriph_Driver/src/stm32f10x_dac.c ****   DAC->CR = tmpreg1;
 18680              		.loc 1 141 0
 18681 0028 1860     		str	r0, [r3, #0]
 142:../Libraries/STM32F10x_StdPeriph_Driver/src/stm32f10x_dac.c **** }
 18682              		.loc 1 142 0
 18683 002a 30BD     		pop	{r4, r5, pc}
 18684              	.L4:
 18685              		.align	2
 18686              	.L3:
 18687 002c 00740040 		.word	1073771520
 18688              		.cfi_endproc
 18689              	.LFE30:
 18691              		.section	.text.DAC_StructInit,"ax",%progbits
 18692              		.align	1
 18693              		.global	DAC_StructInit
 18694              		.thumb
 18695              		.thumb_func
 18697              	DAC_StructInit:
 18698              	.LFB31:
 143:../Libraries/STM32F10x_StdPeriph_Driver/src/stm32f10x_dac.c **** 
 144:../Libraries/STM32F10x_StdPeriph_Driver/src/stm32f10x_dac.c **** /**
 145:../Libraries/STM32F10x_StdPeriph_Driver/src/stm32f10x_dac.c ****   * @brief  Fills each DAC_InitStruct member with its default value.
 146:../Libraries/STM32F10x_StdPeriph_Driver/src/stm32f10x_dac.c ****   * @param  DAC_InitStruct : pointer to a DAC_InitTypeDef structure which will
 147:../Libraries/STM32F10x_StdPeriph_Driver/src/stm32f10x_dac.c ****   *         be initialized.
 148:../Libraries/STM32F10x_StdPeriph_Driver/src/stm32f10x_dac.c ****   * @retval None
 149:../Libraries/STM32F10x_StdPeriph_Driver/src/stm32f10x_dac.c ****   */
 150:../Libraries/STM32F10x_StdPeriph_Driver/src/stm32f10x_dac.c **** void DAC_StructInit(DAC_InitTypeDef* DAC_InitStruct)
 151:../Libraries/STM32F10x_StdPeriph_Driver/src/stm32f10x_dac.c **** {
 18699              		.loc 1 151 0
 18700              		.cfi_startproc
 18701              		@ args = 0, pretend = 0, frame = 0
 18702              		@ frame_needed = 0, uses_anonymous_args = 0
 18703              		@ link register save eliminated.
 18704              	.LVL6:
 152:../Libraries/STM32F10x_StdPeriph_Driver/src/stm32f10x_dac.c **** /*--------------- Reset DAC init structure parameters values -----------------*/
 153:../Libraries/STM32F10x_StdPeriph_Driver/src/stm32f10x_dac.c ****   /* Initialize the DAC_Trigger member */
 154:../Libraries/STM32F10x_StdPeriph_Driver/src/stm32f10x_dac.c ****   DAC_InitStruct->DAC_Trigger = DAC_Trigger_None;
 18705              		.loc 1 154 0
 18706 0000 0023     		movs	r3, #0
 18707 0002 0360     		str	r3, [r0, #0]
 155:../Libraries/STM32F10x_StdPeriph_Driver/src/stm32f10x_dac.c ****   /* Initialize the DAC_WaveGeneration member */
 156:../Libraries/STM32F10x_StdPeriph_Driver/src/stm32f10x_dac.c ****   DAC_InitStruct->DAC_WaveGeneration = DAC_WaveGeneration_None;
 18708              		.loc 1 156 0
 18709 0004 4360     		str	r3, [r0, #4]
 157:../Libraries/STM32F10x_StdPeriph_Driver/src/stm32f10x_dac.c ****   /* Initialize the DAC_LFSRUnmask_TriangleAmplitude member */
 158:../Libraries/STM32F10x_StdPeriph_Driver/src/stm32f10x_dac.c ****   DAC_InitStruct->DAC_LFSRUnmask_TriangleAmplitude = DAC_LFSRUnmask_Bit0;
 18710              		.loc 1 158 0
 18711 0006 8360     		str	r3, [r0, #8]
 159:../Libraries/STM32F10x_StdPeriph_Driver/src/stm32f10x_dac.c ****   /* Initialize the DAC_OutputBuffer member */
 160:../Libraries/STM32F10x_StdPeriph_Driver/src/stm32f10x_dac.c ****   DAC_InitStruct->DAC_OutputBuffer = DAC_OutputBuffer_Enable;
 18712              		.loc 1 160 0
 18713 0008 C360     		str	r3, [r0, #12]
 161:../Libraries/STM32F10x_StdPeriph_Driver/src/stm32f10x_dac.c **** }
 18714              		.loc 1 161 0
 18715 000a 7047     		bx	lr
 18716              		.cfi_endproc
 18717              	.LFE31:
 18719              		.section	.text.DAC_Cmd,"ax",%progbits
 18720              		.align	1
 18721              		.global	DAC_Cmd
 18722              		.thumb
 18723              		.thumb_func
 18725              	DAC_Cmd:
 18726              	.LFB32:
 162:../Libraries/STM32F10x_StdPeriph_Driver/src/stm32f10x_dac.c **** 
 163:../Libraries/STM32F10x_StdPeriph_Driver/src/stm32f10x_dac.c **** /**
 164:../Libraries/STM32F10x_StdPeriph_Driver/src/stm32f10x_dac.c ****   * @brief  Enables or disables the specified DAC channel.
 165:../Libraries/STM32F10x_StdPeriph_Driver/src/stm32f10x_dac.c ****   * @param  DAC_Channel: the selected DAC channel. 
 166:../Libraries/STM32F10x_StdPeriph_Driver/src/stm32f10x_dac.c ****   *   This parameter can be one of the following values:
 167:../Libraries/STM32F10x_StdPeriph_Driver/src/stm32f10x_dac.c ****   *     @arg DAC_Channel_1: DAC Channel1 selected
 168:../Libraries/STM32F10x_StdPeriph_Driver/src/stm32f10x_dac.c ****   *     @arg DAC_Channel_2: DAC Channel2 selected
 169:../Libraries/STM32F10x_StdPeriph_Driver/src/stm32f10x_dac.c ****   * @param  NewState: new state of the DAC channel. 
 170:../Libraries/STM32F10x_StdPeriph_Driver/src/stm32f10x_dac.c ****   *   This parameter can be: ENABLE or DISABLE.
 171:../Libraries/STM32F10x_StdPeriph_Driver/src/stm32f10x_dac.c ****   * @retval None
 172:../Libraries/STM32F10x_StdPeriph_Driver/src/stm32f10x_dac.c ****   */
 173:../Libraries/STM32F10x_StdPeriph_Driver/src/stm32f10x_dac.c **** void DAC_Cmd(uint32_t DAC_Channel, FunctionalState NewState)
 174:../Libraries/STM32F10x_StdPeriph_Driver/src/stm32f10x_dac.c **** {
 18727              		.loc 1 174 0
 18728              		.cfi_startproc
 18729              		@ args = 0, pretend = 0, frame = 0
 18730              		@ frame_needed = 0, uses_anonymous_args = 0
 18731              		@ link register save eliminated.
 18732              	.LVL7:
 18733 0000 064B     		ldr	r3, .L10
 18734 0002 0122     		movs	r2, #1
 175:../Libraries/STM32F10x_StdPeriph_Driver/src/stm32f10x_dac.c ****   /* Check the parameters */
 176:../Libraries/STM32F10x_StdPeriph_Driver/src/stm32f10x_dac.c ****   assert_param(IS_DAC_CHANNEL(DAC_Channel));
 177:../Libraries/STM32F10x_StdPeriph_Driver/src/stm32f10x_dac.c ****   assert_param(IS_FUNCTIONAL_STATE(NewState));
 178:../Libraries/STM32F10x_StdPeriph_Driver/src/stm32f10x_dac.c ****   if (NewState != DISABLE)
 18735              		.loc 1 178 0
 18736 0004 19B1     		cbz	r1, .L7
 179:../Libraries/STM32F10x_StdPeriph_Driver/src/stm32f10x_dac.c ****   {
 180:../Libraries/STM32F10x_StdPeriph_Driver/src/stm32f10x_dac.c ****     /* Enable the selected DAC channel */
 181:../Libraries/STM32F10x_StdPeriph_Driver/src/stm32f10x_dac.c ****     DAC->CR |= (DAC_CR_EN1 << DAC_Channel);
 18737              		.loc 1 181 0
 18738 0006 8240     		lsls	r2, r2, r0
 18739 0008 1968     		ldr	r1, [r3, #0]
 18740              	.LVL8:
 18741 000a 0A43     		orrs	r2, r2, r1
 18742 000c 03E0     		b	.L9
 18743              	.LVL9:
 18744              	.L7:
 182:../Libraries/STM32F10x_StdPeriph_Driver/src/stm32f10x_dac.c ****   }
 183:../Libraries/STM32F10x_StdPeriph_Driver/src/stm32f10x_dac.c ****   else
 184:../Libraries/STM32F10x_StdPeriph_Driver/src/stm32f10x_dac.c ****   {
 185:../Libraries/STM32F10x_StdPeriph_Driver/src/stm32f10x_dac.c ****     /* Disable the selected DAC channel */
 186:../Libraries/STM32F10x_StdPeriph_Driver/src/stm32f10x_dac.c ****     DAC->CR &= ~(DAC_CR_EN1 << DAC_Channel);
 18745              		.loc 1 186 0
 18746 000e 8240     		lsls	r2, r2, r0
 18747 0010 1968     		ldr	r1, [r3, #0]
 18748              	.LVL10:
 18749 0012 21EA0202 		bic	r2, r1, r2
 18750              	.L9:
 18751 0016 1A60     		str	r2, [r3, #0]
 18752 0018 7047     		bx	lr
 18753              	.L11:
 18754 001a 00BF     		.align	2
 18755              	.L10:
 18756 001c 00740040 		.word	1073771520
 18757              		.cfi_endproc
 18758              	.LFE32:
 18760              		.section	.text.DAC_DMACmd,"ax",%progbits
 18761              		.align	1
 18762              		.global	DAC_DMACmd
 18763              		.thumb
 18764              		.thumb_func
 18766              	DAC_DMACmd:
 18767              	.LFB33:
 187:../Libraries/STM32F10x_StdPeriph_Driver/src/stm32f10x_dac.c ****   }
 188:../Libraries/STM32F10x_StdPeriph_Driver/src/stm32f10x_dac.c **** }
 189:../Libraries/STM32F10x_StdPeriph_Driver/src/stm32f10x_dac.c **** #if defined (STM32F10X_LD_VL) || defined (STM32F10X_MD_VL) || defined (STM32F10X_HD_VL)
 190:../Libraries/STM32F10x_StdPeriph_Driver/src/stm32f10x_dac.c **** /**
 191:../Libraries/STM32F10x_StdPeriph_Driver/src/stm32f10x_dac.c ****   * @brief  Enables or disables the specified DAC interrupts.
 192:../Libraries/STM32F10x_StdPeriph_Driver/src/stm32f10x_dac.c ****   * @param  DAC_Channel: the selected DAC channel. 
 193:../Libraries/STM32F10x_StdPeriph_Driver/src/stm32f10x_dac.c ****   *   This parameter can be one of the following values:
 194:../Libraries/STM32F10x_StdPeriph_Driver/src/stm32f10x_dac.c ****   *     @arg DAC_Channel_1: DAC Channel1 selected
 195:../Libraries/STM32F10x_StdPeriph_Driver/src/stm32f10x_dac.c ****   *     @arg DAC_Channel_2: DAC Channel2 selected
 196:../Libraries/STM32F10x_StdPeriph_Driver/src/stm32f10x_dac.c ****   * @param  DAC_IT: specifies the DAC interrupt sources to be enabled or disabled. 
 197:../Libraries/STM32F10x_StdPeriph_Driver/src/stm32f10x_dac.c ****   *   This parameter can be the following values:
 198:../Libraries/STM32F10x_StdPeriph_Driver/src/stm32f10x_dac.c ****   *     @arg DAC_IT_DMAUDR: DMA underrun interrupt mask                      
 199:../Libraries/STM32F10x_StdPeriph_Driver/src/stm32f10x_dac.c ****   * @param  NewState: new state of the specified DAC interrupts.
 200:../Libraries/STM32F10x_StdPeriph_Driver/src/stm32f10x_dac.c ****   *   This parameter can be: ENABLE or DISABLE.
 201:../Libraries/STM32F10x_StdPeriph_Driver/src/stm32f10x_dac.c ****   * @retval None
 202:../Libraries/STM32F10x_StdPeriph_Driver/src/stm32f10x_dac.c ****   */ 
 203:../Libraries/STM32F10x_StdPeriph_Driver/src/stm32f10x_dac.c **** void DAC_ITConfig(uint32_t DAC_Channel, uint32_t DAC_IT, FunctionalState NewState)  
 204:../Libraries/STM32F10x_StdPeriph_Driver/src/stm32f10x_dac.c **** {
 205:../Libraries/STM32F10x_StdPeriph_Driver/src/stm32f10x_dac.c ****   /* Check the parameters */
 206:../Libraries/STM32F10x_StdPeriph_Driver/src/stm32f10x_dac.c ****   assert_param(IS_DAC_CHANNEL(DAC_Channel));
 207:../Libraries/STM32F10x_StdPeriph_Driver/src/stm32f10x_dac.c ****   assert_param(IS_FUNCTIONAL_STATE(NewState));
 208:../Libraries/STM32F10x_StdPeriph_Driver/src/stm32f10x_dac.c ****   assert_param(IS_DAC_IT(DAC_IT)); 
 209:../Libraries/STM32F10x_StdPeriph_Driver/src/stm32f10x_dac.c **** 
 210:../Libraries/STM32F10x_StdPeriph_Driver/src/stm32f10x_dac.c ****   if (NewState != DISABLE)
 211:../Libraries/STM32F10x_StdPeriph_Driver/src/stm32f10x_dac.c ****   {
 212:../Libraries/STM32F10x_StdPeriph_Driver/src/stm32f10x_dac.c ****     /* Enable the selected DAC interrupts */
 213:../Libraries/STM32F10x_StdPeriph_Driver/src/stm32f10x_dac.c ****     DAC->CR |=  (DAC_IT << DAC_Channel);
 214:../Libraries/STM32F10x_StdPeriph_Driver/src/stm32f10x_dac.c ****   }
 215:../Libraries/STM32F10x_StdPeriph_Driver/src/stm32f10x_dac.c ****   else
 216:../Libraries/STM32F10x_StdPeriph_Driver/src/stm32f10x_dac.c ****   {
 217:../Libraries/STM32F10x_StdPeriph_Driver/src/stm32f10x_dac.c ****     /* Disable the selected DAC interrupts */
 218:../Libraries/STM32F10x_StdPeriph_Driver/src/stm32f10x_dac.c ****     DAC->CR &= (~(uint32_t)(DAC_IT << DAC_Channel));
 219:../Libraries/STM32F10x_StdPeriph_Driver/src/stm32f10x_dac.c ****   }
 220:../Libraries/STM32F10x_StdPeriph_Driver/src/stm32f10x_dac.c **** }
 221:../Libraries/STM32F10x_StdPeriph_Driver/src/stm32f10x_dac.c **** #endif
 222:../Libraries/STM32F10x_StdPeriph_Driver/src/stm32f10x_dac.c **** 
 223:../Libraries/STM32F10x_StdPeriph_Driver/src/stm32f10x_dac.c **** /**
 224:../Libraries/STM32F10x_StdPeriph_Driver/src/stm32f10x_dac.c ****   * @brief  Enables or disables the specified DAC channel DMA request.
 225:../Libraries/STM32F10x_StdPeriph_Driver/src/stm32f10x_dac.c ****   * @param  DAC_Channel: the selected DAC channel. 
 226:../Libraries/STM32F10x_StdPeriph_Driver/src/stm32f10x_dac.c ****   *   This parameter can be one of the following values:
 227:../Libraries/STM32F10x_StdPeriph_Driver/src/stm32f10x_dac.c ****   *     @arg DAC_Channel_1: DAC Channel1 selected
 228:../Libraries/STM32F10x_StdPeriph_Driver/src/stm32f10x_dac.c ****   *     @arg DAC_Channel_2: DAC Channel2 selected
 229:../Libraries/STM32F10x_StdPeriph_Driver/src/stm32f10x_dac.c ****   * @param  NewState: new state of the selected DAC channel DMA request.
 230:../Libraries/STM32F10x_StdPeriph_Driver/src/stm32f10x_dac.c ****   *   This parameter can be: ENABLE or DISABLE.
 231:../Libraries/STM32F10x_StdPeriph_Driver/src/stm32f10x_dac.c ****   * @retval None
 232:../Libraries/STM32F10x_StdPeriph_Driver/src/stm32f10x_dac.c ****   */
 233:../Libraries/STM32F10x_StdPeriph_Driver/src/stm32f10x_dac.c **** void DAC_DMACmd(uint32_t DAC_Channel, FunctionalState NewState)
 234:../Libraries/STM32F10x_StdPeriph_Driver/src/stm32f10x_dac.c **** {
 18768              		.loc 1 234 0
 18769              		.cfi_startproc
 18770              		@ args = 0, pretend = 0, frame = 0
 18771              		@ frame_needed = 0, uses_anonymous_args = 0
 18772              		@ link register save eliminated.
 18773              	.LVL11:
 18774 0000 064B     		ldr	r3, .L16
 18775 0002 4FF48052 		mov	r2, #4096
 235:../Libraries/STM32F10x_StdPeriph_Driver/src/stm32f10x_dac.c ****   /* Check the parameters */
 236:../Libraries/STM32F10x_StdPeriph_Driver/src/stm32f10x_dac.c ****   assert_param(IS_DAC_CHANNEL(DAC_Channel));
 237:../Libraries/STM32F10x_StdPeriph_Driver/src/stm32f10x_dac.c ****   assert_param(IS_FUNCTIONAL_STATE(NewState));
 238:../Libraries/STM32F10x_StdPeriph_Driver/src/stm32f10x_dac.c ****   if (NewState != DISABLE)
 18776              		.loc 1 238 0
 18777 0006 19B1     		cbz	r1, .L13
 239:../Libraries/STM32F10x_StdPeriph_Driver/src/stm32f10x_dac.c ****   {
 240:../Libraries/STM32F10x_StdPeriph_Driver/src/stm32f10x_dac.c ****     /* Enable the selected DAC channel DMA request */
 241:../Libraries/STM32F10x_StdPeriph_Driver/src/stm32f10x_dac.c ****     DAC->CR |= (DAC_CR_DMAEN1 << DAC_Channel);
 18778              		.loc 1 241 0
 18779 0008 8240     		lsls	r2, r2, r0
 18780 000a 1968     		ldr	r1, [r3, #0]
 18781              	.LVL12:
 18782 000c 0A43     		orrs	r2, r2, r1
 18783 000e 03E0     		b	.L15
 18784              	.LVL13:
 18785              	.L13:
 242:../Libraries/STM32F10x_StdPeriph_Driver/src/stm32f10x_dac.c ****   }
 243:../Libraries/STM32F10x_StdPeriph_Driver/src/stm32f10x_dac.c ****   else
 244:../Libraries/STM32F10x_StdPeriph_Driver/src/stm32f10x_dac.c ****   {
 245:../Libraries/STM32F10x_StdPeriph_Driver/src/stm32f10x_dac.c ****     /* Disable the selected DAC channel DMA request */
 246:../Libraries/STM32F10x_StdPeriph_Driver/src/stm32f10x_dac.c ****     DAC->CR &= ~(DAC_CR_DMAEN1 << DAC_Channel);
 18786              		.loc 1 246 0
 18787 0010 8240     		lsls	r2, r2, r0
 18788 0012 1968     		ldr	r1, [r3, #0]
 18789              	.LVL14:
 18790 0014 21EA0202 		bic	r2, r1, r2
 18791              	.L15:
 18792 0018 1A60     		str	r2, [r3, #0]
 18793 001a 7047     		bx	lr
 18794              	.L17:
 18795              		.align	2
 18796              	.L16:
 18797 001c 00740040 		.word	1073771520
 18798              		.cfi_endproc
 18799              	.LFE33:
 18801              		.section	.text.DAC_SoftwareTriggerCmd,"ax",%progbits
 18802              		.align	1
 18803              		.global	DAC_SoftwareTriggerCmd
 18804              		.thumb
 18805              		.thumb_func
 18807              	DAC_SoftwareTriggerCmd:
 18808              	.LFB34:
 247:../Libraries/STM32F10x_StdPeriph_Driver/src/stm32f10x_dac.c ****   }
 248:../Libraries/STM32F10x_StdPeriph_Driver/src/stm32f10x_dac.c **** }
 249:../Libraries/STM32F10x_StdPeriph_Driver/src/stm32f10x_dac.c **** 
 250:../Libraries/STM32F10x_StdPeriph_Driver/src/stm32f10x_dac.c **** /**
 251:../Libraries/STM32F10x_StdPeriph_Driver/src/stm32f10x_dac.c ****   * @brief  Enables or disables the selected DAC channel software trigger.
 252:../Libraries/STM32F10x_StdPeriph_Driver/src/stm32f10x_dac.c ****   * @param  DAC_Channel: the selected DAC channel. 
 253:../Libraries/STM32F10x_StdPeriph_Driver/src/stm32f10x_dac.c ****   *   This parameter can be one of the following values:
 254:../Libraries/STM32F10x_StdPeriph_Driver/src/stm32f10x_dac.c ****   *     @arg DAC_Channel_1: DAC Channel1 selected
 255:../Libraries/STM32F10x_StdPeriph_Driver/src/stm32f10x_dac.c ****   *     @arg DAC_Channel_2: DAC Channel2 selected
 256:../Libraries/STM32F10x_StdPeriph_Driver/src/stm32f10x_dac.c ****   * @param  NewState: new state of the selected DAC channel software trigger.
 257:../Libraries/STM32F10x_StdPeriph_Driver/src/stm32f10x_dac.c ****   *   This parameter can be: ENABLE or DISABLE.
 258:../Libraries/STM32F10x_StdPeriph_Driver/src/stm32f10x_dac.c ****   * @retval None
 259:../Libraries/STM32F10x_StdPeriph_Driver/src/stm32f10x_dac.c ****   */
 260:../Libraries/STM32F10x_StdPeriph_Driver/src/stm32f10x_dac.c **** void DAC_SoftwareTriggerCmd(uint32_t DAC_Channel, FunctionalState NewState)
 261:../Libraries/STM32F10x_StdPeriph_Driver/src/stm32f10x_dac.c **** {
 18809              		.loc 1 261 0
 18810              		.cfi_startproc
 18811              		@ args = 0, pretend = 0, frame = 0
 18812              		@ frame_needed = 0, uses_anonymous_args = 0
 18813              		@ link register save eliminated.
 18814              	.LVL15:
 18815 0000 064B     		ldr	r3, .L22
 18816 0002 0009     		lsrs	r0, r0, #4
 18817              	.LVL16:
 18818 0004 0122     		movs	r2, #1
 262:../Libraries/STM32F10x_StdPeriph_Driver/src/stm32f10x_dac.c ****   /* Check the parameters */
 263:../Libraries/STM32F10x_StdPeriph_Driver/src/stm32f10x_dac.c ****   assert_param(IS_DAC_CHANNEL(DAC_Channel));
 264:../Libraries/STM32F10x_StdPeriph_Driver/src/stm32f10x_dac.c ****   assert_param(IS_FUNCTIONAL_STATE(NewState));
 265:../Libraries/STM32F10x_StdPeriph_Driver/src/stm32f10x_dac.c ****   if (NewState != DISABLE)
 18819              		.loc 1 265 0
 18820 0006 19B1     		cbz	r1, .L19
 266:../Libraries/STM32F10x_StdPeriph_Driver/src/stm32f10x_dac.c ****   {
 267:../Libraries/STM32F10x_StdPeriph_Driver/src/stm32f10x_dac.c ****     /* Enable software trigger for the selected DAC channel */
 268:../Libraries/STM32F10x_StdPeriph_Driver/src/stm32f10x_dac.c ****     DAC->SWTRIGR |= (uint32_t)DAC_SWTRIGR_SWTRIG1 << (DAC_Channel >> 4);
 18821              		.loc 1 268 0
 18822 0008 8240     		lsls	r2, r2, r0
 18823 000a 5968     		ldr	r1, [r3, #4]
 18824              	.LVL17:
 18825 000c 0A43     		orrs	r2, r2, r1
 18826 000e 03E0     		b	.L21
 18827              	.LVL18:
 18828              	.L19:
 269:../Libraries/STM32F10x_StdPeriph_Driver/src/stm32f10x_dac.c ****   }
 270:../Libraries/STM32F10x_StdPeriph_Driver/src/stm32f10x_dac.c ****   else
 271:../Libraries/STM32F10x_StdPeriph_Driver/src/stm32f10x_dac.c ****   {
 272:../Libraries/STM32F10x_StdPeriph_Driver/src/stm32f10x_dac.c ****     /* Disable software trigger for the selected DAC channel */
 273:../Libraries/STM32F10x_StdPeriph_Driver/src/stm32f10x_dac.c ****     DAC->SWTRIGR &= ~((uint32_t)DAC_SWTRIGR_SWTRIG1 << (DAC_Channel >> 4));
 18829              		.loc 1 273 0
 18830 0010 8240     		lsls	r2, r2, r0
 18831 0012 5968     		ldr	r1, [r3, #4]
 18832              	.LVL19:
 18833 0014 21EA0202 		bic	r2, r1, r2
 18834              	.L21:
 18835 0018 5A60     		str	r2, [r3, #4]
 18836 001a 7047     		bx	lr
 18837              	.L23:
 18838              		.align	2
 18839              	.L22:
 18840 001c 00740040 		.word	1073771520
 18841              		.cfi_endproc
 18842              	.LFE34:
 18844              		.section	.text.DAC_DualSoftwareTriggerCmd,"ax",%progbits
 18845              		.align	1
 18846              		.global	DAC_DualSoftwareTriggerCmd
 18847              		.thumb
 18848              		.thumb_func
 18850              	DAC_DualSoftwareTriggerCmd:
 18851              	.LFB35:
 274:../Libraries/STM32F10x_StdPeriph_Driver/src/stm32f10x_dac.c ****   }
 275:../Libraries/STM32F10x_StdPeriph_Driver/src/stm32f10x_dac.c **** }
 276:../Libraries/STM32F10x_StdPeriph_Driver/src/stm32f10x_dac.c **** 
 277:../Libraries/STM32F10x_StdPeriph_Driver/src/stm32f10x_dac.c **** /**
 278:../Libraries/STM32F10x_StdPeriph_Driver/src/stm32f10x_dac.c ****   * @brief  Enables or disables simultaneously the two DAC channels software
 279:../Libraries/STM32F10x_StdPeriph_Driver/src/stm32f10x_dac.c ****   *   triggers.
 280:../Libraries/STM32F10x_StdPeriph_Driver/src/stm32f10x_dac.c ****   * @param  NewState: new state of the DAC channels software triggers.
 281:../Libraries/STM32F10x_StdPeriph_Driver/src/stm32f10x_dac.c ****   *   This parameter can be: ENABLE or DISABLE.
 282:../Libraries/STM32F10x_StdPeriph_Driver/src/stm32f10x_dac.c ****   * @retval None
 283:../Libraries/STM32F10x_StdPeriph_Driver/src/stm32f10x_dac.c ****   */
 284:../Libraries/STM32F10x_StdPeriph_Driver/src/stm32f10x_dac.c **** void DAC_DualSoftwareTriggerCmd(FunctionalState NewState)
 285:../Libraries/STM32F10x_StdPeriph_Driver/src/stm32f10x_dac.c **** {
 18852              		.loc 1 285 0
 18853              		.cfi_startproc
 18854              		@ args = 0, pretend = 0, frame = 0
 18855              		@ frame_needed = 0, uses_anonymous_args = 0
 18856              		@ link register save eliminated.
 18857              	.LVL20:
 18858 0000 054B     		ldr	r3, .L28
 286:../Libraries/STM32F10x_StdPeriph_Driver/src/stm32f10x_dac.c ****   /* Check the parameters */
 287:../Libraries/STM32F10x_StdPeriph_Driver/src/stm32f10x_dac.c ****   assert_param(IS_FUNCTIONAL_STATE(NewState));
 288:../Libraries/STM32F10x_StdPeriph_Driver/src/stm32f10x_dac.c ****   if (NewState != DISABLE)
 18859              		.loc 1 288 0
 18860 0002 18B1     		cbz	r0, .L25
 289:../Libraries/STM32F10x_StdPeriph_Driver/src/stm32f10x_dac.c ****   {
 290:../Libraries/STM32F10x_StdPeriph_Driver/src/stm32f10x_dac.c ****     /* Enable software trigger for both DAC channels */
 291:../Libraries/STM32F10x_StdPeriph_Driver/src/stm32f10x_dac.c ****     DAC->SWTRIGR |= DUAL_SWTRIG_SET ;
 18861              		.loc 1 291 0
 18862 0004 5A68     		ldr	r2, [r3, #4]
 18863 0006 42F00302 		orr	r2, r2, #3
 18864 000a 02E0     		b	.L27
 18865              	.L25:
 292:../Libraries/STM32F10x_StdPeriph_Driver/src/stm32f10x_dac.c ****   }
 293:../Libraries/STM32F10x_StdPeriph_Driver/src/stm32f10x_dac.c ****   else
 294:../Libraries/STM32F10x_StdPeriph_Driver/src/stm32f10x_dac.c ****   {
 295:../Libraries/STM32F10x_StdPeriph_Driver/src/stm32f10x_dac.c ****     /* Disable software trigger for both DAC channels */
 296:../Libraries/STM32F10x_StdPeriph_Driver/src/stm32f10x_dac.c ****     DAC->SWTRIGR &= DUAL_SWTRIG_RESET;
 18866              		.loc 1 296 0
 18867 000c 5A68     		ldr	r2, [r3, #4]
 18868 000e 22F00302 		bic	r2, r2, #3
 18869              	.L27:
 18870 0012 5A60     		str	r2, [r3, #4]
 18871 0014 7047     		bx	lr
 18872              	.L29:
 18873 0016 00BF     		.align	2
 18874              	.L28:
 18875 0018 00740040 		.word	1073771520
 18876              		.cfi_endproc
 18877              	.LFE35:
 18879              		.section	.text.DAC_WaveGenerationCmd,"ax",%progbits
 18880              		.align	1
 18881              		.global	DAC_WaveGenerationCmd
 18882              		.thumb
 18883              		.thumb_func
 18885              	DAC_WaveGenerationCmd:
 18886              	.LFB36:
 297:../Libraries/STM32F10x_StdPeriph_Driver/src/stm32f10x_dac.c ****   }
 298:../Libraries/STM32F10x_StdPeriph_Driver/src/stm32f10x_dac.c **** }
 299:../Libraries/STM32F10x_StdPeriph_Driver/src/stm32f10x_dac.c **** 
 300:../Libraries/STM32F10x_StdPeriph_Driver/src/stm32f10x_dac.c **** /**
 301:../Libraries/STM32F10x_StdPeriph_Driver/src/stm32f10x_dac.c ****   * @brief  Enables or disables the selected DAC channel wave generation.
 302:../Libraries/STM32F10x_StdPeriph_Driver/src/stm32f10x_dac.c ****   * @param  DAC_Channel: the selected DAC channel. 
 303:../Libraries/STM32F10x_StdPeriph_Driver/src/stm32f10x_dac.c ****   *   This parameter can be one of the following values:
 304:../Libraries/STM32F10x_StdPeriph_Driver/src/stm32f10x_dac.c ****   *     @arg DAC_Channel_1: DAC Channel1 selected
 305:../Libraries/STM32F10x_StdPeriph_Driver/src/stm32f10x_dac.c ****   *     @arg DAC_Channel_2: DAC Channel2 selected
 306:../Libraries/STM32F10x_StdPeriph_Driver/src/stm32f10x_dac.c ****   * @param  DAC_Wave: Specifies the wave type to enable or disable.
 307:../Libraries/STM32F10x_StdPeriph_Driver/src/stm32f10x_dac.c ****   *   This parameter can be one of the following values:
 308:../Libraries/STM32F10x_StdPeriph_Driver/src/stm32f10x_dac.c ****   *     @arg DAC_Wave_Noise: noise wave generation
 309:../Libraries/STM32F10x_StdPeriph_Driver/src/stm32f10x_dac.c ****   *     @arg DAC_Wave_Triangle: triangle wave generation
 310:../Libraries/STM32F10x_StdPeriph_Driver/src/stm32f10x_dac.c ****   * @param  NewState: new state of the selected DAC channel wave generation.
 311:../Libraries/STM32F10x_StdPeriph_Driver/src/stm32f10x_dac.c ****   *   This parameter can be: ENABLE or DISABLE.
 312:../Libraries/STM32F10x_StdPeriph_Driver/src/stm32f10x_dac.c ****   * @retval None
 313:../Libraries/STM32F10x_StdPeriph_Driver/src/stm32f10x_dac.c ****   */
 314:../Libraries/STM32F10x_StdPeriph_Driver/src/stm32f10x_dac.c **** void DAC_WaveGenerationCmd(uint32_t DAC_Channel, uint32_t DAC_Wave, FunctionalState NewState)
 315:../Libraries/STM32F10x_StdPeriph_Driver/src/stm32f10x_dac.c **** {
 18887              		.loc 1 315 0
 18888              		.cfi_startproc
 18889              		@ args = 0, pretend = 0, frame = 0
 18890              		@ frame_needed = 0, uses_anonymous_args = 0
 18891              		@ link register save eliminated.
 18892              	.LVL21:
 18893 0000 054B     		ldr	r3, .L34
 18894 0002 8140     		lsls	r1, r1, r0
 18895              	.LVL22:
 316:../Libraries/STM32F10x_StdPeriph_Driver/src/stm32f10x_dac.c ****   /* Check the parameters */
 317:../Libraries/STM32F10x_StdPeriph_Driver/src/stm32f10x_dac.c ****   assert_param(IS_DAC_CHANNEL(DAC_Channel));
 318:../Libraries/STM32F10x_StdPeriph_Driver/src/stm32f10x_dac.c ****   assert_param(IS_DAC_WAVE(DAC_Wave)); 
 319:../Libraries/STM32F10x_StdPeriph_Driver/src/stm32f10x_dac.c ****   assert_param(IS_FUNCTIONAL_STATE(NewState));
 320:../Libraries/STM32F10x_StdPeriph_Driver/src/stm32f10x_dac.c ****   if (NewState != DISABLE)
 18896              		.loc 1 320 0
 18897 0004 12B1     		cbz	r2, .L31
 321:../Libraries/STM32F10x_StdPeriph_Driver/src/stm32f10x_dac.c ****   {
 322:../Libraries/STM32F10x_StdPeriph_Driver/src/stm32f10x_dac.c ****     /* Enable the selected wave generation for the selected DAC channel */
 323:../Libraries/STM32F10x_StdPeriph_Driver/src/stm32f10x_dac.c ****     DAC->CR |= DAC_Wave << DAC_Channel;
 18898              		.loc 1 323 0
 18899 0006 1A68     		ldr	r2, [r3, #0]
 18900              	.LVL23:
 18901 0008 1143     		orrs	r1, r1, r2
 18902 000a 02E0     		b	.L33
 18903              	.LVL24:
 18904              	.L31:
 324:../Libraries/STM32F10x_StdPeriph_Driver/src/stm32f10x_dac.c ****   }
 325:../Libraries/STM32F10x_StdPeriph_Driver/src/stm32f10x_dac.c ****   else
 326:../Libraries/STM32F10x_StdPeriph_Driver/src/stm32f10x_dac.c ****   {
 327:../Libraries/STM32F10x_StdPeriph_Driver/src/stm32f10x_dac.c ****     /* Disable the selected wave generation for the selected DAC channel */
 328:../Libraries/STM32F10x_StdPeriph_Driver/src/stm32f10x_dac.c ****     DAC->CR &= ~(DAC_Wave << DAC_Channel);
 18905              		.loc 1 328 0
 18906 000c 1A68     		ldr	r2, [r3, #0]
 18907              	.LVL25:
 18908 000e 22EA0101 		bic	r1, r2, r1
 18909              	.L33:
 18910 0012 1960     		str	r1, [r3, #0]
 18911 0014 7047     		bx	lr
 18912              	.L35:
 18913 0016 00BF     		.align	2
 18914              	.L34:
 18915 0018 00740040 		.word	1073771520
 18916              		.cfi_endproc
 18917              	.LFE36:
 18919              		.section	.text.DAC_SetChannel1Data,"ax",%progbits
 18920              		.align	1
 18921              		.global	DAC_SetChannel1Data
 18922              		.thumb
 18923              		.thumb_func
 18925              	DAC_SetChannel1Data:
 18926              	.LFB37:
 329:../Libraries/STM32F10x_StdPeriph_Driver/src/stm32f10x_dac.c ****   }
 330:../Libraries/STM32F10x_StdPeriph_Driver/src/stm32f10x_dac.c **** }
 331:../Libraries/STM32F10x_StdPeriph_Driver/src/stm32f10x_dac.c **** 
 332:../Libraries/STM32F10x_StdPeriph_Driver/src/stm32f10x_dac.c **** /**
 333:../Libraries/STM32F10x_StdPeriph_Driver/src/stm32f10x_dac.c ****   * @brief  Set the specified data holding register value for DAC channel1.
 334:../Libraries/STM32F10x_StdPeriph_Driver/src/stm32f10x_dac.c ****   * @param  DAC_Align: Specifies the data alignment for DAC channel1.
 335:../Libraries/STM32F10x_StdPeriph_Driver/src/stm32f10x_dac.c ****   *   This parameter can be one of the following values:
 336:../Libraries/STM32F10x_StdPeriph_Driver/src/stm32f10x_dac.c ****   *     @arg DAC_Align_8b_R: 8bit right data alignment selected
 337:../Libraries/STM32F10x_StdPeriph_Driver/src/stm32f10x_dac.c ****   *     @arg DAC_Align_12b_L: 12bit left data alignment selected
 338:../Libraries/STM32F10x_StdPeriph_Driver/src/stm32f10x_dac.c ****   *     @arg DAC_Align_12b_R: 12bit right data alignment selected
 339:../Libraries/STM32F10x_StdPeriph_Driver/src/stm32f10x_dac.c ****   * @param  Data : Data to be loaded in the selected data holding register.
 340:../Libraries/STM32F10x_StdPeriph_Driver/src/stm32f10x_dac.c ****   * @retval None
 341:../Libraries/STM32F10x_StdPeriph_Driver/src/stm32f10x_dac.c ****   */
 342:../Libraries/STM32F10x_StdPeriph_Driver/src/stm32f10x_dac.c **** void DAC_SetChannel1Data(uint32_t DAC_Align, uint16_t Data)
 343:../Libraries/STM32F10x_StdPeriph_Driver/src/stm32f10x_dac.c **** {  
 18927              		.loc 1 343 0
 18928              		.cfi_startproc
 18929              		@ args = 0, pretend = 0, frame = 8
 18930              		@ frame_needed = 0, uses_anonymous_args = 0
 18931              		@ link register save eliminated.
 18932              	.LVL26:
 18933 0000 82B0     		sub	sp, sp, #8
 18934              	.LCFI2:
 18935              		.cfi_def_cfa_offset 8
 344:../Libraries/STM32F10x_StdPeriph_Driver/src/stm32f10x_dac.c ****   __IO uint32_t tmp = 0;
 18936              		.loc 1 344 0
 18937 0002 0023     		movs	r3, #0
 18938 0004 0193     		str	r3, [sp, #4]
 18939              	.LVL27:
 345:../Libraries/STM32F10x_StdPeriph_Driver/src/stm32f10x_dac.c ****   
 346:../Libraries/STM32F10x_StdPeriph_Driver/src/stm32f10x_dac.c ****   /* Check the parameters */
 347:../Libraries/STM32F10x_StdPeriph_Driver/src/stm32f10x_dac.c ****   assert_param(IS_DAC_ALIGN(DAC_Align));
 348:../Libraries/STM32F10x_StdPeriph_Driver/src/stm32f10x_dac.c ****   assert_param(IS_DAC_DATA(Data));
 349:../Libraries/STM32F10x_StdPeriph_Driver/src/stm32f10x_dac.c ****   
 350:../Libraries/STM32F10x_StdPeriph_Driver/src/stm32f10x_dac.c ****   tmp = (uint32_t)DAC_BASE; 
 18940              		.loc 1 350 0
 18941 0006 054B     		ldr	r3, .L37
 18942 0008 0193     		str	r3, [sp, #4]
 351:../Libraries/STM32F10x_StdPeriph_Driver/src/stm32f10x_dac.c ****   tmp += DHR12R1_OFFSET + DAC_Align;
 18943              		.loc 1 351 0
 18944 000a 019B     		ldr	r3, [sp, #4]
 18945 000c 0833     		adds	r3, r3, #8
 18946 000e 1B18     		adds	r3, r3, r0
 18947              	.LVL28:
 18948 0010 0193     		str	r3, [sp, #4]
 18949              	.LVL29:
 352:../Libraries/STM32F10x_StdPeriph_Driver/src/stm32f10x_dac.c **** 
 353:../Libraries/STM32F10x_StdPeriph_Driver/src/stm32f10x_dac.c ****   /* Set the DAC channel1 selected data holding register */
 354:../Libraries/STM32F10x_StdPeriph_Driver/src/stm32f10x_dac.c ****   *(__IO uint32_t *) tmp = Data;
 18950              		.loc 1 354 0
 18951 0012 019B     		ldr	r3, [sp, #4]
 18952              	.LVL30:
 18953 0014 1960     		str	r1, [r3, #0]
 355:../Libraries/STM32F10x_StdPeriph_Driver/src/stm32f10x_dac.c **** }
 18954              		.loc 1 355 0
 18955 0016 02B0     		add	sp, sp, #8
 18956 0018 7047     		bx	lr
 18957              	.L38:
 18958 001a 00BF     		.align	2
 18959              	.L37:
 18960 001c 00740040 		.word	1073771520
 18961              		.cfi_endproc
 18962              	.LFE37:
 18964              		.section	.text.DAC_SetChannel2Data,"ax",%progbits
 18965              		.align	1
 18966              		.global	DAC_SetChannel2Data
 18967              		.thumb
 18968              		.thumb_func
 18970              	DAC_SetChannel2Data:
 18971              	.LFB38:
 356:../Libraries/STM32F10x_StdPeriph_Driver/src/stm32f10x_dac.c **** 
 357:../Libraries/STM32F10x_StdPeriph_Driver/src/stm32f10x_dac.c **** /**
 358:../Libraries/STM32F10x_StdPeriph_Driver/src/stm32f10x_dac.c ****   * @brief  Set the specified data holding register value for DAC channel2.
 359:../Libraries/STM32F10x_StdPeriph_Driver/src/stm32f10x_dac.c ****   * @param  DAC_Align: Specifies the data alignment for DAC channel2.
 360:../Libraries/STM32F10x_StdPeriph_Driver/src/stm32f10x_dac.c ****   *   This parameter can be one of the following values:
 361:../Libraries/STM32F10x_StdPeriph_Driver/src/stm32f10x_dac.c ****   *     @arg DAC_Align_8b_R: 8bit right data alignment selected
 362:../Libraries/STM32F10x_StdPeriph_Driver/src/stm32f10x_dac.c ****   *     @arg DAC_Align_12b_L: 12bit left data alignment selected
 363:../Libraries/STM32F10x_StdPeriph_Driver/src/stm32f10x_dac.c ****   *     @arg DAC_Align_12b_R: 12bit right data alignment selected
 364:../Libraries/STM32F10x_StdPeriph_Driver/src/stm32f10x_dac.c ****   * @param  Data : Data to be loaded in the selected data holding register.
 365:../Libraries/STM32F10x_StdPeriph_Driver/src/stm32f10x_dac.c ****   * @retval None
 366:../Libraries/STM32F10x_StdPeriph_Driver/src/stm32f10x_dac.c ****   */
 367:../Libraries/STM32F10x_StdPeriph_Driver/src/stm32f10x_dac.c **** void DAC_SetChannel2Data(uint32_t DAC_Align, uint16_t Data)
 368:../Libraries/STM32F10x_StdPeriph_Driver/src/stm32f10x_dac.c **** {
 18972              		.loc 1 368 0
 18973              		.cfi_startproc
 18974              		@ args = 0, pretend = 0, frame = 8
 18975              		@ frame_needed = 0, uses_anonymous_args = 0
 18976              		@ link register save eliminated.
 18977              	.LVL31:
 18978 0000 82B0     		sub	sp, sp, #8
 18979              	.LCFI3:
 18980              		.cfi_def_cfa_offset 8
 369:../Libraries/STM32F10x_StdPeriph_Driver/src/stm32f10x_dac.c ****   __IO uint32_t tmp = 0;
 18981              		.loc 1 369 0
 18982 0002 0023     		movs	r3, #0
 18983 0004 0193     		str	r3, [sp, #4]
 18984              	.LVL32:
 370:../Libraries/STM32F10x_StdPeriph_Driver/src/stm32f10x_dac.c **** 
 371:../Libraries/STM32F10x_StdPeriph_Driver/src/stm32f10x_dac.c ****   /* Check the parameters */
 372:../Libraries/STM32F10x_StdPeriph_Driver/src/stm32f10x_dac.c ****   assert_param(IS_DAC_ALIGN(DAC_Align));
 373:../Libraries/STM32F10x_StdPeriph_Driver/src/stm32f10x_dac.c ****   assert_param(IS_DAC_DATA(Data));
 374:../Libraries/STM32F10x_StdPeriph_Driver/src/stm32f10x_dac.c ****   
 375:../Libraries/STM32F10x_StdPeriph_Driver/src/stm32f10x_dac.c ****   tmp = (uint32_t)DAC_BASE;
 18985              		.loc 1 375 0
 18986 0006 054B     		ldr	r3, .L40
 18987 0008 0193     		str	r3, [sp, #4]
 376:../Libraries/STM32F10x_StdPeriph_Driver/src/stm32f10x_dac.c ****   tmp += DHR12R2_OFFSET + DAC_Align;
 18988              		.loc 1 376 0
 18989 000a 019B     		ldr	r3, [sp, #4]
 18990 000c 1433     		adds	r3, r3, #20
 18991 000e 1B18     		adds	r3, r3, r0
 18992              	.LVL33:
 18993 0010 0193     		str	r3, [sp, #4]
 18994              	.LVL34:
 377:../Libraries/STM32F10x_StdPeriph_Driver/src/stm32f10x_dac.c **** 
 378:../Libraries/STM32F10x_StdPeriph_Driver/src/stm32f10x_dac.c ****   /* Set the DAC channel2 selected data holding register */
 379:../Libraries/STM32F10x_StdPeriph_Driver/src/stm32f10x_dac.c ****   *(__IO uint32_t *)tmp = Data;
 18995              		.loc 1 379 0
 18996 0012 019B     		ldr	r3, [sp, #4]
 18997              	.LVL35:
 18998 0014 1960     		str	r1, [r3, #0]
 380:../Libraries/STM32F10x_StdPeriph_Driver/src/stm32f10x_dac.c **** }
 18999              		.loc 1 380 0
 19000 0016 02B0     		add	sp, sp, #8
 19001 0018 7047     		bx	lr
 19002              	.L41:
 19003 001a 00BF     		.align	2
 19004              	.L40:
 19005 001c 00740040 		.word	1073771520
 19006              		.cfi_endproc
 19007              	.LFE38:
 19009              		.section	.text.DAC_SetDualChannelData,"ax",%progbits
 19010              		.align	1
 19011              		.global	DAC_SetDualChannelData
 19012              		.thumb
 19013              		.thumb_func
 19015              	DAC_SetDualChannelData:
 19016              	.LFB39:
 381:../Libraries/STM32F10x_StdPeriph_Driver/src/stm32f10x_dac.c **** 
 382:../Libraries/STM32F10x_StdPeriph_Driver/src/stm32f10x_dac.c **** /**
 383:../Libraries/STM32F10x_StdPeriph_Driver/src/stm32f10x_dac.c ****   * @brief  Set the specified data holding register value for dual channel
 384:../Libraries/STM32F10x_StdPeriph_Driver/src/stm32f10x_dac.c ****   *   DAC.
 385:../Libraries/STM32F10x_StdPeriph_Driver/src/stm32f10x_dac.c ****   * @param  DAC_Align: Specifies the data alignment for dual channel DAC.
 386:../Libraries/STM32F10x_StdPeriph_Driver/src/stm32f10x_dac.c ****   *   This parameter can be one of the following values:
 387:../Libraries/STM32F10x_StdPeriph_Driver/src/stm32f10x_dac.c ****   *     @arg DAC_Align_8b_R: 8bit right data alignment selected
 388:../Libraries/STM32F10x_StdPeriph_Driver/src/stm32f10x_dac.c ****   *     @arg DAC_Align_12b_L: 12bit left data alignment selected
 389:../Libraries/STM32F10x_StdPeriph_Driver/src/stm32f10x_dac.c ****   *     @arg DAC_Align_12b_R: 12bit right data alignment selected
 390:../Libraries/STM32F10x_StdPeriph_Driver/src/stm32f10x_dac.c ****   * @param  Data2: Data for DAC Channel2 to be loaded in the selected data 
 391:../Libraries/STM32F10x_StdPeriph_Driver/src/stm32f10x_dac.c ****   *   holding register.
 392:../Libraries/STM32F10x_StdPeriph_Driver/src/stm32f10x_dac.c ****   * @param  Data1: Data for DAC Channel1 to be loaded in the selected data 
 393:../Libraries/STM32F10x_StdPeriph_Driver/src/stm32f10x_dac.c ****   *   holding register.
 394:../Libraries/STM32F10x_StdPeriph_Driver/src/stm32f10x_dac.c ****   * @retval None
 395:../Libraries/STM32F10x_StdPeriph_Driver/src/stm32f10x_dac.c ****   */
 396:../Libraries/STM32F10x_StdPeriph_Driver/src/stm32f10x_dac.c **** void DAC_SetDualChannelData(uint32_t DAC_Align, uint16_t Data2, uint16_t Data1)
 397:../Libraries/STM32F10x_StdPeriph_Driver/src/stm32f10x_dac.c **** {
 19017              		.loc 1 397 0
 19018              		.cfi_startproc
 19019              		@ args = 0, pretend = 0, frame = 0
 19020              		@ frame_needed = 0, uses_anonymous_args = 0
 19021              		@ link register save eliminated.
 19022              	.LVL36:
 398:../Libraries/STM32F10x_StdPeriph_Driver/src/stm32f10x_dac.c ****   uint32_t data = 0, tmp = 0;
 399:../Libraries/STM32F10x_StdPeriph_Driver/src/stm32f10x_dac.c ****   
 400:../Libraries/STM32F10x_StdPeriph_Driver/src/stm32f10x_dac.c ****   /* Check the parameters */
 401:../Libraries/STM32F10x_StdPeriph_Driver/src/stm32f10x_dac.c ****   assert_param(IS_DAC_ALIGN(DAC_Align));
 402:../Libraries/STM32F10x_StdPeriph_Driver/src/stm32f10x_dac.c ****   assert_param(IS_DAC_DATA(Data1));
 403:../Libraries/STM32F10x_StdPeriph_Driver/src/stm32f10x_dac.c ****   assert_param(IS_DAC_DATA(Data2));
 404:../Libraries/STM32F10x_StdPeriph_Driver/src/stm32f10x_dac.c ****   
 405:../Libraries/STM32F10x_StdPeriph_Driver/src/stm32f10x_dac.c ****   /* Calculate and set dual DAC data holding register value */
 406:../Libraries/STM32F10x_StdPeriph_Driver/src/stm32f10x_dac.c ****   if (DAC_Align == DAC_Align_8b_R)
 19023              		.loc 1 406 0
 19024 0000 0828     		cmp	r0, #8
 407:../Libraries/STM32F10x_StdPeriph_Driver/src/stm32f10x_dac.c ****   {
 408:../Libraries/STM32F10x_StdPeriph_Driver/src/stm32f10x_dac.c ****     data = ((uint32_t)Data2 << 8) | Data1; 
 409:../Libraries/STM32F10x_StdPeriph_Driver/src/stm32f10x_dac.c ****   }
 410:../Libraries/STM32F10x_StdPeriph_Driver/src/stm32f10x_dac.c ****   else
 411:../Libraries/STM32F10x_StdPeriph_Driver/src/stm32f10x_dac.c ****   {
 412:../Libraries/STM32F10x_StdPeriph_Driver/src/stm32f10x_dac.c ****     data = ((uint32_t)Data2 << 16) | Data1;
 413:../Libraries/STM32F10x_StdPeriph_Driver/src/stm32f10x_dac.c ****   }
 414:../Libraries/STM32F10x_StdPeriph_Driver/src/stm32f10x_dac.c ****   
 415:../Libraries/STM32F10x_StdPeriph_Driver/src/stm32f10x_dac.c ****   tmp = (uint32_t)DAC_BASE;
 416:../Libraries/STM32F10x_StdPeriph_Driver/src/stm32f10x_dac.c ****   tmp += DHR12RD_OFFSET + DAC_Align;
 19025              		.loc 1 416 0
 19026 0002 044B     		ldr	r3, .L45
 408:../Libraries/STM32F10x_StdPeriph_Driver/src/stm32f10x_dac.c ****     data = ((uint32_t)Data2 << 8) | Data1; 
 19027              		.loc 1 408 0
 19028 0004 0CBF     		ite	eq
 19029 0006 42EA0121 		orreq	r1, r2, r1, lsl #8
 19030              	.LVL37:
 412:../Libraries/STM32F10x_StdPeriph_Driver/src/stm32f10x_dac.c ****     data = ((uint32_t)Data2 << 16) | Data1;
 19031              		.loc 1 412 0
 19032 000a 42EA0141 		orrne	r1, r2, r1, lsl #16
 19033              	.LVL38:
 417:../Libraries/STM32F10x_StdPeriph_Driver/src/stm32f10x_dac.c **** 
 418:../Libraries/STM32F10x_StdPeriph_Driver/src/stm32f10x_dac.c ****   /* Set the dual DAC selected data holding register */
 419:../Libraries/STM32F10x_StdPeriph_Driver/src/stm32f10x_dac.c ****   *(__IO uint32_t *)tmp = data;
 19034              		.loc 1 419 0
 19035 000e C150     		str	r1, [r0, r3]
 420:../Libraries/STM32F10x_StdPeriph_Driver/src/stm32f10x_dac.c **** }
 19036              		.loc 1 420 0
 19037 0010 7047     		bx	lr
 19038              	.L46:
 19039 0012 00BF     		.align	2
 19040              	.L45:
 19041 0014 20740040 		.word	1073771552
 19042              		.cfi_endproc
 19043              	.LFE39:
 19045              		.section	.text.DAC_GetDataOutputValue,"ax",%progbits
 19046              		.align	1
 19047              		.global	DAC_GetDataOutputValue
 19048              		.thumb
 19049              		.thumb_func
 19051              	DAC_GetDataOutputValue:
 19052              	.LFB40:
 421:../Libraries/STM32F10x_StdPeriph_Driver/src/stm32f10x_dac.c **** 
 422:../Libraries/STM32F10x_StdPeriph_Driver/src/stm32f10x_dac.c **** /**
 423:../Libraries/STM32F10x_StdPeriph_Driver/src/stm32f10x_dac.c ****   * @brief  Returns the last data output value of the selected DAC channel.
 424:../Libraries/STM32F10x_StdPeriph_Driver/src/stm32f10x_dac.c ****   * @param  DAC_Channel: the selected DAC channel. 
 425:../Libraries/STM32F10x_StdPeriph_Driver/src/stm32f10x_dac.c ****   *   This parameter can be one of the following values:
 426:../Libraries/STM32F10x_StdPeriph_Driver/src/stm32f10x_dac.c ****   *     @arg DAC_Channel_1: DAC Channel1 selected
 427:../Libraries/STM32F10x_StdPeriph_Driver/src/stm32f10x_dac.c ****   *     @arg DAC_Channel_2: DAC Channel2 selected
 428:../Libraries/STM32F10x_StdPeriph_Driver/src/stm32f10x_dac.c ****   * @retval The selected DAC channel data output value.
 429:../Libraries/STM32F10x_StdPeriph_Driver/src/stm32f10x_dac.c ****   */
 430:../Libraries/STM32F10x_StdPeriph_Driver/src/stm32f10x_dac.c **** uint16_t DAC_GetDataOutputValue(uint32_t DAC_Channel)
 431:../Libraries/STM32F10x_StdPeriph_Driver/src/stm32f10x_dac.c **** {
 19053              		.loc 1 431 0
 19054              		.cfi_startproc
 19055              		@ args = 0, pretend = 0, frame = 8
 19056              		@ frame_needed = 0, uses_anonymous_args = 0
 19057              		@ link register save eliminated.
 19058              	.LVL39:
 19059 0000 82B0     		sub	sp, sp, #8
 19060              	.LCFI4:
 19061              		.cfi_def_cfa_offset 8
 432:../Libraries/STM32F10x_StdPeriph_Driver/src/stm32f10x_dac.c ****   __IO uint32_t tmp = 0;
 19062              		.loc 1 432 0
 19063 0002 0023     		movs	r3, #0
 19064 0004 0193     		str	r3, [sp, #4]
 19065              	.LVL40:
 433:../Libraries/STM32F10x_StdPeriph_Driver/src/stm32f10x_dac.c ****   
 434:../Libraries/STM32F10x_StdPeriph_Driver/src/stm32f10x_dac.c ****   /* Check the parameters */
 435:../Libraries/STM32F10x_StdPeriph_Driver/src/stm32f10x_dac.c ****   assert_param(IS_DAC_CHANNEL(DAC_Channel));
 436:../Libraries/STM32F10x_StdPeriph_Driver/src/stm32f10x_dac.c ****   
 437:../Libraries/STM32F10x_StdPeriph_Driver/src/stm32f10x_dac.c ****   tmp = (uint32_t) DAC_BASE ;
 19066              		.loc 1 437 0
 19067 0006 064B     		ldr	r3, .L48
 19068 0008 0193     		str	r3, [sp, #4]
 438:../Libraries/STM32F10x_StdPeriph_Driver/src/stm32f10x_dac.c ****   tmp += DOR_OFFSET + ((uint32_t)DAC_Channel >> 2);
 19069              		.loc 1 438 0
 19070 000a 019B     		ldr	r3, [sp, #4]
 19071 000c 2C33     		adds	r3, r3, #44
 19072 000e 03EB9003 		add	r3, r3, r0, lsr #2
 19073              	.LVL41:
 19074 0012 0193     		str	r3, [sp, #4]
 19075              	.LVL42:
 439:../Libraries/STM32F10x_StdPeriph_Driver/src/stm32f10x_dac.c ****   
 440:../Libraries/STM32F10x_StdPeriph_Driver/src/stm32f10x_dac.c ****   /* Returns the DAC channel data output register value */
 441:../Libraries/STM32F10x_StdPeriph_Driver/src/stm32f10x_dac.c ****   return (uint16_t) (*(__IO uint32_t*) tmp);
 19076              		.loc 1 441 0
 19077 0014 019B     		ldr	r3, [sp, #4]
 19078              	.LVL43:
 19079 0016 1868     		ldr	r0, [r3, #0]
 19080              	.LVL44:
 442:../Libraries/STM32F10x_StdPeriph_Driver/src/stm32f10x_dac.c **** }
 19081              		.loc 1 442 0
 19082 0018 80B2     		uxth	r0, r0
 19083 001a 02B0     		add	sp, sp, #8
 19084 001c 7047     		bx	lr
 19085              	.L49:
 19086 001e 00BF     		.align	2
 19087              	.L48:
 19088 0020 00740040 		.word	1073771520
 19089              		.cfi_endproc
 19090              	.LFE40:
 19092              		.text
 19093              	.Letext0: