   1              		.syntax unified
   2              		.cpu cortex-m3
   3              		.fpu softvfp
   4              		.eabi_attribute 20, 1
   5              		.eabi_attribute 21, 1
   6              		.eabi_attribute 23, 3
   7              		.eabi_attribute 24, 1
   8              		.eabi_attribute 25, 1
   9              		.eabi_attribute 26, 1
  10              		.eabi_attribute 30, 4
  11              		.eabi_attribute 18, 4
  12              		.thumb
  13              		.file	"stm32f10x_rtc.c"
  23              	.Ltext0:
  24              		.file 1 "../Libraries/STM32F10x_StdPeriph_Driver/src/stm32f10x_rtc.c"
 18434              		.align	1
 18435              		.global	RTC_ITConfig
 18436              		.thumb
 18437              		.thumb_func
 18439              	RTC_ITConfig:
 18440              	.LFB29:
   1:../Libraries/STM32F10x_StdPeriph_Driver/src/stm32f10x_rtc.c **** /**
   2:../Libraries/STM32F10x_StdPeriph_Driver/src/stm32f10x_rtc.c ****   ******************************************************************************
   3:../Libraries/STM32F10x_StdPeriph_Driver/src/stm32f10x_rtc.c ****   * @file    stm32f10x_rtc.c
   4:../Libraries/STM32F10x_StdPeriph_Driver/src/stm32f10x_rtc.c ****   * @author  MCD Application Team
   5:../Libraries/STM32F10x_StdPeriph_Driver/src/stm32f10x_rtc.c ****   * @version V3.5.0
   6:../Libraries/STM32F10x_StdPeriph_Driver/src/stm32f10x_rtc.c ****   * @date    11-March-2011
   7:../Libraries/STM32F10x_StdPeriph_Driver/src/stm32f10x_rtc.c ****   * @brief   This file provides all the RTC firmware functions.
   8:../Libraries/STM32F10x_StdPeriph_Driver/src/stm32f10x_rtc.c ****   ******************************************************************************
   9:../Libraries/STM32F10x_StdPeriph_Driver/src/stm32f10x_rtc.c ****   * @attention
  10:../Libraries/STM32F10x_StdPeriph_Driver/src/stm32f10x_rtc.c ****   *
  11:../Libraries/STM32F10x_StdPeriph_Driver/src/stm32f10x_rtc.c ****   * THE PRESENT FIRMWARE WHICH IS FOR GUIDANCE ONLY AIMS AT PROVIDING CUSTOMERS
  12:../Libraries/STM32F10x_StdPeriph_Driver/src/stm32f10x_rtc.c ****   * WITH CODING INFORMATION REGARDING THEIR PRODUCTS IN ORDER FOR THEM TO SAVE
  13:../Libraries/STM32F10x_StdPeriph_Driver/src/stm32f10x_rtc.c ****   * TIME. AS A RESULT, STMICROELECTRONICS SHALL NOT BE HELD LIABLE FOR ANY
  14:../Libraries/STM32F10x_StdPeriph_Driver/src/stm32f10x_rtc.c ****   * DIRECT, INDIRECT OR CONSEQUENTIAL DAMAGES WITH RESPECT TO ANY CLAIMS ARISING
  15:../Libraries/STM32F10x_StdPeriph_Driver/src/stm32f10x_rtc.c ****   * FROM THE CONTENT OF SUCH FIRMWARE AND/OR THE USE MADE BY CUSTOMERS OF THE
  16:../Libraries/STM32F10x_StdPeriph_Driver/src/stm32f10x_rtc.c ****   * CODING INFORMATION CONTAINED HEREIN IN CONNECTION WITH THEIR PRODUCTS.
  17:../Libraries/STM32F10x_StdPeriph_Driver/src/stm32f10x_rtc.c ****   *
  18:../Libraries/STM32F10x_StdPeriph_Driver/src/stm32f10x_rtc.c ****   * <h2><center>&copy; COPYRIGHT 2011 STMicroelectronics</center></h2>
  19:../Libraries/STM32F10x_StdPeriph_Driver/src/stm32f10x_rtc.c ****   ******************************************************************************
  20:../Libraries/STM32F10x_StdPeriph_Driver/src/stm32f10x_rtc.c ****   */
  21:../Libraries/STM32F10x_StdPeriph_Driver/src/stm32f10x_rtc.c **** 
  22:../Libraries/STM32F10x_StdPeriph_Driver/src/stm32f10x_rtc.c **** /* Includes ------------------------------------------------------------------*/
  23:../Libraries/STM32F10x_StdPeriph_Driver/src/stm32f10x_rtc.c **** #include "stm32f10x_rtc.h"
  24:../Libraries/STM32F10x_StdPeriph_Driver/src/stm32f10x_rtc.c **** 
  25:../Libraries/STM32F10x_StdPeriph_Driver/src/stm32f10x_rtc.c **** /** @addtogroup STM32F10x_StdPeriph_Driver
  26:../Libraries/STM32F10x_StdPeriph_Driver/src/stm32f10x_rtc.c ****   * @{
  27:../Libraries/STM32F10x_StdPeriph_Driver/src/stm32f10x_rtc.c ****   */
  28:../Libraries/STM32F10x_StdPeriph_Driver/src/stm32f10x_rtc.c **** 
  29:../Libraries/STM32F10x_StdPeriph_Driver/src/stm32f10x_rtc.c **** /** @defgroup RTC 
  30:../Libraries/STM32F10x_StdPeriph_Driver/src/stm32f10x_rtc.c ****   * @brief RTC driver modules
  31:../Libraries/STM32F10x_StdPeriph_Driver/src/stm32f10x_rtc.c ****   * @{
  32:../Libraries/STM32F10x_StdPeriph_Driver/src/stm32f10x_rtc.c ****   */
  33:../Libraries/STM32F10x_StdPeriph_Driver/src/stm32f10x_rtc.c **** 
  34:../Libraries/STM32F10x_StdPeriph_Driver/src/stm32f10x_rtc.c **** /** @defgroup RTC_Private_TypesDefinitions
  35:../Libraries/STM32F10x_StdPeriph_Driver/src/stm32f10x_rtc.c ****   * @{
  36:../Libraries/STM32F10x_StdPeriph_Driver/src/stm32f10x_rtc.c ****   */ 
  37:../Libraries/STM32F10x_StdPeriph_Driver/src/stm32f10x_rtc.c **** /**
  38:../Libraries/STM32F10x_StdPeriph_Driver/src/stm32f10x_rtc.c ****   * @}
  39:../Libraries/STM32F10x_StdPeriph_Driver/src/stm32f10x_rtc.c ****   */
  40:../Libraries/STM32F10x_StdPeriph_Driver/src/stm32f10x_rtc.c **** 
  41:../Libraries/STM32F10x_StdPeriph_Driver/src/stm32f10x_rtc.c **** /** @defgroup RTC_Private_Defines
  42:../Libraries/STM32F10x_StdPeriph_Driver/src/stm32f10x_rtc.c ****   * @{
  43:../Libraries/STM32F10x_StdPeriph_Driver/src/stm32f10x_rtc.c ****   */
  44:../Libraries/STM32F10x_StdPeriph_Driver/src/stm32f10x_rtc.c **** #define RTC_LSB_MASK     ((uint32_t)0x0000FFFF)  /*!< RTC LSB Mask */
  45:../Libraries/STM32F10x_StdPeriph_Driver/src/stm32f10x_rtc.c **** #define PRLH_MSB_MASK    ((uint32_t)0x000F0000)  /*!< RTC Prescaler MSB Mask */
  46:../Libraries/STM32F10x_StdPeriph_Driver/src/stm32f10x_rtc.c **** 
  47:../Libraries/STM32F10x_StdPeriph_Driver/src/stm32f10x_rtc.c **** /**
  48:../Libraries/STM32F10x_StdPeriph_Driver/src/stm32f10x_rtc.c ****   * @}
  49:../Libraries/STM32F10x_StdPeriph_Driver/src/stm32f10x_rtc.c ****   */
  50:../Libraries/STM32F10x_StdPeriph_Driver/src/stm32f10x_rtc.c **** 
  51:../Libraries/STM32F10x_StdPeriph_Driver/src/stm32f10x_rtc.c **** /** @defgroup RTC_Private_Macros
  52:../Libraries/STM32F10x_StdPeriph_Driver/src/stm32f10x_rtc.c ****   * @{
  53:../Libraries/STM32F10x_StdPeriph_Driver/src/stm32f10x_rtc.c ****   */
  54:../Libraries/STM32F10x_StdPeriph_Driver/src/stm32f10x_rtc.c **** 
  55:../Libraries/STM32F10x_StdPeriph_Driver/src/stm32f10x_rtc.c **** /**
  56:../Libraries/STM32F10x_StdPeriph_Driver/src/stm32f10x_rtc.c ****   * @}
  57:../Libraries/STM32F10x_StdPeriph_Driver/src/stm32f10x_rtc.c ****   */
  58:../Libraries/STM32F10x_StdPeriph_Driver/src/stm32f10x_rtc.c **** 
  59:../Libraries/STM32F10x_StdPeriph_Driver/src/stm32f10x_rtc.c **** /** @defgroup RTC_Private_Variables
  60:../Libraries/STM32F10x_StdPeriph_Driver/src/stm32f10x_rtc.c ****   * @{
  61:../Libraries/STM32F10x_StdPeriph_Driver/src/stm32f10x_rtc.c ****   */
  62:../Libraries/STM32F10x_StdPeriph_Driver/src/stm32f10x_rtc.c **** 
  63:../Libraries/STM32F10x_StdPeriph_Driver/src/stm32f10x_rtc.c **** /**
  64:../Libraries/STM32F10x_StdPeriph_Driver/src/stm32f10x_rtc.c ****   * @}
  65:../Libraries/STM32F10x_StdPeriph_Driver/src/stm32f10x_rtc.c ****   */
  66:../Libraries/STM32F10x_StdPeriph_Driver/src/stm32f10x_rtc.c **** 
  67:../Libraries/STM32F10x_StdPeriph_Driver/src/stm32f10x_rtc.c **** /** @defgroup RTC_Private_FunctionPrototypes
  68:../Libraries/STM32F10x_StdPeriph_Driver/src/stm32f10x_rtc.c ****   * @{
  69:../Libraries/STM32F10x_StdPeriph_Driver/src/stm32f10x_rtc.c ****   */
  70:../Libraries/STM32F10x_StdPeriph_Driver/src/stm32f10x_rtc.c **** 
  71:../Libraries/STM32F10x_StdPeriph_Driver/src/stm32f10x_rtc.c **** /**
  72:../Libraries/STM32F10x_StdPeriph_Driver/src/stm32f10x_rtc.c ****   * @}
  73:../Libraries/STM32F10x_StdPeriph_Driver/src/stm32f10x_rtc.c ****   */
  74:../Libraries/STM32F10x_StdPeriph_Driver/src/stm32f10x_rtc.c **** 
  75:../Libraries/STM32F10x_StdPeriph_Driver/src/stm32f10x_rtc.c **** /** @defgroup RTC_Private_Functions
  76:../Libraries/STM32F10x_StdPeriph_Driver/src/stm32f10x_rtc.c ****   * @{
  77:../Libraries/STM32F10x_StdPeriph_Driver/src/stm32f10x_rtc.c ****   */
  78:../Libraries/STM32F10x_StdPeriph_Driver/src/stm32f10x_rtc.c **** 
  79:../Libraries/STM32F10x_StdPeriph_Driver/src/stm32f10x_rtc.c **** /**
  80:../Libraries/STM32F10x_StdPeriph_Driver/src/stm32f10x_rtc.c ****   * @brief  Enables or disables the specified RTC interrupts.
  81:../Libraries/STM32F10x_StdPeriph_Driver/src/stm32f10x_rtc.c ****   * @param  RTC_IT: specifies the RTC interrupts sources to be enabled or disabled.
  82:../Libraries/STM32F10x_StdPeriph_Driver/src/stm32f10x_rtc.c ****   *   This parameter can be any combination of the following values:
  83:../Libraries/STM32F10x_StdPeriph_Driver/src/stm32f10x_rtc.c ****   *     @arg RTC_IT_OW: Overflow interrupt
  84:../Libraries/STM32F10x_StdPeriph_Driver/src/stm32f10x_rtc.c ****   *     @arg RTC_IT_ALR: Alarm interrupt
  85:../Libraries/STM32F10x_StdPeriph_Driver/src/stm32f10x_rtc.c ****   *     @arg RTC_IT_SEC: Second interrupt
  86:../Libraries/STM32F10x_StdPeriph_Driver/src/stm32f10x_rtc.c ****   * @param  NewState: new state of the specified RTC interrupts.
  87:../Libraries/STM32F10x_StdPeriph_Driver/src/stm32f10x_rtc.c ****   *   This parameter can be: ENABLE or DISABLE.
  88:../Libraries/STM32F10x_StdPeriph_Driver/src/stm32f10x_rtc.c ****   * @retval None
  89:../Libraries/STM32F10x_StdPeriph_Driver/src/stm32f10x_rtc.c ****   */
  90:../Libraries/STM32F10x_StdPeriph_Driver/src/stm32f10x_rtc.c **** void RTC_ITConfig(uint16_t RTC_IT, FunctionalState NewState)
  91:../Libraries/STM32F10x_StdPeriph_Driver/src/stm32f10x_rtc.c **** {
 18441              		.loc 1 91 0
 18442              		.cfi_startproc
 18443              		@ args = 0, pretend = 0, frame = 0
 18444              		@ frame_needed = 0, uses_anonymous_args = 0
 18445              		@ link register save eliminated.
 18446              	.LVL0:
 18447 0000 054B     		ldr	r3, .L5
  92:../Libraries/STM32F10x_StdPeriph_Driver/src/stm32f10x_rtc.c ****   /* Check the parameters */
  93:../Libraries/STM32F10x_StdPeriph_Driver/src/stm32f10x_rtc.c ****   assert_param(IS_RTC_IT(RTC_IT));  
  94:../Libraries/STM32F10x_StdPeriph_Driver/src/stm32f10x_rtc.c ****   assert_param(IS_FUNCTIONAL_STATE(NewState));
  95:../Libraries/STM32F10x_StdPeriph_Driver/src/stm32f10x_rtc.c ****   
  96:../Libraries/STM32F10x_StdPeriph_Driver/src/stm32f10x_rtc.c ****   if (NewState != DISABLE)
 18448              		.loc 1 96 0
 18449 0002 19B1     		cbz	r1, .L2
  97:../Libraries/STM32F10x_StdPeriph_Driver/src/stm32f10x_rtc.c ****   {
  98:../Libraries/STM32F10x_StdPeriph_Driver/src/stm32f10x_rtc.c ****     RTC->CRH |= RTC_IT;
 18450              		.loc 1 98 0
 18451 0004 1A88     		ldrh	r2, [r3, #0]
 18452 0006 92B2     		uxth	r2, r2
 18453 0008 1043     		orrs	r0, r0, r2
 18454              	.LVL1:
 18455 000a 03E0     		b	.L4
 18456              	.LVL2:
 18457              	.L2:
  99:../Libraries/STM32F10x_StdPeriph_Driver/src/stm32f10x_rtc.c ****   }
 100:../Libraries/STM32F10x_StdPeriph_Driver/src/stm32f10x_rtc.c ****   else
 101:../Libraries/STM32F10x_StdPeriph_Driver/src/stm32f10x_rtc.c ****   {
 102:../Libraries/STM32F10x_StdPeriph_Driver/src/stm32f10x_rtc.c ****     RTC->CRH &= (uint16_t)~RTC_IT;
 18458              		.loc 1 102 0
 18459 000c 1A88     		ldrh	r2, [r3, #0]
 18460 000e 92B2     		uxth	r2, r2
 18461 0010 22EA0000 		bic	r0, r2, r0
 18462              	.LVL3:
 18463              	.L4:
 18464 0014 1880     		strh	r0, [r3, #0]	@ movhi
 18465 0016 7047     		bx	lr
 18466              	.L6:
 18467              		.align	2
 18468              	.L5:
 18469 0018 00280040 		.word	1073752064
 18470              		.cfi_endproc
 18471              	.LFE29:
 18473              		.section	.text.RTC_EnterConfigMode,"ax",%progbits
 18474              		.align	1
 18475              		.global	RTC_EnterConfigMode
 18476              		.thumb
 18477              		.thumb_func
 18479              	RTC_EnterConfigMode:
 18480              	.LFB30:
 103:../Libraries/STM32F10x_StdPeriph_Driver/src/stm32f10x_rtc.c ****   }
 104:../Libraries/STM32F10x_StdPeriph_Driver/src/stm32f10x_rtc.c **** }
 105:../Libraries/STM32F10x_StdPeriph_Driver/src/stm32f10x_rtc.c **** 
 106:../Libraries/STM32F10x_StdPeriph_Driver/src/stm32f10x_rtc.c **** /**
 107:../Libraries/STM32F10x_StdPeriph_Driver/src/stm32f10x_rtc.c ****   * @brief  Enters the RTC configuration mode.
 108:../Libraries/STM32F10x_StdPeriph_Driver/src/stm32f10x_rtc.c ****   * @param  None
 109:../Libraries/STM32F10x_StdPeriph_Driver/src/stm32f10x_rtc.c ****   * @retval None
 110:../Libraries/STM32F10x_StdPeriph_Driver/src/stm32f10x_rtc.c ****   */
 111:../Libraries/STM32F10x_StdPeriph_Driver/src/stm32f10x_rtc.c **** void RTC_EnterConfigMode(void)
 112:../Libraries/STM32F10x_StdPeriph_Driver/src/stm32f10x_rtc.c **** {
 18481              		.loc 1 112 0
 18482              		.cfi_startproc
 18483              		@ args = 0, pretend = 0, frame = 0
 18484              		@ frame_needed = 0, uses_anonymous_args = 0
 18485              		@ link register save eliminated.
 113:../Libraries/STM32F10x_StdPeriph_Driver/src/stm32f10x_rtc.c ****   /* Set the CNF flag to enter in the Configuration Mode */
 114:../Libraries/STM32F10x_StdPeriph_Driver/src/stm32f10x_rtc.c ****   RTC->CRL |= RTC_CRL_CNF;
 18486              		.loc 1 114 0
 18487 0000 034B     		ldr	r3, .L8
 18488 0002 9A88     		ldrh	r2, [r3, #4]
 18489 0004 92B2     		uxth	r2, r2
 18490 0006 42F01002 		orr	r2, r2, #16
 18491 000a 9A80     		strh	r2, [r3, #4]	@ movhi
 115:../Libraries/STM32F10x_StdPeriph_Driver/src/stm32f10x_rtc.c **** }
 18492              		.loc 1 115 0
 18493 000c 7047     		bx	lr
 18494              	.L9:
 18495 000e 00BF     		.align	2
 18496              	.L8:
 18497 0010 00280040 		.word	1073752064
 18498              		.cfi_endproc
 18499              	.LFE30:
 18501              		.section	.text.RTC_ExitConfigMode,"ax",%progbits
 18502              		.align	1
 18503              		.global	RTC_ExitConfigMode
 18504              		.thumb
 18505              		.thumb_func
 18507              	RTC_ExitConfigMode:
 18508              	.LFB31:
 116:../Libraries/STM32F10x_StdPeriph_Driver/src/stm32f10x_rtc.c **** 
 117:../Libraries/STM32F10x_StdPeriph_Driver/src/stm32f10x_rtc.c **** /**
 118:../Libraries/STM32F10x_StdPeriph_Driver/src/stm32f10x_rtc.c ****   * @brief  Exits from the RTC configuration mode.
 119:../Libraries/STM32F10x_StdPeriph_Driver/src/stm32f10x_rtc.c ****   * @param  None
 120:../Libraries/STM32F10x_StdPeriph_Driver/src/stm32f10x_rtc.c ****   * @retval None
 121:../Libraries/STM32F10x_StdPeriph_Driver/src/stm32f10x_rtc.c ****   */
 122:../Libraries/STM32F10x_StdPeriph_Driver/src/stm32f10x_rtc.c **** void RTC_ExitConfigMode(void)
 123:../Libraries/STM32F10x_StdPeriph_Driver/src/stm32f10x_rtc.c **** {
 18509              		.loc 1 123 0
 18510              		.cfi_startproc
 18511              		@ args = 0, pretend = 0, frame = 0
 18512              		@ frame_needed = 0, uses_anonymous_args = 0
 18513              		@ link register save eliminated.
 124:../Libraries/STM32F10x_StdPeriph_Driver/src/stm32f10x_rtc.c ****   /* Reset the CNF flag to exit from the Configuration Mode */
 125:../Libraries/STM32F10x_StdPeriph_Driver/src/stm32f10x_rtc.c ****   RTC->CRL &= (uint16_t)~((uint16_t)RTC_CRL_CNF); 
 18514              		.loc 1 125 0
 18515 0000 034A     		ldr	r2, .L11
 18516 0002 9388     		ldrh	r3, [r2, #4]
 18517 0004 23F01003 		bic	r3, r3, #16
 18518 0008 1B04     		lsls	r3, r3, #16
 18519 000a 1B0C     		lsrs	r3, r3, #16
 18520 000c 9380     		strh	r3, [r2, #4]	@ movhi
 126:../Libraries/STM32F10x_StdPeriph_Driver/src/stm32f10x_rtc.c **** }
 18521              		.loc 1 126 0
 18522 000e 7047     		bx	lr
 18523              	.L12:
 18524              		.align	2
 18525              	.L11:
 18526 0010 00280040 		.word	1073752064
 18527              		.cfi_endproc
 18528              	.LFE31:
 18530              		.section	.text.RTC_GetCounter,"ax",%progbits
 18531              		.align	1
 18532              		.global	RTC_GetCounter
 18533              		.thumb
 18534              		.thumb_func
 18536              	RTC_GetCounter:
 18537              	.LFB32:
 127:../Libraries/STM32F10x_StdPeriph_Driver/src/stm32f10x_rtc.c **** 
 128:../Libraries/STM32F10x_StdPeriph_Driver/src/stm32f10x_rtc.c **** /**
 129:../Libraries/STM32F10x_StdPeriph_Driver/src/stm32f10x_rtc.c ****   * @brief  Gets the RTC counter value.
 130:../Libraries/STM32F10x_StdPeriph_Driver/src/stm32f10x_rtc.c ****   * @param  None
 131:../Libraries/STM32F10x_StdPeriph_Driver/src/stm32f10x_rtc.c ****   * @retval RTC counter value.
 132:../Libraries/STM32F10x_StdPeriph_Driver/src/stm32f10x_rtc.c ****   */
 133:../Libraries/STM32F10x_StdPeriph_Driver/src/stm32f10x_rtc.c **** uint32_t RTC_GetCounter(void)
 134:../Libraries/STM32F10x_StdPeriph_Driver/src/stm32f10x_rtc.c **** {
 18538              		.loc 1 134 0
 18539              		.cfi_startproc
 18540              		@ args = 0, pretend = 0, frame = 0
 18541              		@ frame_needed = 0, uses_anonymous_args = 0
 18542              		@ link register save eliminated.
 18543              	.LVL4:
 135:../Libraries/STM32F10x_StdPeriph_Driver/src/stm32f10x_rtc.c ****   uint16_t tmp = 0;
 136:../Libraries/STM32F10x_StdPeriph_Driver/src/stm32f10x_rtc.c ****   tmp = RTC->CNTL;
 18544              		.loc 1 136 0
 18545 0000 034B     		ldr	r3, .L14
 18546 0002 9A8B     		ldrh	r2, [r3, #28]
 137:../Libraries/STM32F10x_StdPeriph_Driver/src/stm32f10x_rtc.c ****   return (((uint32_t)RTC->CNTH << 16 ) | tmp) ;
 18547              		.loc 1 137 0
 18548 0004 188B     		ldrh	r0, [r3, #24]
 136:../Libraries/STM32F10x_StdPeriph_Driver/src/stm32f10x_rtc.c ****   tmp = RTC->CNTL;
 18549              		.loc 1 136 0
 18550 0006 92B2     		uxth	r2, r2
 18551              	.LVL5:
 138:../Libraries/STM32F10x_StdPeriph_Driver/src/stm32f10x_rtc.c **** }
 18552              		.loc 1 138 0
 18553 0008 42EA0040 		orr	r0, r2, r0, lsl #16
 18554 000c 7047     		bx	lr
 18555              	.L15:
 18556 000e 00BF     		.align	2
 18557              	.L14:
 18558 0010 00280040 		.word	1073752064
 18559              		.cfi_endproc
 18560              	.LFE32:
 18562              		.section	.text.RTC_SetCounter,"ax",%progbits
 18563              		.align	1
 18564              		.global	RTC_SetCounter
 18565              		.thumb
 18566              		.thumb_func
 18568              	RTC_SetCounter:
 18569              	.LFB33:
 139:../Libraries/STM32F10x_StdPeriph_Driver/src/stm32f10x_rtc.c **** 
 140:../Libraries/STM32F10x_StdPeriph_Driver/src/stm32f10x_rtc.c **** /**
 141:../Libraries/STM32F10x_StdPeriph_Driver/src/stm32f10x_rtc.c ****   * @brief  Sets the RTC counter value.
 142:../Libraries/STM32F10x_StdPeriph_Driver/src/stm32f10x_rtc.c ****   * @param  CounterValue: RTC counter new value.
 143:../Libraries/STM32F10x_StdPeriph_Driver/src/stm32f10x_rtc.c ****   * @retval None
 144:../Libraries/STM32F10x_StdPeriph_Driver/src/stm32f10x_rtc.c ****   */
 145:../Libraries/STM32F10x_StdPeriph_Driver/src/stm32f10x_rtc.c **** void RTC_SetCounter(uint32_t CounterValue)
 146:../Libraries/STM32F10x_StdPeriph_Driver/src/stm32f10x_rtc.c **** { 
 18570              		.loc 1 146 0
 18571              		.cfi_startproc
 18572              		@ args = 0, pretend = 0, frame = 0
 18573              		@ frame_needed = 0, uses_anonymous_args = 0
 18574              	.LVL6:
 18575 0000 10B5     		push	{r4, lr}
 18576              	.LCFI0:
 18577              		.cfi_def_cfa_offset 8
 18578              		.loc 1 146 0
 18579 0002 0446     		mov	r4, r0
 18580              		.cfi_offset 14, -4
 18581              		.cfi_offset 4, -8
 147:../Libraries/STM32F10x_StdPeriph_Driver/src/stm32f10x_rtc.c ****   RTC_EnterConfigMode();
 18582              		.loc 1 147 0
 18583 0004 FFF7FEFF 		bl	RTC_EnterConfigMode
 18584              	.LVL7:
 148:../Libraries/STM32F10x_StdPeriph_Driver/src/stm32f10x_rtc.c ****   /* Set RTC COUNTER MSB word */
 149:../Libraries/STM32F10x_StdPeriph_Driver/src/stm32f10x_rtc.c ****   RTC->CNTH = CounterValue >> 16;
 18585              		.loc 1 149 0
 18586 0008 034B     		ldr	r3, .L17
 18587 000a 220C     		lsrs	r2, r4, #16
 18588 000c 1A83     		strh	r2, [r3, #24]	@ movhi
 150:../Libraries/STM32F10x_StdPeriph_Driver/src/stm32f10x_rtc.c ****   /* Set RTC COUNTER LSB word */
 151:../Libraries/STM32F10x_StdPeriph_Driver/src/stm32f10x_rtc.c ****   RTC->CNTL = (CounterValue & RTC_LSB_MASK);
 18589              		.loc 1 151 0
 18590 000e 9C83     		strh	r4, [r3, #28]	@ movhi
 152:../Libraries/STM32F10x_StdPeriph_Driver/src/stm32f10x_rtc.c ****   RTC_ExitConfigMode();
 153:../Libraries/STM32F10x_StdPeriph_Driver/src/stm32f10x_rtc.c **** }
 18591              		.loc 1 153 0
 18592 0010 BDE81040 		pop	{r4, lr}
 152:../Libraries/STM32F10x_StdPeriph_Driver/src/stm32f10x_rtc.c ****   RTC_ExitConfigMode();
 18593              		.loc 1 152 0
 18594 0014 FFF7FEBF 		b	RTC_ExitConfigMode
 18595              	.L18:
 18596              		.align	2
 18597              	.L17:
 18598 0018 00280040 		.word	1073752064
 18599              		.cfi_endproc
 18600              	.LFE33:
 18602              		.section	.text.RTC_SetPrescaler,"ax",%progbits
 18603              		.align	1
 18604              		.global	RTC_SetPrescaler
 18605              		.thumb
 18606              		.thumb_func
 18608              	RTC_SetPrescaler:
 18609              	.LFB34:
 154:../Libraries/STM32F10x_StdPeriph_Driver/src/stm32f10x_rtc.c **** 
 155:../Libraries/STM32F10x_StdPeriph_Driver/src/stm32f10x_rtc.c **** /**
 156:../Libraries/STM32F10x_StdPeriph_Driver/src/stm32f10x_rtc.c ****   * @brief  Sets the RTC prescaler value.
 157:../Libraries/STM32F10x_StdPeriph_Driver/src/stm32f10x_rtc.c ****   * @param  PrescalerValue: RTC prescaler new value.
 158:../Libraries/STM32F10x_StdPeriph_Driver/src/stm32f10x_rtc.c ****   * @retval None
 159:../Libraries/STM32F10x_StdPeriph_Driver/src/stm32f10x_rtc.c ****   */
 160:../Libraries/STM32F10x_StdPeriph_Driver/src/stm32f10x_rtc.c **** void RTC_SetPrescaler(uint32_t PrescalerValue)
 161:../Libraries/STM32F10x_StdPeriph_Driver/src/stm32f10x_rtc.c **** {
 18610              		.loc 1 161 0
 18611              		.cfi_startproc
 18612              		@ args = 0, pretend = 0, frame = 0
 18613              		@ frame_needed = 0, uses_anonymous_args = 0
 18614              	.LVL8:
 18615 0000 10B5     		push	{r4, lr}
 18616              	.LCFI1:
 18617              		.cfi_def_cfa_offset 8
 18618              		.loc 1 161 0
 18619 0002 0446     		mov	r4, r0
 18620              		.cfi_offset 14, -4
 18621              		.cfi_offset 4, -8
 162:../Libraries/STM32F10x_StdPeriph_Driver/src/stm32f10x_rtc.c ****   /* Check the parameters */
 163:../Libraries/STM32F10x_StdPeriph_Driver/src/stm32f10x_rtc.c ****   assert_param(IS_RTC_PRESCALER(PrescalerValue));
 164:../Libraries/STM32F10x_StdPeriph_Driver/src/stm32f10x_rtc.c ****   
 165:../Libraries/STM32F10x_StdPeriph_Driver/src/stm32f10x_rtc.c ****   RTC_EnterConfigMode();
 18622              		.loc 1 165 0
 18623 0004 FFF7FEFF 		bl	RTC_EnterConfigMode
 18624              	.LVL9:
 166:../Libraries/STM32F10x_StdPeriph_Driver/src/stm32f10x_rtc.c ****   /* Set RTC PRESCALER MSB word */
 167:../Libraries/STM32F10x_StdPeriph_Driver/src/stm32f10x_rtc.c ****   RTC->PRLH = (PrescalerValue & PRLH_MSB_MASK) >> 16;
 18625              		.loc 1 167 0
 18626 0008 044B     		ldr	r3, .L20
 18627 000a 04F47022 		and	r2, r4, #983040
 18628 000e 120C     		lsrs	r2, r2, #16
 18629 0010 1A81     		strh	r2, [r3, #8]	@ movhi
 168:../Libraries/STM32F10x_StdPeriph_Driver/src/stm32f10x_rtc.c ****   /* Set RTC PRESCALER LSB word */
 169:../Libraries/STM32F10x_StdPeriph_Driver/src/stm32f10x_rtc.c ****   RTC->PRLL = (PrescalerValue & RTC_LSB_MASK);
 18630              		.loc 1 169 0
 18631 0012 9C81     		strh	r4, [r3, #12]	@ movhi
 170:../Libraries/STM32F10x_StdPeriph_Driver/src/stm32f10x_rtc.c ****   RTC_ExitConfigMode();
 171:../Libraries/STM32F10x_StdPeriph_Driver/src/stm32f10x_rtc.c **** }
 18632              		.loc 1 171 0
 18633 0014 BDE81040 		pop	{r4, lr}
 170:../Libraries/STM32F10x_StdPeriph_Driver/src/stm32f10x_rtc.c ****   RTC_ExitConfigMode();
 18634              		.loc 1 170 0
 18635 0018 FFF7FEBF 		b	RTC_ExitConfigMode
 18636              	.L21:
 18637              		.align	2
 18638              	.L20:
 18639 001c 00280040 		.word	1073752064
 18640              		.cfi_endproc
 18641              	.LFE34:
 18643              		.section	.text.RTC_SetAlarm,"ax",%progbits
 18644              		.align	1
 18645              		.global	RTC_SetAlarm
 18646              		.thumb
 18647              		.thumb_func
 18649              	RTC_SetAlarm:
 18650              	.LFB35:
 172:../Libraries/STM32F10x_StdPeriph_Driver/src/stm32f10x_rtc.c **** 
 173:../Libraries/STM32F10x_StdPeriph_Driver/src/stm32f10x_rtc.c **** /**
 174:../Libraries/STM32F10x_StdPeriph_Driver/src/stm32f10x_rtc.c ****   * @brief  Sets the RTC alarm value.
 175:../Libraries/STM32F10x_StdPeriph_Driver/src/stm32f10x_rtc.c ****   * @param  AlarmValue: RTC alarm new value.
 176:../Libraries/STM32F10x_StdPeriph_Driver/src/stm32f10x_rtc.c ****   * @retval None
 177:../Libraries/STM32F10x_StdPeriph_Driver/src/stm32f10x_rtc.c ****   */
 178:../Libraries/STM32F10x_StdPeriph_Driver/src/stm32f10x_rtc.c **** void RTC_SetAlarm(uint32_t AlarmValue)
 179:../Libraries/STM32F10x_StdPeriph_Driver/src/stm32f10x_rtc.c **** {  
 18651              		.loc 1 179 0
 18652              		.cfi_startproc
 18653              		@ args = 0, pretend = 0, frame = 0
 18654              		@ frame_needed = 0, uses_anonymous_args = 0
 18655              	.LVL10:
 18656 0000 10B5     		push	{r4, lr}
 18657              	.LCFI2:
 18658              		.cfi_def_cfa_offset 8
 18659              		.loc 1 179 0
 18660 0002 0446     		mov	r4, r0
 18661              		.cfi_offset 14, -4
 18662              		.cfi_offset 4, -8
 180:../Libraries/STM32F10x_StdPeriph_Driver/src/stm32f10x_rtc.c ****   RTC_EnterConfigMode();
 18663              		.loc 1 180 0
 18664 0004 FFF7FEFF 		bl	RTC_EnterConfigMode
 18665              	.LVL11:
 181:../Libraries/STM32F10x_StdPeriph_Driver/src/stm32f10x_rtc.c ****   /* Set the ALARM MSB word */
 182:../Libraries/STM32F10x_StdPeriph_Driver/src/stm32f10x_rtc.c ****   RTC->ALRH = AlarmValue >> 16;
 18666              		.loc 1 182 0
 18667 0008 034B     		ldr	r3, .L23
 18668 000a 220C     		lsrs	r2, r4, #16
 18669 000c 1A84     		strh	r2, [r3, #32]	@ movhi
 183:../Libraries/STM32F10x_StdPeriph_Driver/src/stm32f10x_rtc.c ****   /* Set the ALARM LSB word */
 184:../Libraries/STM32F10x_StdPeriph_Driver/src/stm32f10x_rtc.c ****   RTC->ALRL = (AlarmValue & RTC_LSB_MASK);
 18670              		.loc 1 184 0
 18671 000e 9C84     		strh	r4, [r3, #36]	@ movhi
 185:../Libraries/STM32F10x_StdPeriph_Driver/src/stm32f10x_rtc.c ****   RTC_ExitConfigMode();
 186:../Libraries/STM32F10x_StdPeriph_Driver/src/stm32f10x_rtc.c **** }
 18672              		.loc 1 186 0
 18673 0010 BDE81040 		pop	{r4, lr}
 185:../Libraries/STM32F10x_StdPeriph_Driver/src/stm32f10x_rtc.c ****   RTC_ExitConfigMode();
 18674              		.loc 1 185 0
 18675 0014 FFF7FEBF 		b	RTC_ExitConfigMode
 18676              	.L24:
 18677              		.align	2
 18678              	.L23:
 18679 0018 00280040 		.word	1073752064
 18680              		.cfi_endproc
 18681              	.LFE35:
 18683              		.section	.text.RTC_GetDivider,"ax",%progbits
 18684              		.align	1
 18685              		.global	RTC_GetDivider
 18686              		.thumb
 18687              		.thumb_func
 18689              	RTC_GetDivider:
 18690              	.LFB36:
 187:../Libraries/STM32F10x_StdPeriph_Driver/src/stm32f10x_rtc.c **** 
 188:../Libraries/STM32F10x_StdPeriph_Driver/src/stm32f10x_rtc.c **** /**
 189:../Libraries/STM32F10x_StdPeriph_Driver/src/stm32f10x_rtc.c ****   * @brief  Gets the RTC divider value.
 190:../Libraries/STM32F10x_StdPeriph_Driver/src/stm32f10x_rtc.c ****   * @param  None
 191:../Libraries/STM32F10x_StdPeriph_Driver/src/stm32f10x_rtc.c ****   * @retval RTC Divider value.
 192:../Libraries/STM32F10x_StdPeriph_Driver/src/stm32f10x_rtc.c ****   */
 193:../Libraries/STM32F10x_StdPeriph_Driver/src/stm32f10x_rtc.c **** uint32_t RTC_GetDivider(void)
 194:../Libraries/STM32F10x_StdPeriph_Driver/src/stm32f10x_rtc.c **** {
 18691              		.loc 1 194 0
 18692              		.cfi_startproc
 18693              		@ args = 0, pretend = 0, frame = 0
 18694              		@ frame_needed = 0, uses_anonymous_args = 0
 18695              		@ link register save eliminated.
 18696              	.LVL12:
 195:../Libraries/STM32F10x_StdPeriph_Driver/src/stm32f10x_rtc.c ****   uint32_t tmp = 0x00;
 196:../Libraries/STM32F10x_StdPeriph_Driver/src/stm32f10x_rtc.c ****   tmp = ((uint32_t)RTC->DIVH & (uint32_t)0x000F) << 16;
 18697              		.loc 1 196 0
 18698 0000 044B     		ldr	r3, .L26
 18699 0002 188A     		ldrh	r0, [r3, #16]
 197:../Libraries/STM32F10x_StdPeriph_Driver/src/stm32f10x_rtc.c ****   tmp |= RTC->DIVL;
 18700              		.loc 1 197 0
 18701 0004 9B8A     		ldrh	r3, [r3, #20]
 196:../Libraries/STM32F10x_StdPeriph_Driver/src/stm32f10x_rtc.c ****   tmp = ((uint32_t)RTC->DIVH & (uint32_t)0x000F) << 16;
 18702              		.loc 1 196 0
 18703 0006 00F00F00 		and	r0, r0, #15
 18704              	.LVL13:
 18705              		.loc 1 197 0
 18706 000a 9BB2     		uxth	r3, r3
 18707              	.LVL14:
 198:../Libraries/STM32F10x_StdPeriph_Driver/src/stm32f10x_rtc.c ****   return tmp;
 199:../Libraries/STM32F10x_StdPeriph_Driver/src/stm32f10x_rtc.c **** }
 18708              		.loc 1 199 0
 18709 000c 43EA0040 		orr	r0, r3, r0, lsl #16
 18710              	.LVL15:
 18711 0010 7047     		bx	lr
 18712              	.L27:
 18713 0012 00BF     		.align	2
 18714              	.L26:
 18715 0014 00280040 		.word	1073752064
 18716              		.cfi_endproc
 18717              	.LFE36:
 18719              		.section	.text.RTC_WaitForLastTask,"ax",%progbits
 18720              		.align	1
 18721              		.global	RTC_WaitForLastTask
 18722              		.thumb
 18723              		.thumb_func
 18725              	RTC_WaitForLastTask:
 18726              	.LFB37:
 200:../Libraries/STM32F10x_StdPeriph_Driver/src/stm32f10x_rtc.c **** 
 201:../Libraries/STM32F10x_StdPeriph_Driver/src/stm32f10x_rtc.c **** /**
 202:../Libraries/STM32F10x_StdPeriph_Driver/src/stm32f10x_rtc.c ****   * @brief  Waits until last write operation on RTC registers has finished.
 203:../Libraries/STM32F10x_StdPeriph_Driver/src/stm32f10x_rtc.c ****   * @note   This function must be called before any write to RTC registers.
 204:../Libraries/STM32F10x_StdPeriph_Driver/src/stm32f10x_rtc.c ****   * @param  None
 205:../Libraries/STM32F10x_StdPeriph_Driver/src/stm32f10x_rtc.c ****   * @retval None
 206:../Libraries/STM32F10x_StdPeriph_Driver/src/stm32f10x_rtc.c ****   */
 207:../Libraries/STM32F10x_StdPeriph_Driver/src/stm32f10x_rtc.c **** void RTC_WaitForLastTask(void)
 208:../Libraries/STM32F10x_StdPeriph_Driver/src/stm32f10x_rtc.c **** {
 18727              		.loc 1 208 0
 18728              		.cfi_startproc
 18729              		@ args = 0, pretend = 0, frame = 0
 18730              		@ frame_needed = 0, uses_anonymous_args = 0
 18731              		@ link register save eliminated.
 18732              	.L29:
 209:../Libraries/STM32F10x_StdPeriph_Driver/src/stm32f10x_rtc.c ****   /* Loop until RTOFF flag is set */
 210:../Libraries/STM32F10x_StdPeriph_Driver/src/stm32f10x_rtc.c ****   while ((RTC->CRL & RTC_FLAG_RTOFF) == (uint16_t)RESET)
 18733              		.loc 1 210 0 discriminator 1
 18734 0000 024B     		ldr	r3, .L30
 18735 0002 9B88     		ldrh	r3, [r3, #4]
 18736 0004 13F0200F 		tst	r3, #32
 18737 0008 FAD0     		beq	.L29
 211:../Libraries/STM32F10x_StdPeriph_Driver/src/stm32f10x_rtc.c ****   {
 212:../Libraries/STM32F10x_StdPeriph_Driver/src/stm32f10x_rtc.c ****   }
 213:../Libraries/STM32F10x_StdPeriph_Driver/src/stm32f10x_rtc.c **** }
 18738              		.loc 1 213 0
 18739 000a 7047     		bx	lr
 18740              	.L31:
 18741              		.align	2
 18742              	.L30:
 18743 000c 00280040 		.word	1073752064
 18744              		.cfi_endproc
 18745              	.LFE37:
 18747              		.section	.text.RTC_WaitForSynchro,"ax",%progbits
 18748              		.align	1
 18749              		.global	RTC_WaitForSynchro
 18750              		.thumb
 18751              		.thumb_func
 18753              	RTC_WaitForSynchro:
 18754              	.LFB38:
 214:../Libraries/STM32F10x_StdPeriph_Driver/src/stm32f10x_rtc.c **** 
 215:../Libraries/STM32F10x_StdPeriph_Driver/src/stm32f10x_rtc.c **** /**
 216:../Libraries/STM32F10x_StdPeriph_Driver/src/stm32f10x_rtc.c ****   * @brief  Waits until the RTC registers (RTC_CNT, RTC_ALR and RTC_PRL)
 217:../Libraries/STM32F10x_StdPeriph_Driver/src/stm32f10x_rtc.c ****   *   are synchronized with RTC APB clock.
 218:../Libraries/STM32F10x_StdPeriph_Driver/src/stm32f10x_rtc.c ****   * @note   This function must be called before any read operation after an APB reset
 219:../Libraries/STM32F10x_StdPeriph_Driver/src/stm32f10x_rtc.c ****   *   or an APB clock stop.
 220:../Libraries/STM32F10x_StdPeriph_Driver/src/stm32f10x_rtc.c ****   * @param  None
 221:../Libraries/STM32F10x_StdPeriph_Driver/src/stm32f10x_rtc.c ****   * @retval None
 222:../Libraries/STM32F10x_StdPeriph_Driver/src/stm32f10x_rtc.c ****   */
 223:../Libraries/STM32F10x_StdPeriph_Driver/src/stm32f10x_rtc.c **** void RTC_WaitForSynchro(void)
 224:../Libraries/STM32F10x_StdPeriph_Driver/src/stm32f10x_rtc.c **** {
 18755              		.loc 1 224 0
 18756              		.cfi_startproc
 18757              		@ args = 0, pretend = 0, frame = 0
 18758              		@ frame_needed = 0, uses_anonymous_args = 0
 18759              		@ link register save eliminated.
 225:../Libraries/STM32F10x_StdPeriph_Driver/src/stm32f10x_rtc.c ****   /* Clear RSF flag */
 226:../Libraries/STM32F10x_StdPeriph_Driver/src/stm32f10x_rtc.c ****   RTC->CRL &= (uint16_t)~RTC_FLAG_RSF;
 18760              		.loc 1 226 0
 18761 0000 064A     		ldr	r2, .L34
 18762 0002 9388     		ldrh	r3, [r2, #4]
 18763 0004 23F00803 		bic	r3, r3, #8
 18764 0008 1B04     		lsls	r3, r3, #16
 18765 000a 1B0C     		lsrs	r3, r3, #16
 18766 000c 9380     		strh	r3, [r2, #4]	@ movhi
 18767              	.L33:
 227:../Libraries/STM32F10x_StdPeriph_Driver/src/stm32f10x_rtc.c ****   /* Loop until RSF flag is set */
 228:../Libraries/STM32F10x_StdPeriph_Driver/src/stm32f10x_rtc.c ****   while ((RTC->CRL & RTC_FLAG_RSF) == (uint16_t)RESET)
 18768              		.loc 1 228 0 discriminator 1
 18769 000e 034B     		ldr	r3, .L34
 18770 0010 9B88     		ldrh	r3, [r3, #4]
 18771 0012 13F0080F 		tst	r3, #8
 18772 0016 FAD0     		beq	.L33
 229:../Libraries/STM32F10x_StdPeriph_Driver/src/stm32f10x_rtc.c ****   {
 230:../Libraries/STM32F10x_StdPeriph_Driver/src/stm32f10x_rtc.c ****   }
 231:../Libraries/STM32F10x_StdPeriph_Driver/src/stm32f10x_rtc.c **** }
 18773              		.loc 1 231 0
 18774 0018 7047     		bx	lr
 18775              	.L35:
 18776 001a 00BF     		.align	2
 18777              	.L34:
 18778 001c 00280040 		.word	1073752064
 18779              		.cfi_endproc
 18780              	.LFE38:
 18782              		.section	.text.RTC_GetFlagStatus,"ax",%progbits
 18783              		.align	1
 18784              		.global	RTC_GetFlagStatus
 18785              		.thumb
 18786              		.thumb_func
 18788              	RTC_GetFlagStatus:
 18789              	.LFB39:
 232:../Libraries/STM32F10x_StdPeriph_Driver/src/stm32f10x_rtc.c **** 
 233:../Libraries/STM32F10x_StdPeriph_Driver/src/stm32f10x_rtc.c **** /**
 234:../Libraries/STM32F10x_StdPeriph_Driver/src/stm32f10x_rtc.c ****   * @brief  Checks whether the specified RTC flag is set or not.
 235:../Libraries/STM32F10x_StdPeriph_Driver/src/stm32f10x_rtc.c ****   * @param  RTC_FLAG: specifies the flag to check.
 236:../Libraries/STM32F10x_StdPeriph_Driver/src/stm32f10x_rtc.c ****   *   This parameter can be one the following values:
 237:../Libraries/STM32F10x_StdPeriph_Driver/src/stm32f10x_rtc.c ****   *     @arg RTC_FLAG_RTOFF: RTC Operation OFF flag
 238:../Libraries/STM32F10x_StdPeriph_Driver/src/stm32f10x_rtc.c ****   *     @arg RTC_FLAG_RSF: Registers Synchronized flag
 239:../Libraries/STM32F10x_StdPeriph_Driver/src/stm32f10x_rtc.c ****   *     @arg RTC_FLAG_OW: Overflow flag
 240:../Libraries/STM32F10x_StdPeriph_Driver/src/stm32f10x_rtc.c ****   *     @arg RTC_FLAG_ALR: Alarm flag
 241:../Libraries/STM32F10x_StdPeriph_Driver/src/stm32f10x_rtc.c ****   *     @arg RTC_FLAG_SEC: Second flag
 242:../Libraries/STM32F10x_StdPeriph_Driver/src/stm32f10x_rtc.c ****   * @retval The new state of RTC_FLAG (SET or RESET).
 243:../Libraries/STM32F10x_StdPeriph_Driver/src/stm32f10x_rtc.c ****   */
 244:../Libraries/STM32F10x_StdPeriph_Driver/src/stm32f10x_rtc.c **** FlagStatus RTC_GetFlagStatus(uint16_t RTC_FLAG)
 245:../Libraries/STM32F10x_StdPeriph_Driver/src/stm32f10x_rtc.c **** {
 18790              		.loc 1 245 0
 18791              		.cfi_startproc
 18792              		@ args = 0, pretend = 0, frame = 0
 18793              		@ frame_needed = 0, uses_anonymous_args = 0
 18794              		@ link register save eliminated.
 18795              	.LVL16:
 246:../Libraries/STM32F10x_StdPeriph_Driver/src/stm32f10x_rtc.c ****   FlagStatus bitstatus = RESET;
 247:../Libraries/STM32F10x_StdPeriph_Driver/src/stm32f10x_rtc.c ****   
 248:../Libraries/STM32F10x_StdPeriph_Driver/src/stm32f10x_rtc.c ****   /* Check the parameters */
 249:../Libraries/STM32F10x_StdPeriph_Driver/src/stm32f10x_rtc.c ****   assert_param(IS_RTC_GET_FLAG(RTC_FLAG)); 
 250:../Libraries/STM32F10x_StdPeriph_Driver/src/stm32f10x_rtc.c ****   
 251:../Libraries/STM32F10x_StdPeriph_Driver/src/stm32f10x_rtc.c ****   if ((RTC->CRL & RTC_FLAG) != (uint16_t)RESET)
 18796              		.loc 1 251 0
 18797 0000 034B     		ldr	r3, .L37
 18798 0002 9B88     		ldrh	r3, [r3, #4]
 18799              	.LVL17:
 252:../Libraries/STM32F10x_StdPeriph_Driver/src/stm32f10x_rtc.c ****   {
 253:../Libraries/STM32F10x_StdPeriph_Driver/src/stm32f10x_rtc.c ****     bitstatus = SET;
 18800              		.loc 1 253 0
 18801 0004 1842     		tst	r0, r3
 254:../Libraries/STM32F10x_StdPeriph_Driver/src/stm32f10x_rtc.c ****   }
 255:../Libraries/STM32F10x_StdPeriph_Driver/src/stm32f10x_rtc.c ****   else
 256:../Libraries/STM32F10x_StdPeriph_Driver/src/stm32f10x_rtc.c ****   {
 257:../Libraries/STM32F10x_StdPeriph_Driver/src/stm32f10x_rtc.c ****     bitstatus = RESET;
 258:../Libraries/STM32F10x_StdPeriph_Driver/src/stm32f10x_rtc.c ****   }
 259:../Libraries/STM32F10x_StdPeriph_Driver/src/stm32f10x_rtc.c ****   return bitstatus;
 260:../Libraries/STM32F10x_StdPeriph_Driver/src/stm32f10x_rtc.c **** }
 18802              		.loc 1 260 0
 18803 0006 0CBF     		ite	eq
 18804 0008 0020     		moveq	r0, #0
 18805 000a 0120     		movne	r0, #1
 18806              	.LVL18:
 18807 000c 7047     		bx	lr
 18808              	.L38:
 18809 000e 00BF     		.align	2
 18810              	.L37:
 18811 0010 00280040 		.word	1073752064
 18812              		.cfi_endproc
 18813              	.LFE39:
 18815              		.section	.text.RTC_ClearFlag,"ax",%progbits
 18816              		.align	1
 18817              		.global	RTC_ClearFlag
 18818              		.thumb
 18819              		.thumb_func
 18821              	RTC_ClearFlag:
 18822              	.LFB40:
 261:../Libraries/STM32F10x_StdPeriph_Driver/src/stm32f10x_rtc.c **** 
 262:../Libraries/STM32F10x_StdPeriph_Driver/src/stm32f10x_rtc.c **** /**
 263:../Libraries/STM32F10x_StdPeriph_Driver/src/stm32f10x_rtc.c ****   * @brief  Clears the RTC's pending flags.
 264:../Libraries/STM32F10x_StdPeriph_Driver/src/stm32f10x_rtc.c ****   * @param  RTC_FLAG: specifies the flag to clear.
 265:../Libraries/STM32F10x_StdPeriph_Driver/src/stm32f10x_rtc.c ****   *   This parameter can be any combination of the following values:
 266:../Libraries/STM32F10x_StdPeriph_Driver/src/stm32f10x_rtc.c ****   *     @arg RTC_FLAG_RSF: Registers Synchronized flag. This flag is cleared only after
 267:../Libraries/STM32F10x_StdPeriph_Driver/src/stm32f10x_rtc.c ****   *                        an APB reset or an APB Clock stop.
 268:../Libraries/STM32F10x_StdPeriph_Driver/src/stm32f10x_rtc.c ****   *     @arg RTC_FLAG_OW: Overflow flag
 269:../Libraries/STM32F10x_StdPeriph_Driver/src/stm32f10x_rtc.c ****   *     @arg RTC_FLAG_ALR: Alarm flag
 270:../Libraries/STM32F10x_StdPeriph_Driver/src/stm32f10x_rtc.c ****   *     @arg RTC_FLAG_SEC: Second flag
 271:../Libraries/STM32F10x_StdPeriph_Driver/src/stm32f10x_rtc.c ****   * @retval None
 272:../Libraries/STM32F10x_StdPeriph_Driver/src/stm32f10x_rtc.c ****   */
 273:../Libraries/STM32F10x_StdPeriph_Driver/src/stm32f10x_rtc.c **** void RTC_ClearFlag(uint16_t RTC_FLAG)
 274:../Libraries/STM32F10x_StdPeriph_Driver/src/stm32f10x_rtc.c **** {
 18823              		.loc 1 274 0
 18824              		.cfi_startproc
 18825              		@ args = 0, pretend = 0, frame = 0
 18826              		@ frame_needed = 0, uses_anonymous_args = 0
 18827              		@ link register save eliminated.
 18828              	.LVL19:
 275:../Libraries/STM32F10x_StdPeriph_Driver/src/stm32f10x_rtc.c ****   /* Check the parameters */
 276:../Libraries/STM32F10x_StdPeriph_Driver/src/stm32f10x_rtc.c ****   assert_param(IS_RTC_CLEAR_FLAG(RTC_FLAG)); 
 277:../Libraries/STM32F10x_StdPeriph_Driver/src/stm32f10x_rtc.c ****     
 278:../Libraries/STM32F10x_StdPeriph_Driver/src/stm32f10x_rtc.c ****   /* Clear the corresponding RTC flag */
 279:../Libraries/STM32F10x_StdPeriph_Driver/src/stm32f10x_rtc.c ****   RTC->CRL &= (uint16_t)~RTC_FLAG;
 18829              		.loc 1 279 0
 18830 0000 034B     		ldr	r3, .L40
 18831 0002 9A88     		ldrh	r2, [r3, #4]
 18832 0004 92B2     		uxth	r2, r2
 18833 0006 22EA0002 		bic	r2, r2, r0
 18834 000a 9A80     		strh	r2, [r3, #4]	@ movhi
 280:../Libraries/STM32F10x_StdPeriph_Driver/src/stm32f10x_rtc.c **** }
 18835              		.loc 1 280 0
 18836 000c 7047     		bx	lr
 18837              	.L41:
 18838 000e 00BF     		.align	2
 18839              	.L40:
 18840 0010 00280040 		.word	1073752064
 18841              		.cfi_endproc
 18842              	.LFE40:
 18844              		.section	.text.RTC_GetITStatus,"ax",%progbits
 18845              		.align	1
 18846              		.global	RTC_GetITStatus
 18847              		.thumb
 18848              		.thumb_func
 18850              	RTC_GetITStatus:
 18851              	.LFB41:
 281:../Libraries/STM32F10x_StdPeriph_Driver/src/stm32f10x_rtc.c **** 
 282:../Libraries/STM32F10x_StdPeriph_Driver/src/stm32f10x_rtc.c **** /**
 283:../Libraries/STM32F10x_StdPeriph_Driver/src/stm32f10x_rtc.c ****   * @brief  Checks whether the specified RTC interrupt has occurred or not.
 284:../Libraries/STM32F10x_StdPeriph_Driver/src/stm32f10x_rtc.c ****   * @param  RTC_IT: specifies the RTC interrupts sources to check.
 285:../Libraries/STM32F10x_StdPeriph_Driver/src/stm32f10x_rtc.c ****   *   This parameter can be one of the following values:
 286:../Libraries/STM32F10x_StdPeriph_Driver/src/stm32f10x_rtc.c ****   *     @arg RTC_IT_OW: Overflow interrupt
 287:../Libraries/STM32F10x_StdPeriph_Driver/src/stm32f10x_rtc.c ****   *     @arg RTC_IT_ALR: Alarm interrupt
 288:../Libraries/STM32F10x_StdPeriph_Driver/src/stm32f10x_rtc.c ****   *     @arg RTC_IT_SEC: Second interrupt
 289:../Libraries/STM32F10x_StdPeriph_Driver/src/stm32f10x_rtc.c ****   * @retval The new state of the RTC_IT (SET or RESET).
 290:../Libraries/STM32F10x_StdPeriph_Driver/src/stm32f10x_rtc.c ****   */
 291:../Libraries/STM32F10x_StdPeriph_Driver/src/stm32f10x_rtc.c **** ITStatus RTC_GetITStatus(uint16_t RTC_IT)
 292:../Libraries/STM32F10x_StdPeriph_Driver/src/stm32f10x_rtc.c **** {
 18852              		.loc 1 292 0
 18853              		.cfi_startproc
 18854              		@ args = 0, pretend = 0, frame = 0
 18855              		@ frame_needed = 0, uses_anonymous_args = 0
 18856              		@ link register save eliminated.
 18857              	.LVL20:
 293:../Libraries/STM32F10x_StdPeriph_Driver/src/stm32f10x_rtc.c ****   ITStatus bitstatus = RESET;
 294:../Libraries/STM32F10x_StdPeriph_Driver/src/stm32f10x_rtc.c ****   /* Check the parameters */
 295:../Libraries/STM32F10x_StdPeriph_Driver/src/stm32f10x_rtc.c ****   assert_param(IS_RTC_GET_IT(RTC_IT)); 
 296:../Libraries/STM32F10x_StdPeriph_Driver/src/stm32f10x_rtc.c ****   
 297:../Libraries/STM32F10x_StdPeriph_Driver/src/stm32f10x_rtc.c ****   bitstatus = (ITStatus)(RTC->CRL & RTC_IT);
 18858              		.loc 1 297 0
 18859 0000 074B     		ldr	r3, .L45
 18860 0002 9A88     		ldrh	r2, [r3, #4]
 298:../Libraries/STM32F10x_StdPeriph_Driver/src/stm32f10x_rtc.c ****   if (((RTC->CRH & RTC_IT) != (uint16_t)RESET) && (bitstatus != (uint16_t)RESET))
 18861              		.loc 1 298 0
 18862 0004 1B88     		ldrh	r3, [r3, #0]
 297:../Libraries/STM32F10x_StdPeriph_Driver/src/stm32f10x_rtc.c ****   bitstatus = (ITStatus)(RTC->CRL & RTC_IT);
 18863              		.loc 1 297 0
 18864 0006 92B2     		uxth	r2, r2
 18865              	.LVL21:
 18866              		.loc 1 298 0
 18867 0008 0340     		ands	r3, r0, r3
 18868 000a 06D0     		beq	.L44
 297:../Libraries/STM32F10x_StdPeriph_Driver/src/stm32f10x_rtc.c ****   bitstatus = (ITStatus)(RTC->CRL & RTC_IT);
 18869              		.loc 1 297 0 discriminator 1
 18870 000c 1040     		ands	r0, r0, r2
 18871              	.LVL22:
 299:../Libraries/STM32F10x_StdPeriph_Driver/src/stm32f10x_rtc.c ****   {
 300:../Libraries/STM32F10x_StdPeriph_Driver/src/stm32f10x_rtc.c ****     bitstatus = SET;
 18872              		.loc 1 300 0 discriminator 1
 18873 000e 10F0FF0F 		tst	r0, #255
 18874 0012 0CBF     		ite	eq
 18875 0014 0020     		moveq	r0, #0
 18876 0016 0120     		movne	r0, #1
 18877 0018 7047     		bx	lr
 18878              	.LVL23:
 18879              	.L44:
 301:../Libraries/STM32F10x_StdPeriph_Driver/src/stm32f10x_rtc.c ****   }
 302:../Libraries/STM32F10x_StdPeriph_Driver/src/stm32f10x_rtc.c ****   else
 303:../Libraries/STM32F10x_StdPeriph_Driver/src/stm32f10x_rtc.c ****   {
 304:../Libraries/STM32F10x_StdPeriph_Driver/src/stm32f10x_rtc.c ****     bitstatus = RESET;
 18880              		.loc 1 304 0
 18881 001a 1846     		mov	r0, r3
 18882              	.LVL24:
 305:../Libraries/STM32F10x_StdPeriph_Driver/src/stm32f10x_rtc.c ****   }
 306:../Libraries/STM32F10x_StdPeriph_Driver/src/stm32f10x_rtc.c ****   return bitstatus;
 307:../Libraries/STM32F10x_StdPeriph_Driver/src/stm32f10x_rtc.c **** }
 18883              		.loc 1 307 0
 18884 001c 7047     		bx	lr
 18885              	.L46:
 18886 001e 00BF     		.align	2
 18887              	.L45:
 18888 0020 00280040 		.word	1073752064
 18889              		.cfi_endproc
 18890              	.LFE41:
 18892              		.section	.text.RTC_ClearITPendingBit,"ax",%progbits
 18893              		.align	1
 18894              		.global	RTC_ClearITPendingBit
 18895              		.thumb
 18896              		.thumb_func
 18898              	RTC_ClearITPendingBit:
 18899              	.LFB42:
 308:../Libraries/STM32F10x_StdPeriph_Driver/src/stm32f10x_rtc.c **** 
 309:../Libraries/STM32F10x_StdPeriph_Driver/src/stm32f10x_rtc.c **** /**
 310:../Libraries/STM32F10x_StdPeriph_Driver/src/stm32f10x_rtc.c ****   * @brief  Clears the RTC's interrupt pending bits.
 311:../Libraries/STM32F10x_StdPeriph_Driver/src/stm32f10x_rtc.c ****   * @param  RTC_IT: specifies the interrupt pending bit to clear.
 312:../Libraries/STM32F10x_StdPeriph_Driver/src/stm32f10x_rtc.c ****   *   This parameter can be any combination of the following values:
 313:../Libraries/STM32F10x_StdPeriph_Driver/src/stm32f10x_rtc.c ****   *     @arg RTC_IT_OW: Overflow interrupt
 314:../Libraries/STM32F10x_StdPeriph_Driver/src/stm32f10x_rtc.c ****   *     @arg RTC_IT_ALR: Alarm interrupt
 315:../Libraries/STM32F10x_StdPeriph_Driver/src/stm32f10x_rtc.c ****   *     @arg RTC_IT_SEC: Second interrupt
 316:../Libraries/STM32F10x_StdPeriph_Driver/src/stm32f10x_rtc.c ****   * @retval None
 317:../Libraries/STM32F10x_StdPeriph_Driver/src/stm32f10x_rtc.c ****   */
 318:../Libraries/STM32F10x_StdPeriph_Driver/src/stm32f10x_rtc.c **** void RTC_ClearITPendingBit(uint16_t RTC_IT)
 319:../Libraries/STM32F10x_StdPeriph_Driver/src/stm32f10x_rtc.c **** {
 18900              		.loc 1 319 0
 18901              		.cfi_startproc
 18902              		@ args = 0, pretend = 0, frame = 0
 18903              		@ frame_needed = 0, uses_anonymous_args = 0
 18904              		@ link register save eliminated.
 18905              	.LVL25:
 320:../Libraries/STM32F10x_StdPeriph_Driver/src/stm32f10x_rtc.c ****   /* Check the parameters */
 321:../Libraries/STM32F10x_StdPeriph_Driver/src/stm32f10x_rtc.c ****   assert_param(IS_RTC_IT(RTC_IT));  
 322:../Libraries/STM32F10x_StdPeriph_Driver/src/stm32f10x_rtc.c ****   
 323:../Libraries/STM32F10x_StdPeriph_Driver/src/stm32f10x_rtc.c ****   /* Clear the corresponding RTC pending bit */
 324:../Libraries/STM32F10x_StdPeriph_Driver/src/stm32f10x_rtc.c ****   RTC->CRL &= (uint16_t)~RTC_IT;
 18906              		.loc 1 324 0
 18907 0000 034B     		ldr	r3, .L48
 18908 0002 9A88     		ldrh	r2, [r3, #4]
 18909 0004 92B2     		uxth	r2, r2
 18910 0006 22EA0002 		bic	r2, r2, r0
 18911 000a 9A80     		strh	r2, [r3, #4]	@ movhi
 325:../Libraries/STM32F10x_StdPeriph_Driver/src/stm32f10x_rtc.c **** }
 18912              		.loc 1 325 0
 18913 000c 7047     		bx	lr
 18914              	.L49:
 18915 000e 00BF     		.align	2
 18916              	.L48:
 18917 0010 00280040 		.word	1073752064
 18918              		.cfi_endproc
 18919              	.LFE42:
 18921              		.text
 18922              	.Letext0: