   1              		.syntax unified
   2              		.cpu cortex-m3
   3              		.fpu softvfp
   4              		.eabi_attribute 20, 1
   5              		.eabi_attribute 21, 1
   6              		.eabi_attribute 23, 3
   7              		.eabi_attribute 24, 1
   8              		.eabi_attribute 25, 1
   9              		.eabi_attribute 26, 1
  10              		.eabi_attribute 30, 4
  11              		.eabi_attribute 18, 4
  12              		.thumb
  13              		.file	"stm32f10x_cec.c"
  23              	.Ltext0:
  24              		.file 1 "../Libraries/STM32F10x_StdPeriph_Driver/src/stm32f10x_cec.c"
 18528              		.align	1
 18529              		.global	CEC_DeInit
 18530              		.thumb
 18531              		.thumb_func
 18533              	CEC_DeInit:
 18534              	.LFB29:
   1:../Libraries/STM32F10x_StdPeriph_Driver/src/stm32f10x_cec.c **** /**
   2:../Libraries/STM32F10x_StdPeriph_Driver/src/stm32f10x_cec.c ****   ******************************************************************************
   3:../Libraries/STM32F10x_StdPeriph_Driver/src/stm32f10x_cec.c ****   * @file    stm32f10x_cec.c
   4:../Libraries/STM32F10x_StdPeriph_Driver/src/stm32f10x_cec.c ****   * @author  MCD Application Team
   5:../Libraries/STM32F10x_StdPeriph_Driver/src/stm32f10x_cec.c ****   * @version V3.5.0
   6:../Libraries/STM32F10x_StdPeriph_Driver/src/stm32f10x_cec.c ****   * @date    11-March-2011
   7:../Libraries/STM32F10x_StdPeriph_Driver/src/stm32f10x_cec.c ****   * @brief   This file provides all the CEC firmware functions.
   8:../Libraries/STM32F10x_StdPeriph_Driver/src/stm32f10x_cec.c ****   ******************************************************************************
   9:../Libraries/STM32F10x_StdPeriph_Driver/src/stm32f10x_cec.c ****   * @attention
  10:../Libraries/STM32F10x_StdPeriph_Driver/src/stm32f10x_cec.c ****   *
  11:../Libraries/STM32F10x_StdPeriph_Driver/src/stm32f10x_cec.c ****   * THE PRESENT FIRMWARE WHICH IS FOR GUIDANCE ONLY AIMS AT PROVIDING CUSTOMERS
  12:../Libraries/STM32F10x_StdPeriph_Driver/src/stm32f10x_cec.c ****   * WITH CODING INFORMATION REGARDING THEIR PRODUCTS IN ORDER FOR THEM TO SAVE
  13:../Libraries/STM32F10x_StdPeriph_Driver/src/stm32f10x_cec.c ****   * TIME. AS A RESULT, STMICROELECTRONICS SHALL NOT BE HELD LIABLE FOR ANY
  14:../Libraries/STM32F10x_StdPeriph_Driver/src/stm32f10x_cec.c ****   * DIRECT, INDIRECT OR CONSEQUENTIAL DAMAGES WITH RESPECT TO ANY CLAIMS ARISING
  15:../Libraries/STM32F10x_StdPeriph_Driver/src/stm32f10x_cec.c ****   * FROM THE CONTENT OF SUCH FIRMWARE AND/OR THE USE MADE BY CUSTOMERS OF THE
  16:../Libraries/STM32F10x_StdPeriph_Driver/src/stm32f10x_cec.c ****   * CODING INFORMATION CONTAINED HEREIN IN CONNECTION WITH THEIR PRODUCTS.
  17:../Libraries/STM32F10x_StdPeriph_Driver/src/stm32f10x_cec.c ****   *
  18:../Libraries/STM32F10x_StdPeriph_Driver/src/stm32f10x_cec.c ****   * <h2><center>&copy; COPYRIGHT 2011 STMicroelectronics</center></h2>
  19:../Libraries/STM32F10x_StdPeriph_Driver/src/stm32f10x_cec.c ****   ******************************************************************************
  20:../Libraries/STM32F10x_StdPeriph_Driver/src/stm32f10x_cec.c ****   */
  21:../Libraries/STM32F10x_StdPeriph_Driver/src/stm32f10x_cec.c **** 
  22:../Libraries/STM32F10x_StdPeriph_Driver/src/stm32f10x_cec.c **** /* Includes ------------------------------------------------------------------*/
  23:../Libraries/STM32F10x_StdPeriph_Driver/src/stm32f10x_cec.c **** #include "stm32f10x_cec.h"
  24:../Libraries/STM32F10x_StdPeriph_Driver/src/stm32f10x_cec.c **** #include "stm32f10x_rcc.h"
  25:../Libraries/STM32F10x_StdPeriph_Driver/src/stm32f10x_cec.c **** 
  26:../Libraries/STM32F10x_StdPeriph_Driver/src/stm32f10x_cec.c **** /** @addtogroup STM32F10x_StdPeriph_Driver
  27:../Libraries/STM32F10x_StdPeriph_Driver/src/stm32f10x_cec.c ****   * @{
  28:../Libraries/STM32F10x_StdPeriph_Driver/src/stm32f10x_cec.c ****   */
  29:../Libraries/STM32F10x_StdPeriph_Driver/src/stm32f10x_cec.c **** 
  30:../Libraries/STM32F10x_StdPeriph_Driver/src/stm32f10x_cec.c **** /** @defgroup CEC 
  31:../Libraries/STM32F10x_StdPeriph_Driver/src/stm32f10x_cec.c ****   * @brief CEC driver modules
  32:../Libraries/STM32F10x_StdPeriph_Driver/src/stm32f10x_cec.c ****   * @{
  33:../Libraries/STM32F10x_StdPeriph_Driver/src/stm32f10x_cec.c ****   */
  34:../Libraries/STM32F10x_StdPeriph_Driver/src/stm32f10x_cec.c **** 
  35:../Libraries/STM32F10x_StdPeriph_Driver/src/stm32f10x_cec.c **** /** @defgroup CEC_Private_TypesDefinitions
  36:../Libraries/STM32F10x_StdPeriph_Driver/src/stm32f10x_cec.c ****   * @{
  37:../Libraries/STM32F10x_StdPeriph_Driver/src/stm32f10x_cec.c ****   */
  38:../Libraries/STM32F10x_StdPeriph_Driver/src/stm32f10x_cec.c **** 
  39:../Libraries/STM32F10x_StdPeriph_Driver/src/stm32f10x_cec.c **** /**
  40:../Libraries/STM32F10x_StdPeriph_Driver/src/stm32f10x_cec.c ****   * @}
  41:../Libraries/STM32F10x_StdPeriph_Driver/src/stm32f10x_cec.c ****   */
  42:../Libraries/STM32F10x_StdPeriph_Driver/src/stm32f10x_cec.c **** 
  43:../Libraries/STM32F10x_StdPeriph_Driver/src/stm32f10x_cec.c **** 
  44:../Libraries/STM32F10x_StdPeriph_Driver/src/stm32f10x_cec.c **** /** @defgroup CEC_Private_Defines
  45:../Libraries/STM32F10x_StdPeriph_Driver/src/stm32f10x_cec.c ****   * @{
  46:../Libraries/STM32F10x_StdPeriph_Driver/src/stm32f10x_cec.c ****   */ 
  47:../Libraries/STM32F10x_StdPeriph_Driver/src/stm32f10x_cec.c **** 
  48:../Libraries/STM32F10x_StdPeriph_Driver/src/stm32f10x_cec.c **** /* ------------ CEC registers bit address in the alias region ----------- */
  49:../Libraries/STM32F10x_StdPeriph_Driver/src/stm32f10x_cec.c **** #define CEC_OFFSET                (CEC_BASE - PERIPH_BASE)
  50:../Libraries/STM32F10x_StdPeriph_Driver/src/stm32f10x_cec.c **** 
  51:../Libraries/STM32F10x_StdPeriph_Driver/src/stm32f10x_cec.c **** /* --- CFGR Register ---*/
  52:../Libraries/STM32F10x_StdPeriph_Driver/src/stm32f10x_cec.c **** 
  53:../Libraries/STM32F10x_StdPeriph_Driver/src/stm32f10x_cec.c **** /* Alias word address of PE bit */
  54:../Libraries/STM32F10x_StdPeriph_Driver/src/stm32f10x_cec.c **** #define CFGR_OFFSET                 (CEC_OFFSET + 0x00)
  55:../Libraries/STM32F10x_StdPeriph_Driver/src/stm32f10x_cec.c **** #define PE_BitNumber                0x00
  56:../Libraries/STM32F10x_StdPeriph_Driver/src/stm32f10x_cec.c **** #define CFGR_PE_BB                  (PERIPH_BB_BASE + (CFGR_OFFSET * 32) + (PE_BitNumber * 4))
  57:../Libraries/STM32F10x_StdPeriph_Driver/src/stm32f10x_cec.c **** 
  58:../Libraries/STM32F10x_StdPeriph_Driver/src/stm32f10x_cec.c **** /* Alias word address of IE bit */
  59:../Libraries/STM32F10x_StdPeriph_Driver/src/stm32f10x_cec.c **** #define IE_BitNumber                0x01
  60:../Libraries/STM32F10x_StdPeriph_Driver/src/stm32f10x_cec.c **** #define CFGR_IE_BB                  (PERIPH_BB_BASE + (CFGR_OFFSET * 32) + (IE_BitNumber * 4))
  61:../Libraries/STM32F10x_StdPeriph_Driver/src/stm32f10x_cec.c **** 
  62:../Libraries/STM32F10x_StdPeriph_Driver/src/stm32f10x_cec.c **** /* --- CSR Register ---*/
  63:../Libraries/STM32F10x_StdPeriph_Driver/src/stm32f10x_cec.c **** 
  64:../Libraries/STM32F10x_StdPeriph_Driver/src/stm32f10x_cec.c **** /* Alias word address of TSOM bit */
  65:../Libraries/STM32F10x_StdPeriph_Driver/src/stm32f10x_cec.c **** #define CSR_OFFSET                  (CEC_OFFSET + 0x10)
  66:../Libraries/STM32F10x_StdPeriph_Driver/src/stm32f10x_cec.c **** #define TSOM_BitNumber              0x00
  67:../Libraries/STM32F10x_StdPeriph_Driver/src/stm32f10x_cec.c **** #define CSR_TSOM_BB                 (PERIPH_BB_BASE + (CSR_OFFSET * 32) + (TSOM_BitNumber * 4))
  68:../Libraries/STM32F10x_StdPeriph_Driver/src/stm32f10x_cec.c **** 
  69:../Libraries/STM32F10x_StdPeriph_Driver/src/stm32f10x_cec.c **** /* Alias word address of TEOM bit */
  70:../Libraries/STM32F10x_StdPeriph_Driver/src/stm32f10x_cec.c **** #define TEOM_BitNumber              0x01
  71:../Libraries/STM32F10x_StdPeriph_Driver/src/stm32f10x_cec.c **** #define CSR_TEOM_BB                 (PERIPH_BB_BASE + (CSR_OFFSET * 32) + (TEOM_BitNumber * 4))
  72:../Libraries/STM32F10x_StdPeriph_Driver/src/stm32f10x_cec.c ****   
  73:../Libraries/STM32F10x_StdPeriph_Driver/src/stm32f10x_cec.c **** #define CFGR_CLEAR_Mask            (uint8_t)(0xF3)        /* CFGR register Mask */
  74:../Libraries/STM32F10x_StdPeriph_Driver/src/stm32f10x_cec.c **** #define FLAG_Mask                  ((uint32_t)0x00FFFFFF) /* CEC FLAG mask */
  75:../Libraries/STM32F10x_StdPeriph_Driver/src/stm32f10x_cec.c ****  
  76:../Libraries/STM32F10x_StdPeriph_Driver/src/stm32f10x_cec.c **** /**
  77:../Libraries/STM32F10x_StdPeriph_Driver/src/stm32f10x_cec.c ****   * @}
  78:../Libraries/STM32F10x_StdPeriph_Driver/src/stm32f10x_cec.c ****   */ 
  79:../Libraries/STM32F10x_StdPeriph_Driver/src/stm32f10x_cec.c **** 
  80:../Libraries/STM32F10x_StdPeriph_Driver/src/stm32f10x_cec.c **** 
  81:../Libraries/STM32F10x_StdPeriph_Driver/src/stm32f10x_cec.c **** /** @defgroup CEC_Private_Macros
  82:../Libraries/STM32F10x_StdPeriph_Driver/src/stm32f10x_cec.c ****   * @{
  83:../Libraries/STM32F10x_StdPeriph_Driver/src/stm32f10x_cec.c ****   */ 
  84:../Libraries/STM32F10x_StdPeriph_Driver/src/stm32f10x_cec.c **** 
  85:../Libraries/STM32F10x_StdPeriph_Driver/src/stm32f10x_cec.c **** /**
  86:../Libraries/STM32F10x_StdPeriph_Driver/src/stm32f10x_cec.c ****   * @}
  87:../Libraries/STM32F10x_StdPeriph_Driver/src/stm32f10x_cec.c ****   */ 
  88:../Libraries/STM32F10x_StdPeriph_Driver/src/stm32f10x_cec.c **** 
  89:../Libraries/STM32F10x_StdPeriph_Driver/src/stm32f10x_cec.c **** 
  90:../Libraries/STM32F10x_StdPeriph_Driver/src/stm32f10x_cec.c **** /** @defgroup CEC_Private_Variables
  91:../Libraries/STM32F10x_StdPeriph_Driver/src/stm32f10x_cec.c ****   * @{
  92:../Libraries/STM32F10x_StdPeriph_Driver/src/stm32f10x_cec.c ****   */ 
  93:../Libraries/STM32F10x_StdPeriph_Driver/src/stm32f10x_cec.c **** 
  94:../Libraries/STM32F10x_StdPeriph_Driver/src/stm32f10x_cec.c **** /**
  95:../Libraries/STM32F10x_StdPeriph_Driver/src/stm32f10x_cec.c ****   * @}
  96:../Libraries/STM32F10x_StdPeriph_Driver/src/stm32f10x_cec.c ****   */ 
  97:../Libraries/STM32F10x_StdPeriph_Driver/src/stm32f10x_cec.c **** 
  98:../Libraries/STM32F10x_StdPeriph_Driver/src/stm32f10x_cec.c **** 
  99:../Libraries/STM32F10x_StdPeriph_Driver/src/stm32f10x_cec.c **** /** @defgroup CEC_Private_FunctionPrototypes
 100:../Libraries/STM32F10x_StdPeriph_Driver/src/stm32f10x_cec.c ****   * @{
 101:../Libraries/STM32F10x_StdPeriph_Driver/src/stm32f10x_cec.c ****   */
 102:../Libraries/STM32F10x_StdPeriph_Driver/src/stm32f10x_cec.c ****  
 103:../Libraries/STM32F10x_StdPeriph_Driver/src/stm32f10x_cec.c **** /**
 104:../Libraries/STM32F10x_StdPeriph_Driver/src/stm32f10x_cec.c ****   * @}
 105:../Libraries/STM32F10x_StdPeriph_Driver/src/stm32f10x_cec.c ****   */ 
 106:../Libraries/STM32F10x_StdPeriph_Driver/src/stm32f10x_cec.c **** 
 107:../Libraries/STM32F10x_StdPeriph_Driver/src/stm32f10x_cec.c **** 
 108:../Libraries/STM32F10x_StdPeriph_Driver/src/stm32f10x_cec.c **** /** @defgroup CEC_Private_Functions
 109:../Libraries/STM32F10x_StdPeriph_Driver/src/stm32f10x_cec.c ****   * @{
 110:../Libraries/STM32F10x_StdPeriph_Driver/src/stm32f10x_cec.c ****   */ 
 111:../Libraries/STM32F10x_StdPeriph_Driver/src/stm32f10x_cec.c **** 
 112:../Libraries/STM32F10x_StdPeriph_Driver/src/stm32f10x_cec.c **** /**
 113:../Libraries/STM32F10x_StdPeriph_Driver/src/stm32f10x_cec.c ****   * @brief  Deinitializes the CEC peripheral registers to their default reset 
 114:../Libraries/STM32F10x_StdPeriph_Driver/src/stm32f10x_cec.c ****   *         values.
 115:../Libraries/STM32F10x_StdPeriph_Driver/src/stm32f10x_cec.c ****   * @param  None
 116:../Libraries/STM32F10x_StdPeriph_Driver/src/stm32f10x_cec.c ****   * @retval None
 117:../Libraries/STM32F10x_StdPeriph_Driver/src/stm32f10x_cec.c ****   */
 118:../Libraries/STM32F10x_StdPeriph_Driver/src/stm32f10x_cec.c **** void CEC_DeInit(void)
 119:../Libraries/STM32F10x_StdPeriph_Driver/src/stm32f10x_cec.c **** {
 18535              		.loc 1 119 0
 18536              		.cfi_startproc
 18537              		@ args = 0, pretend = 0, frame = 0
 18538              		@ frame_needed = 0, uses_anonymous_args = 0
 120:../Libraries/STM32F10x_StdPeriph_Driver/src/stm32f10x_cec.c ****   /* Enable CEC reset state */
 121:../Libraries/STM32F10x_StdPeriph_Driver/src/stm32f10x_cec.c ****   RCC_APB1PeriphResetCmd(RCC_APB1Periph_CEC, ENABLE);  
 18539              		.loc 1 121 0
 18540 0000 0121     		movs	r1, #1
 119:../Libraries/STM32F10x_StdPeriph_Driver/src/stm32f10x_cec.c **** {
 18541              		.loc 1 119 0
 18542 0002 10B5     		push	{r4, lr}
 18543              	.LCFI0:
 18544              		.cfi_def_cfa_offset 8
 18545              		.loc 1 121 0
 18546 0004 4FF08040 		mov	r0, #1073741824
 18547              		.cfi_offset 14, -4
 18548              		.cfi_offset 4, -8
 18549 0008 FFF7FEFF 		bl	RCC_APB1PeriphResetCmd
 122:../Libraries/STM32F10x_StdPeriph_Driver/src/stm32f10x_cec.c ****   /* Release CEC from reset state */
 123:../Libraries/STM32F10x_StdPeriph_Driver/src/stm32f10x_cec.c ****   RCC_APB1PeriphResetCmd(RCC_APB1Periph_CEC, DISABLE); 
 18550              		.loc 1 123 0
 18551 000c 4FF08040 		mov	r0, #1073741824
 18552 0010 0021     		movs	r1, #0
 124:../Libraries/STM32F10x_StdPeriph_Driver/src/stm32f10x_cec.c **** }
 18553              		.loc 1 124 0
 18554 0012 BDE81040 		pop	{r4, lr}
 123:../Libraries/STM32F10x_StdPeriph_Driver/src/stm32f10x_cec.c ****   RCC_APB1PeriphResetCmd(RCC_APB1Periph_CEC, DISABLE); 
 18555              		.loc 1 123 0
 18556 0016 FFF7FEBF 		b	RCC_APB1PeriphResetCmd
 18557              		.cfi_endproc
 18558              	.LFE29:
 18560              		.section	.text.CEC_Init,"ax",%progbits
 18561              		.align	1
 18562              		.global	CEC_Init
 18563              		.thumb
 18564              		.thumb_func
 18566              	CEC_Init:
 18567              	.LFB30:
 125:../Libraries/STM32F10x_StdPeriph_Driver/src/stm32f10x_cec.c **** 
 126:../Libraries/STM32F10x_StdPeriph_Driver/src/stm32f10x_cec.c **** 
 127:../Libraries/STM32F10x_StdPeriph_Driver/src/stm32f10x_cec.c **** /**
 128:../Libraries/STM32F10x_StdPeriph_Driver/src/stm32f10x_cec.c ****   * @brief  Initializes the CEC peripheral according to the specified 
 129:../Libraries/STM32F10x_StdPeriph_Driver/src/stm32f10x_cec.c ****   *         parameters in the CEC_InitStruct.
 130:../Libraries/STM32F10x_StdPeriph_Driver/src/stm32f10x_cec.c ****   * @param  CEC_InitStruct: pointer to an CEC_InitTypeDef structure that
 131:../Libraries/STM32F10x_StdPeriph_Driver/src/stm32f10x_cec.c ****   *         contains the configuration information for the specified
 132:../Libraries/STM32F10x_StdPeriph_Driver/src/stm32f10x_cec.c ****   *         CEC peripheral.
 133:../Libraries/STM32F10x_StdPeriph_Driver/src/stm32f10x_cec.c ****   * @retval None
 134:../Libraries/STM32F10x_StdPeriph_Driver/src/stm32f10x_cec.c ****   */
 135:../Libraries/STM32F10x_StdPeriph_Driver/src/stm32f10x_cec.c **** void CEC_Init(CEC_InitTypeDef* CEC_InitStruct)
 136:../Libraries/STM32F10x_StdPeriph_Driver/src/stm32f10x_cec.c **** {
 18568              		.loc 1 136 0
 18569              		.cfi_startproc
 18570              		@ args = 0, pretend = 0, frame = 0
 18571              		@ frame_needed = 0, uses_anonymous_args = 0
 18572              	.LVL0:
 137:../Libraries/STM32F10x_StdPeriph_Driver/src/stm32f10x_cec.c ****   uint16_t tmpreg = 0;
 138:../Libraries/STM32F10x_StdPeriph_Driver/src/stm32f10x_cec.c ****  
 139:../Libraries/STM32F10x_StdPeriph_Driver/src/stm32f10x_cec.c ****   /* Check the parameters */
 140:../Libraries/STM32F10x_StdPeriph_Driver/src/stm32f10x_cec.c ****   assert_param(IS_CEC_BIT_TIMING_ERROR_MODE(CEC_InitStruct->CEC_BitTimingMode)); 
 141:../Libraries/STM32F10x_StdPeriph_Driver/src/stm32f10x_cec.c ****   assert_param(IS_CEC_BIT_PERIOD_ERROR_MODE(CEC_InitStruct->CEC_BitPeriodMode));
 142:../Libraries/STM32F10x_StdPeriph_Driver/src/stm32f10x_cec.c ****      
 143:../Libraries/STM32F10x_StdPeriph_Driver/src/stm32f10x_cec.c ****   /*---------------------------- CEC CFGR Configuration -----------------*/
 144:../Libraries/STM32F10x_StdPeriph_Driver/src/stm32f10x_cec.c ****   /* Get the CEC CFGR value */
 145:../Libraries/STM32F10x_StdPeriph_Driver/src/stm32f10x_cec.c ****   tmpreg = CEC->CFGR;
 18573              		.loc 1 145 0
 18574 0000 064B     		ldr	r3, .L3
 136:../Libraries/STM32F10x_StdPeriph_Driver/src/stm32f10x_cec.c **** {
 18575              		.loc 1 136 0
 18576 0002 10B5     		push	{r4, lr}
 18577              	.LCFI1:
 18578              		.cfi_def_cfa_offset 8
 18579              		.loc 1 145 0
 18580 0004 1968     		ldr	r1, [r3, #0]
 18581              	.LVL1:
 146:../Libraries/STM32F10x_StdPeriph_Driver/src/stm32f10x_cec.c ****   
 147:../Libraries/STM32F10x_StdPeriph_Driver/src/stm32f10x_cec.c ****   /* Clear BTEM and BPEM bits */
 148:../Libraries/STM32F10x_StdPeriph_Driver/src/stm32f10x_cec.c ****   tmpreg &= CFGR_CLEAR_Mask;
 149:../Libraries/STM32F10x_StdPeriph_Driver/src/stm32f10x_cec.c ****   
 150:../Libraries/STM32F10x_StdPeriph_Driver/src/stm32f10x_cec.c ****   /* Configure CEC: Bit Timing Error and Bit Period Error */
 151:../Libraries/STM32F10x_StdPeriph_Driver/src/stm32f10x_cec.c ****   tmpreg |= (uint16_t)(CEC_InitStruct->CEC_BitTimingMode | CEC_InitStruct->CEC_BitPeriodMode);
 18582              		.loc 1 151 0
 18583 0006 4488     		ldrh	r4, [r0, #2]
 18584              		.cfi_offset 14, -4
 18585              		.cfi_offset 4, -8
 18586 0008 0288     		ldrh	r2, [r0, #0]
 148:../Libraries/STM32F10x_StdPeriph_Driver/src/stm32f10x_cec.c ****   tmpreg &= CFGR_CLEAR_Mask;
 18587              		.loc 1 148 0
 18588 000a 01F0F301 		and	r1, r1, #243
 18589              	.LVL2:
 18590              		.loc 1 151 0
 18591 000e 44EA0202 		orr	r2, r4, r2
 18592 0012 41EA0202 		orr	r2, r1, r2
 152:../Libraries/STM32F10x_StdPeriph_Driver/src/stm32f10x_cec.c **** 
 153:../Libraries/STM32F10x_StdPeriph_Driver/src/stm32f10x_cec.c ****   /* Write to CEC CFGR  register*/
 154:../Libraries/STM32F10x_StdPeriph_Driver/src/stm32f10x_cec.c ****   CEC->CFGR = tmpreg;
 18593              		.loc 1 154 0
 18594 0016 92B2     		uxth	r2, r2
 18595 0018 1A60     		str	r2, [r3, #0]
 155:../Libraries/STM32F10x_StdPeriph_Driver/src/stm32f10x_cec.c ****   
 156:../Libraries/STM32F10x_StdPeriph_Driver/src/stm32f10x_cec.c **** }
 18596              		.loc 1 156 0
 18597 001a 10BD     		pop	{r4, pc}
 18598              	.L4:
 18599              		.align	2
 18600              	.L3:
 18601 001c 00780040 		.word	1073772544
 18602              		.cfi_endproc
 18603              	.LFE30:
 18605              		.section	.text.CEC_Cmd,"ax",%progbits
 18606              		.align	1
 18607              		.global	CEC_Cmd
 18608              		.thumb
 18609              		.thumb_func
 18611              	CEC_Cmd:
 18612              	.LFB31:
 157:../Libraries/STM32F10x_StdPeriph_Driver/src/stm32f10x_cec.c **** 
 158:../Libraries/STM32F10x_StdPeriph_Driver/src/stm32f10x_cec.c **** /**
 159:../Libraries/STM32F10x_StdPeriph_Driver/src/stm32f10x_cec.c ****   * @brief  Enables or disables the specified CEC peripheral.
 160:../Libraries/STM32F10x_StdPeriph_Driver/src/stm32f10x_cec.c ****   * @param  NewState: new state of the CEC peripheral. 
 161:../Libraries/STM32F10x_StdPeriph_Driver/src/stm32f10x_cec.c ****   *     This parameter can be: ENABLE or DISABLE.
 162:../Libraries/STM32F10x_StdPeriph_Driver/src/stm32f10x_cec.c ****   * @retval None
 163:../Libraries/STM32F10x_StdPeriph_Driver/src/stm32f10x_cec.c ****   */
 164:../Libraries/STM32F10x_StdPeriph_Driver/src/stm32f10x_cec.c **** void CEC_Cmd(FunctionalState NewState)
 165:../Libraries/STM32F10x_StdPeriph_Driver/src/stm32f10x_cec.c **** {
 18613              		.loc 1 165 0
 18614              		.cfi_startproc
 18615              		@ args = 0, pretend = 0, frame = 0
 18616              		@ frame_needed = 0, uses_anonymous_args = 0
 18617              		@ link register save eliminated.
 18618              	.LVL3:
 166:../Libraries/STM32F10x_StdPeriph_Driver/src/stm32f10x_cec.c ****   /* Check the parameters */
 167:../Libraries/STM32F10x_StdPeriph_Driver/src/stm32f10x_cec.c ****   assert_param(IS_FUNCTIONAL_STATE(NewState));
 168:../Libraries/STM32F10x_StdPeriph_Driver/src/stm32f10x_cec.c **** 
 169:../Libraries/STM32F10x_StdPeriph_Driver/src/stm32f10x_cec.c ****   *(__IO uint32_t *) CFGR_PE_BB = (uint32_t)NewState;
 18619              		.loc 1 169 0
 18620 0000 044B     		ldr	r3, .L8
 18621 0002 1860     		str	r0, [r3, #0]
 170:../Libraries/STM32F10x_StdPeriph_Driver/src/stm32f10x_cec.c **** 
 171:../Libraries/STM32F10x_StdPeriph_Driver/src/stm32f10x_cec.c ****   if(NewState == DISABLE)
 18622              		.loc 1 171 0
 18623 0004 20B9     		cbnz	r0, .L5
 18624              	.L7:
 172:../Libraries/STM32F10x_StdPeriph_Driver/src/stm32f10x_cec.c ****   {
 173:../Libraries/STM32F10x_StdPeriph_Driver/src/stm32f10x_cec.c ****     /* Wait until the PE bit is cleared by hardware (Idle Line detected) */
 174:../Libraries/STM32F10x_StdPeriph_Driver/src/stm32f10x_cec.c ****     while((CEC->CFGR & CEC_CFGR_PE) != (uint32_t)RESET)
 18625              		.loc 1 174 0 discriminator 1
 18626 0006 044B     		ldr	r3, .L8+4
 18627 0008 1B68     		ldr	r3, [r3, #0]
 18628 000a 13F0010F 		tst	r3, #1
 18629 000e FAD1     		bne	.L7
 18630              	.L5:
 18631 0010 7047     		bx	lr
 18632              	.L9:
 18633 0012 00BF     		.align	2
 18634              	.L8:
 18635 0014 00000F42 		.word	1108279296
 18636 0018 00780040 		.word	1073772544
 18637              		.cfi_endproc
 18638              	.LFE31:
 18640              		.section	.text.CEC_ITConfig,"ax",%progbits
 18641              		.align	1
 18642              		.global	CEC_ITConfig
 18643              		.thumb
 18644              		.thumb_func
 18646              	CEC_ITConfig:
 18647              	.LFB32:
 175:../Libraries/STM32F10x_StdPeriph_Driver/src/stm32f10x_cec.c ****     {
 176:../Libraries/STM32F10x_StdPeriph_Driver/src/stm32f10x_cec.c ****     }  
 177:../Libraries/STM32F10x_StdPeriph_Driver/src/stm32f10x_cec.c ****   }  
 178:../Libraries/STM32F10x_StdPeriph_Driver/src/stm32f10x_cec.c **** }
 179:../Libraries/STM32F10x_StdPeriph_Driver/src/stm32f10x_cec.c **** 
 180:../Libraries/STM32F10x_StdPeriph_Driver/src/stm32f10x_cec.c **** /**
 181:../Libraries/STM32F10x_StdPeriph_Driver/src/stm32f10x_cec.c ****   * @brief  Enables or disables the CEC interrupt.
 182:../Libraries/STM32F10x_StdPeriph_Driver/src/stm32f10x_cec.c ****   * @param  NewState: new state of the CEC interrupt.
 183:../Libraries/STM32F10x_StdPeriph_Driver/src/stm32f10x_cec.c ****   *   This parameter can be: ENABLE or DISABLE.
 184:../Libraries/STM32F10x_StdPeriph_Driver/src/stm32f10x_cec.c ****   * @retval None
 185:../Libraries/STM32F10x_StdPeriph_Driver/src/stm32f10x_cec.c ****   */
 186:../Libraries/STM32F10x_StdPeriph_Driver/src/stm32f10x_cec.c **** void CEC_ITConfig(FunctionalState NewState)
 187:../Libraries/STM32F10x_StdPeriph_Driver/src/stm32f10x_cec.c **** {
 18648              		.loc 1 187 0
 18649              		.cfi_startproc
 18650              		@ args = 0, pretend = 0, frame = 0
 18651              		@ frame_needed = 0, uses_anonymous_args = 0
 18652              		@ link register save eliminated.
 18653              	.LVL4:
 188:../Libraries/STM32F10x_StdPeriph_Driver/src/stm32f10x_cec.c ****   /* Check the parameters */
 189:../Libraries/STM32F10x_StdPeriph_Driver/src/stm32f10x_cec.c ****   assert_param(IS_FUNCTIONAL_STATE(NewState));
 190:../Libraries/STM32F10x_StdPeriph_Driver/src/stm32f10x_cec.c **** 
 191:../Libraries/STM32F10x_StdPeriph_Driver/src/stm32f10x_cec.c ****   *(__IO uint32_t *) CFGR_IE_BB = (uint32_t)NewState;
 18654              		.loc 1 191 0
 18655 0000 014B     		ldr	r3, .L11
 18656 0002 1860     		str	r0, [r3, #0]
 192:../Libraries/STM32F10x_StdPeriph_Driver/src/stm32f10x_cec.c **** }
 18657              		.loc 1 192 0
 18658 0004 7047     		bx	lr
 18659              	.L12:
 18660 0006 00BF     		.align	2
 18661              	.L11:
 18662 0008 04000F42 		.word	1108279300
 18663              		.cfi_endproc
 18664              	.LFE32:
 18666              		.section	.text.CEC_OwnAddressConfig,"ax",%progbits
 18667              		.align	1
 18668              		.global	CEC_OwnAddressConfig
 18669              		.thumb
 18670              		.thumb_func
 18672              	CEC_OwnAddressConfig:
 18673              	.LFB33:
 193:../Libraries/STM32F10x_StdPeriph_Driver/src/stm32f10x_cec.c **** 
 194:../Libraries/STM32F10x_StdPeriph_Driver/src/stm32f10x_cec.c **** /**
 195:../Libraries/STM32F10x_StdPeriph_Driver/src/stm32f10x_cec.c ****   * @brief  Defines the Own Address of the CEC device.
 196:../Libraries/STM32F10x_StdPeriph_Driver/src/stm32f10x_cec.c ****   * @param  CEC_OwnAddress: The CEC own address
 197:../Libraries/STM32F10x_StdPeriph_Driver/src/stm32f10x_cec.c ****   * @retval None
 198:../Libraries/STM32F10x_StdPeriph_Driver/src/stm32f10x_cec.c ****   */
 199:../Libraries/STM32F10x_StdPeriph_Driver/src/stm32f10x_cec.c **** void CEC_OwnAddressConfig(uint8_t CEC_OwnAddress)
 200:../Libraries/STM32F10x_StdPeriph_Driver/src/stm32f10x_cec.c **** {
 18674              		.loc 1 200 0
 18675              		.cfi_startproc
 18676              		@ args = 0, pretend = 0, frame = 0
 18677              		@ frame_needed = 0, uses_anonymous_args = 0
 18678              		@ link register save eliminated.
 18679              	.LVL5:
 201:../Libraries/STM32F10x_StdPeriph_Driver/src/stm32f10x_cec.c ****   /* Check the parameters */
 202:../Libraries/STM32F10x_StdPeriph_Driver/src/stm32f10x_cec.c ****   assert_param(IS_CEC_ADDRESS(CEC_OwnAddress));
 203:../Libraries/STM32F10x_StdPeriph_Driver/src/stm32f10x_cec.c **** 
 204:../Libraries/STM32F10x_StdPeriph_Driver/src/stm32f10x_cec.c ****   /* Set the CEC own address */
 205:../Libraries/STM32F10x_StdPeriph_Driver/src/stm32f10x_cec.c ****   CEC->OAR = CEC_OwnAddress;
 18680              		.loc 1 205 0
 18681 0000 014B     		ldr	r3, .L14
 18682 0002 5860     		str	r0, [r3, #4]
 206:../Libraries/STM32F10x_StdPeriph_Driver/src/stm32f10x_cec.c **** }
 18683              		.loc 1 206 0
 18684 0004 7047     		bx	lr
 18685              	.L15:
 18686 0006 00BF     		.align	2
 18687              	.L14:
 18688 0008 00780040 		.word	1073772544
 18689              		.cfi_endproc
 18690              	.LFE33:
 18692              		.section	.text.CEC_SetPrescaler,"ax",%progbits
 18693              		.align	1
 18694              		.global	CEC_SetPrescaler
 18695              		.thumb
 18696              		.thumb_func
 18698              	CEC_SetPrescaler:
 18699              	.LFB34:
 207:../Libraries/STM32F10x_StdPeriph_Driver/src/stm32f10x_cec.c **** 
 208:../Libraries/STM32F10x_StdPeriph_Driver/src/stm32f10x_cec.c **** /**
 209:../Libraries/STM32F10x_StdPeriph_Driver/src/stm32f10x_cec.c ****   * @brief  Sets the CEC prescaler value.
 210:../Libraries/STM32F10x_StdPeriph_Driver/src/stm32f10x_cec.c ****   * @param  CEC_Prescaler: CEC prescaler new value
 211:../Libraries/STM32F10x_StdPeriph_Driver/src/stm32f10x_cec.c ****   * @retval None
 212:../Libraries/STM32F10x_StdPeriph_Driver/src/stm32f10x_cec.c ****   */
 213:../Libraries/STM32F10x_StdPeriph_Driver/src/stm32f10x_cec.c **** void CEC_SetPrescaler(uint16_t CEC_Prescaler)
 214:../Libraries/STM32F10x_StdPeriph_Driver/src/stm32f10x_cec.c **** {
 18700              		.loc 1 214 0
 18701              		.cfi_startproc
 18702              		@ args = 0, pretend = 0, frame = 0
 18703              		@ frame_needed = 0, uses_anonymous_args = 0
 18704              		@ link register save eliminated.
 18705              	.LVL6:
 215:../Libraries/STM32F10x_StdPeriph_Driver/src/stm32f10x_cec.c ****   /* Check the parameters */
 216:../Libraries/STM32F10x_StdPeriph_Driver/src/stm32f10x_cec.c ****   assert_param(IS_CEC_PRESCALER(CEC_Prescaler));
 217:../Libraries/STM32F10x_StdPeriph_Driver/src/stm32f10x_cec.c **** 
 218:../Libraries/STM32F10x_StdPeriph_Driver/src/stm32f10x_cec.c ****   /* Set the  Prescaler value*/
 219:../Libraries/STM32F10x_StdPeriph_Driver/src/stm32f10x_cec.c ****   CEC->PRES = CEC_Prescaler;
 18706              		.loc 1 219 0
 18707 0000 014B     		ldr	r3, .L17
 18708 0002 9860     		str	r0, [r3, #8]
 220:../Libraries/STM32F10x_StdPeriph_Driver/src/stm32f10x_cec.c **** }
 18709              		.loc 1 220 0
 18710 0004 7047     		bx	lr
 18711              	.L18:
 18712 0006 00BF     		.align	2
 18713              	.L17:
 18714 0008 00780040 		.word	1073772544
 18715              		.cfi_endproc
 18716              	.LFE34:
 18718              		.section	.text.CEC_SendDataByte,"ax",%progbits
 18719              		.align	1
 18720              		.global	CEC_SendDataByte
 18721              		.thumb
 18722              		.thumb_func
 18724              	CEC_SendDataByte:
 18725              	.LFB35:
 221:../Libraries/STM32F10x_StdPeriph_Driver/src/stm32f10x_cec.c **** 
 222:../Libraries/STM32F10x_StdPeriph_Driver/src/stm32f10x_cec.c **** /**
 223:../Libraries/STM32F10x_StdPeriph_Driver/src/stm32f10x_cec.c ****   * @brief  Transmits single data through the CEC peripheral.
 224:../Libraries/STM32F10x_StdPeriph_Driver/src/stm32f10x_cec.c ****   * @param  Data: the data to transmit.
 225:../Libraries/STM32F10x_StdPeriph_Driver/src/stm32f10x_cec.c ****   * @retval None
 226:../Libraries/STM32F10x_StdPeriph_Driver/src/stm32f10x_cec.c ****   */
 227:../Libraries/STM32F10x_StdPeriph_Driver/src/stm32f10x_cec.c **** void CEC_SendDataByte(uint8_t Data)
 228:../Libraries/STM32F10x_StdPeriph_Driver/src/stm32f10x_cec.c **** {  
 18726              		.loc 1 228 0
 18727              		.cfi_startproc
 18728              		@ args = 0, pretend = 0, frame = 0
 18729              		@ frame_needed = 0, uses_anonymous_args = 0
 18730              		@ link register save eliminated.
 18731              	.LVL7:
 229:../Libraries/STM32F10x_StdPeriph_Driver/src/stm32f10x_cec.c ****   /* Transmit Data */
 230:../Libraries/STM32F10x_StdPeriph_Driver/src/stm32f10x_cec.c ****   CEC->TXD = Data ;
 18732              		.loc 1 230 0
 18733 0000 014B     		ldr	r3, .L20
 18734 0002 5861     		str	r0, [r3, #20]
 231:../Libraries/STM32F10x_StdPeriph_Driver/src/stm32f10x_cec.c **** }
 18735              		.loc 1 231 0
 18736 0004 7047     		bx	lr
 18737              	.L21:
 18738 0006 00BF     		.align	2
 18739              	.L20:
 18740 0008 00780040 		.word	1073772544
 18741              		.cfi_endproc
 18742              	.LFE35:
 18744              		.section	.text.CEC_ReceiveDataByte,"ax",%progbits
 18745              		.align	1
 18746              		.global	CEC_ReceiveDataByte
 18747              		.thumb
 18748              		.thumb_func
 18750              	CEC_ReceiveDataByte:
 18751              	.LFB36:
 232:../Libraries/STM32F10x_StdPeriph_Driver/src/stm32f10x_cec.c **** 
 233:../Libraries/STM32F10x_StdPeriph_Driver/src/stm32f10x_cec.c **** 
 234:../Libraries/STM32F10x_StdPeriph_Driver/src/stm32f10x_cec.c **** /**
 235:../Libraries/STM32F10x_StdPeriph_Driver/src/stm32f10x_cec.c ****   * @brief  Returns the most recent received data by the CEC peripheral.
 236:../Libraries/STM32F10x_StdPeriph_Driver/src/stm32f10x_cec.c ****   * @param  None
 237:../Libraries/STM32F10x_StdPeriph_Driver/src/stm32f10x_cec.c ****   * @retval The received data.
 238:../Libraries/STM32F10x_StdPeriph_Driver/src/stm32f10x_cec.c ****   */
 239:../Libraries/STM32F10x_StdPeriph_Driver/src/stm32f10x_cec.c **** uint8_t CEC_ReceiveDataByte(void)
 240:../Libraries/STM32F10x_StdPeriph_Driver/src/stm32f10x_cec.c **** {
 18752              		.loc 1 240 0
 18753              		.cfi_startproc
 18754              		@ args = 0, pretend = 0, frame = 0
 18755              		@ frame_needed = 0, uses_anonymous_args = 0
 18756              		@ link register save eliminated.
 241:../Libraries/STM32F10x_StdPeriph_Driver/src/stm32f10x_cec.c ****   /* Receive Data */
 242:../Libraries/STM32F10x_StdPeriph_Driver/src/stm32f10x_cec.c ****   return (uint8_t)(CEC->RXD);
 18757              		.loc 1 242 0
 18758 0000 014B     		ldr	r3, .L23
 18759 0002 9869     		ldr	r0, [r3, #24]
 243:../Libraries/STM32F10x_StdPeriph_Driver/src/stm32f10x_cec.c **** }
 18760              		.loc 1 243 0
 18761 0004 C0B2     		uxtb	r0, r0
 18762 0006 7047     		bx	lr
 18763              	.L24:
 18764              		.align	2
 18765              	.L23:
 18766 0008 00780040 		.word	1073772544
 18767              		.cfi_endproc
 18768              	.LFE36:
 18770              		.section	.text.CEC_StartOfMessage,"ax",%progbits
 18771              		.align	1
 18772              		.global	CEC_StartOfMessage
 18773              		.thumb
 18774              		.thumb_func
 18776              	CEC_StartOfMessage:
 18777              	.LFB37:
 244:../Libraries/STM32F10x_StdPeriph_Driver/src/stm32f10x_cec.c **** 
 245:../Libraries/STM32F10x_StdPeriph_Driver/src/stm32f10x_cec.c **** /**
 246:../Libraries/STM32F10x_StdPeriph_Driver/src/stm32f10x_cec.c ****   * @brief  Starts a new message.
 247:../Libraries/STM32F10x_StdPeriph_Driver/src/stm32f10x_cec.c ****   * @param  None
 248:../Libraries/STM32F10x_StdPeriph_Driver/src/stm32f10x_cec.c ****   * @retval None
 249:../Libraries/STM32F10x_StdPeriph_Driver/src/stm32f10x_cec.c ****   */
 250:../Libraries/STM32F10x_StdPeriph_Driver/src/stm32f10x_cec.c **** void CEC_StartOfMessage(void)
 251:../Libraries/STM32F10x_StdPeriph_Driver/src/stm32f10x_cec.c **** {  
 18778              		.loc 1 251 0
 18779              		.cfi_startproc
 18780              		@ args = 0, pretend = 0, frame = 0
 18781              		@ frame_needed = 0, uses_anonymous_args = 0
 18782              		@ link register save eliminated.
 252:../Libraries/STM32F10x_StdPeriph_Driver/src/stm32f10x_cec.c ****   /* Starts of new message */
 253:../Libraries/STM32F10x_StdPeriph_Driver/src/stm32f10x_cec.c ****   *(__IO uint32_t *) CSR_TSOM_BB = (uint32_t)0x1;
 18783              		.loc 1 253 0
 18784 0000 014B     		ldr	r3, .L26
 18785 0002 0122     		movs	r2, #1
 18786 0004 1A60     		str	r2, [r3, #0]
 254:../Libraries/STM32F10x_StdPeriph_Driver/src/stm32f10x_cec.c **** }
 18787              		.loc 1 254 0
 18788 0006 7047     		bx	lr
 18789              	.L27:
 18790              		.align	2
 18791              	.L26:
 18792 0008 00020F42 		.word	1108279808
 18793              		.cfi_endproc
 18794              	.LFE37:
 18796              		.section	.text.CEC_EndOfMessageCmd,"ax",%progbits
 18797              		.align	1
 18798              		.global	CEC_EndOfMessageCmd
 18799              		.thumb
 18800              		.thumb_func
 18802              	CEC_EndOfMessageCmd:
 18803              	.LFB38:
 255:../Libraries/STM32F10x_StdPeriph_Driver/src/stm32f10x_cec.c **** 
 256:../Libraries/STM32F10x_StdPeriph_Driver/src/stm32f10x_cec.c **** /**
 257:../Libraries/STM32F10x_StdPeriph_Driver/src/stm32f10x_cec.c ****   * @brief  Transmits message with or without an EOM bit.
 258:../Libraries/STM32F10x_StdPeriph_Driver/src/stm32f10x_cec.c ****   * @param  NewState: new state of the CEC Tx End Of Message. 
 259:../Libraries/STM32F10x_StdPeriph_Driver/src/stm32f10x_cec.c ****   *     This parameter can be: ENABLE or DISABLE.
 260:../Libraries/STM32F10x_StdPeriph_Driver/src/stm32f10x_cec.c ****   * @retval None
 261:../Libraries/STM32F10x_StdPeriph_Driver/src/stm32f10x_cec.c ****   */
 262:../Libraries/STM32F10x_StdPeriph_Driver/src/stm32f10x_cec.c **** void CEC_EndOfMessageCmd(FunctionalState NewState)
 263:../Libraries/STM32F10x_StdPeriph_Driver/src/stm32f10x_cec.c **** {   
 18804              		.loc 1 263 0
 18805              		.cfi_startproc
 18806              		@ args = 0, pretend = 0, frame = 0
 18807              		@ frame_needed = 0, uses_anonymous_args = 0
 18808              		@ link register save eliminated.
 18809              	.LVL8:
 264:../Libraries/STM32F10x_StdPeriph_Driver/src/stm32f10x_cec.c ****   /* Check the parameters */
 265:../Libraries/STM32F10x_StdPeriph_Driver/src/stm32f10x_cec.c ****   assert_param(IS_FUNCTIONAL_STATE(NewState));
 266:../Libraries/STM32F10x_StdPeriph_Driver/src/stm32f10x_cec.c ****   
 267:../Libraries/STM32F10x_StdPeriph_Driver/src/stm32f10x_cec.c ****   /* The data byte will be transmitted with or without an EOM bit*/
 268:../Libraries/STM32F10x_StdPeriph_Driver/src/stm32f10x_cec.c ****   *(__IO uint32_t *) CSR_TEOM_BB = (uint32_t)NewState;
 18810              		.loc 1 268 0
 18811 0000 014B     		ldr	r3, .L29
 18812 0002 1860     		str	r0, [r3, #0]
 269:../Libraries/STM32F10x_StdPeriph_Driver/src/stm32f10x_cec.c **** }
 18813              		.loc 1 269 0
 18814 0004 7047     		bx	lr
 18815              	.L30:
 18816 0006 00BF     		.align	2
 18817              	.L29:
 18818 0008 04020F42 		.word	1108279812
 18819              		.cfi_endproc
 18820              	.LFE38:
 18822              		.section	.text.CEC_GetFlagStatus,"ax",%progbits
 18823              		.align	1
 18824              		.global	CEC_GetFlagStatus
 18825              		.thumb
 18826              		.thumb_func
 18828              	CEC_GetFlagStatus:
 18829              	.LFB39:
 270:../Libraries/STM32F10x_StdPeriph_Driver/src/stm32f10x_cec.c **** 
 271:../Libraries/STM32F10x_StdPeriph_Driver/src/stm32f10x_cec.c **** /**
 272:../Libraries/STM32F10x_StdPeriph_Driver/src/stm32f10x_cec.c ****   * @brief  Gets the CEC flag status
 273:../Libraries/STM32F10x_StdPeriph_Driver/src/stm32f10x_cec.c ****   * @param  CEC_FLAG: specifies the CEC flag to check. 
 274:../Libraries/STM32F10x_StdPeriph_Driver/src/stm32f10x_cec.c ****   *   This parameter can be one of the following values:
 275:../Libraries/STM32F10x_StdPeriph_Driver/src/stm32f10x_cec.c ****   *     @arg CEC_FLAG_BTE: Bit Timing Error
 276:../Libraries/STM32F10x_StdPeriph_Driver/src/stm32f10x_cec.c ****   *     @arg CEC_FLAG_BPE: Bit Period Error
 277:../Libraries/STM32F10x_StdPeriph_Driver/src/stm32f10x_cec.c ****   *     @arg CEC_FLAG_RBTFE: Rx Block Transfer Finished Error
 278:../Libraries/STM32F10x_StdPeriph_Driver/src/stm32f10x_cec.c ****   *     @arg CEC_FLAG_SBE: Start Bit Error
 279:../Libraries/STM32F10x_StdPeriph_Driver/src/stm32f10x_cec.c ****   *     @arg CEC_FLAG_ACKE: Block Acknowledge Error
 280:../Libraries/STM32F10x_StdPeriph_Driver/src/stm32f10x_cec.c ****   *     @arg CEC_FLAG_LINE: Line Error
 281:../Libraries/STM32F10x_StdPeriph_Driver/src/stm32f10x_cec.c ****   *     @arg CEC_FLAG_TBTFE: Tx Block Transfer Finished Error
 282:../Libraries/STM32F10x_StdPeriph_Driver/src/stm32f10x_cec.c ****   *     @arg CEC_FLAG_TEOM: Tx End Of Message 
 283:../Libraries/STM32F10x_StdPeriph_Driver/src/stm32f10x_cec.c ****   *     @arg CEC_FLAG_TERR: Tx Error
 284:../Libraries/STM32F10x_StdPeriph_Driver/src/stm32f10x_cec.c ****   *     @arg CEC_FLAG_TBTRF: Tx Byte Transfer Request or Block Transfer Finished
 285:../Libraries/STM32F10x_StdPeriph_Driver/src/stm32f10x_cec.c ****   *     @arg CEC_FLAG_RSOM: Rx Start Of Message
 286:../Libraries/STM32F10x_StdPeriph_Driver/src/stm32f10x_cec.c ****   *     @arg CEC_FLAG_REOM: Rx End Of Message
 287:../Libraries/STM32F10x_StdPeriph_Driver/src/stm32f10x_cec.c ****   *     @arg CEC_FLAG_RERR: Rx Error
 288:../Libraries/STM32F10x_StdPeriph_Driver/src/stm32f10x_cec.c ****   *     @arg CEC_FLAG_RBTF: Rx Byte/Block Transfer Finished
 289:../Libraries/STM32F10x_StdPeriph_Driver/src/stm32f10x_cec.c ****   * @retval The new state of CEC_FLAG (SET or RESET)
 290:../Libraries/STM32F10x_StdPeriph_Driver/src/stm32f10x_cec.c ****   */
 291:../Libraries/STM32F10x_StdPeriph_Driver/src/stm32f10x_cec.c **** FlagStatus CEC_GetFlagStatus(uint32_t CEC_FLAG) 
 292:../Libraries/STM32F10x_StdPeriph_Driver/src/stm32f10x_cec.c **** {
 18830              		.loc 1 292 0
 18831              		.cfi_startproc
 18832              		@ args = 0, pretend = 0, frame = 0
 18833              		@ frame_needed = 0, uses_anonymous_args = 0
 18834              		@ link register save eliminated.
 18835              	.LVL9:
 293:../Libraries/STM32F10x_StdPeriph_Driver/src/stm32f10x_cec.c ****   FlagStatus bitstatus = RESET;
 294:../Libraries/STM32F10x_StdPeriph_Driver/src/stm32f10x_cec.c ****   uint32_t cecreg = 0, cecbase = 0;
 295:../Libraries/STM32F10x_StdPeriph_Driver/src/stm32f10x_cec.c ****   
 296:../Libraries/STM32F10x_StdPeriph_Driver/src/stm32f10x_cec.c ****   /* Check the parameters */
 297:../Libraries/STM32F10x_StdPeriph_Driver/src/stm32f10x_cec.c ****   assert_param(IS_CEC_GET_FLAG(CEC_FLAG));
 298:../Libraries/STM32F10x_StdPeriph_Driver/src/stm32f10x_cec.c ****  
 299:../Libraries/STM32F10x_StdPeriph_Driver/src/stm32f10x_cec.c ****   /* Get the CEC peripheral base address */
 300:../Libraries/STM32F10x_StdPeriph_Driver/src/stm32f10x_cec.c ****   cecbase = (uint32_t)(CEC_BASE);
 301:../Libraries/STM32F10x_StdPeriph_Driver/src/stm32f10x_cec.c ****   
 302:../Libraries/STM32F10x_StdPeriph_Driver/src/stm32f10x_cec.c ****   /* Read flag register index */
 303:../Libraries/STM32F10x_StdPeriph_Driver/src/stm32f10x_cec.c ****   cecreg = CEC_FLAG >> 28;
 304:../Libraries/STM32F10x_StdPeriph_Driver/src/stm32f10x_cec.c ****   
 305:../Libraries/STM32F10x_StdPeriph_Driver/src/stm32f10x_cec.c ****   /* Get bit[23:0] of the flag */
 306:../Libraries/STM32F10x_StdPeriph_Driver/src/stm32f10x_cec.c ****   CEC_FLAG &= FLAG_Mask;
 18836              		.loc 1 306 0
 18837 0000 20F07F43 		bic	r3, r0, #-16777216
 18838              	.LVL10:
 307:../Libraries/STM32F10x_StdPeriph_Driver/src/stm32f10x_cec.c ****   
 308:../Libraries/STM32F10x_StdPeriph_Driver/src/stm32f10x_cec.c ****   if(cecreg != 0)
 18839              		.loc 1 308 0
 18840 0004 000F     		lsrs	r0, r0, #28
 18841              	.LVL11:
 18842 0006 02D0     		beq	.L33
 309:../Libraries/STM32F10x_StdPeriph_Driver/src/stm32f10x_cec.c ****   {
 310:../Libraries/STM32F10x_StdPeriph_Driver/src/stm32f10x_cec.c ****     /* Flag in CEC ESR Register */
 311:../Libraries/STM32F10x_StdPeriph_Driver/src/stm32f10x_cec.c ****     CEC_FLAG = (uint32_t)(CEC_FLAG >> 16);
 18843              		.loc 1 311 0
 18844 0008 1B0C     		lsrs	r3, r3, #16
 18845              	.LVL12:
 312:../Libraries/STM32F10x_StdPeriph_Driver/src/stm32f10x_cec.c ****     
 313:../Libraries/STM32F10x_StdPeriph_Driver/src/stm32f10x_cec.c ****     /* Get the CEC ESR register address */
 314:../Libraries/STM32F10x_StdPeriph_Driver/src/stm32f10x_cec.c ****     cecbase += 0xC;
 18846              		.loc 1 314 0
 18847 000a 044A     		ldr	r2, .L34
 18848 000c 00E0     		b	.L32
 18849              	.LVL13:
 18850              	.L33:
 315:../Libraries/STM32F10x_StdPeriph_Driver/src/stm32f10x_cec.c ****   }
 316:../Libraries/STM32F10x_StdPeriph_Driver/src/stm32f10x_cec.c ****   else
 317:../Libraries/STM32F10x_StdPeriph_Driver/src/stm32f10x_cec.c ****   {
 318:../Libraries/STM32F10x_StdPeriph_Driver/src/stm32f10x_cec.c ****     /* Get the CEC CSR register address */
 319:../Libraries/STM32F10x_StdPeriph_Driver/src/stm32f10x_cec.c ****     cecbase += 0x10;
 18851              		.loc 1 319 0
 18852 000e 044A     		ldr	r2, .L34+4
 18853              	.LVL14:
 18854              	.L32:
 320:../Libraries/STM32F10x_StdPeriph_Driver/src/stm32f10x_cec.c ****   }
 321:../Libraries/STM32F10x_StdPeriph_Driver/src/stm32f10x_cec.c ****   
 322:../Libraries/STM32F10x_StdPeriph_Driver/src/stm32f10x_cec.c ****   if(((*(__IO uint32_t *)cecbase) & CEC_FLAG) != (uint32_t)RESET)
 18855              		.loc 1 322 0
 18856 0010 1268     		ldr	r2, [r2, #0]
 18857              	.LVL15:
 323:../Libraries/STM32F10x_StdPeriph_Driver/src/stm32f10x_cec.c ****   {
 324:../Libraries/STM32F10x_StdPeriph_Driver/src/stm32f10x_cec.c ****     /* CEC_FLAG is set */
 325:../Libraries/STM32F10x_StdPeriph_Driver/src/stm32f10x_cec.c ****     bitstatus = SET;
 18858              		.loc 1 325 0
 18859 0012 1A42     		tst	r2, r3
 326:../Libraries/STM32F10x_StdPeriph_Driver/src/stm32f10x_cec.c ****   }
 327:../Libraries/STM32F10x_StdPeriph_Driver/src/stm32f10x_cec.c ****   else
 328:../Libraries/STM32F10x_StdPeriph_Driver/src/stm32f10x_cec.c ****   {
 329:../Libraries/STM32F10x_StdPeriph_Driver/src/stm32f10x_cec.c ****     /* CEC_FLAG is reset */
 330:../Libraries/STM32F10x_StdPeriph_Driver/src/stm32f10x_cec.c ****     bitstatus = RESET;
 331:../Libraries/STM32F10x_StdPeriph_Driver/src/stm32f10x_cec.c ****   }
 332:../Libraries/STM32F10x_StdPeriph_Driver/src/stm32f10x_cec.c ****   
 333:../Libraries/STM32F10x_StdPeriph_Driver/src/stm32f10x_cec.c ****   /* Return the CEC_FLAG status */
 334:../Libraries/STM32F10x_StdPeriph_Driver/src/stm32f10x_cec.c ****   return  bitstatus;
 335:../Libraries/STM32F10x_StdPeriph_Driver/src/stm32f10x_cec.c **** }
 18860              		.loc 1 335 0
 18861 0014 0CBF     		ite	eq
 18862 0016 0020     		moveq	r0, #0
 18863 0018 0120     		movne	r0, #1
 18864 001a 7047     		bx	lr
 18865              	.L35:
 18866              		.align	2
 18867              	.L34:
 18868 001c 0C780040 		.word	1073772556
 18869 0020 10780040 		.word	1073772560
 18870              		.cfi_endproc
 18871              	.LFE39:
 18873              		.section	.text.CEC_ClearFlag,"ax",%progbits
 18874              		.align	1
 18875              		.global	CEC_ClearFlag
 18876              		.thumb
 18877              		.thumb_func
 18879              	CEC_ClearFlag:
 18880              	.LFB40:
 336:../Libraries/STM32F10x_StdPeriph_Driver/src/stm32f10x_cec.c **** 
 337:../Libraries/STM32F10x_StdPeriph_Driver/src/stm32f10x_cec.c **** /**
 338:../Libraries/STM32F10x_StdPeriph_Driver/src/stm32f10x_cec.c ****   * @brief  Clears the CEC's pending flags.
 339:../Libraries/STM32F10x_StdPeriph_Driver/src/stm32f10x_cec.c ****   * @param  CEC_FLAG: specifies the flag to clear. 
 340:../Libraries/STM32F10x_StdPeriph_Driver/src/stm32f10x_cec.c ****   *   This parameter can be any combination of the following values:
 341:../Libraries/STM32F10x_StdPeriph_Driver/src/stm32f10x_cec.c ****   *     @arg CEC_FLAG_TERR: Tx Error
 342:../Libraries/STM32F10x_StdPeriph_Driver/src/stm32f10x_cec.c ****   *     @arg CEC_FLAG_TBTRF: Tx Byte Transfer Request or Block Transfer Finished
 343:../Libraries/STM32F10x_StdPeriph_Driver/src/stm32f10x_cec.c ****   *     @arg CEC_FLAG_RSOM: Rx Start Of Message
 344:../Libraries/STM32F10x_StdPeriph_Driver/src/stm32f10x_cec.c ****   *     @arg CEC_FLAG_REOM: Rx End Of Message
 345:../Libraries/STM32F10x_StdPeriph_Driver/src/stm32f10x_cec.c ****   *     @arg CEC_FLAG_RERR: Rx Error
 346:../Libraries/STM32F10x_StdPeriph_Driver/src/stm32f10x_cec.c ****   *     @arg CEC_FLAG_RBTF: Rx Byte/Block Transfer Finished
 347:../Libraries/STM32F10x_StdPeriph_Driver/src/stm32f10x_cec.c ****   * @retval None
 348:../Libraries/STM32F10x_StdPeriph_Driver/src/stm32f10x_cec.c ****   */
 349:../Libraries/STM32F10x_StdPeriph_Driver/src/stm32f10x_cec.c **** void CEC_ClearFlag(uint32_t CEC_FLAG)
 350:../Libraries/STM32F10x_StdPeriph_Driver/src/stm32f10x_cec.c **** { 
 18881              		.loc 1 350 0
 18882              		.cfi_startproc
 18883              		@ args = 0, pretend = 0, frame = 0
 18884              		@ frame_needed = 0, uses_anonymous_args = 0
 18885              		@ link register save eliminated.
 18886              	.LVL16:
 351:../Libraries/STM32F10x_StdPeriph_Driver/src/stm32f10x_cec.c ****   uint32_t tmp = 0x0;
 352:../Libraries/STM32F10x_StdPeriph_Driver/src/stm32f10x_cec.c ****   
 353:../Libraries/STM32F10x_StdPeriph_Driver/src/stm32f10x_cec.c ****   /* Check the parameters */
 354:../Libraries/STM32F10x_StdPeriph_Driver/src/stm32f10x_cec.c ****   assert_param(IS_CEC_CLEAR_FLAG(CEC_FLAG));
 355:../Libraries/STM32F10x_StdPeriph_Driver/src/stm32f10x_cec.c **** 
 356:../Libraries/STM32F10x_StdPeriph_Driver/src/stm32f10x_cec.c ****   tmp = CEC->CSR & 0x2;
 18887              		.loc 1 356 0
 18888 0000 064B     		ldr	r3, .L37
 357:../Libraries/STM32F10x_StdPeriph_Driver/src/stm32f10x_cec.c ****        
 358:../Libraries/STM32F10x_StdPeriph_Driver/src/stm32f10x_cec.c ****   /* Clear the selected CEC flags */
 359:../Libraries/STM32F10x_StdPeriph_Driver/src/stm32f10x_cec.c ****   CEC->CSR &= (uint32_t)(((~(uint32_t)CEC_FLAG) & 0xFFFFFFFC) | tmp);
 18889              		.loc 1 359 0
 18890 0002 C043     		mvns	r0, r0
 18891              	.LVL17:
 356:../Libraries/STM32F10x_StdPeriph_Driver/src/stm32f10x_cec.c ****   tmp = CEC->CSR & 0x2;
 18892              		.loc 1 356 0
 18893 0004 1969     		ldr	r1, [r3, #16]
 18894              	.LVL18:
 18895              		.loc 1 359 0
 18896 0006 20F00300 		bic	r0, r0, #3
 18897              	.LVL19:
 18898 000a 1A69     		ldr	r2, [r3, #16]
 356:../Libraries/STM32F10x_StdPeriph_Driver/src/stm32f10x_cec.c ****   tmp = CEC->CSR & 0x2;
 18899              		.loc 1 356 0
 18900 000c 01F00201 		and	r1, r1, #2
 18901              	.LVL20:
 18902              		.loc 1 359 0
 18903 0010 40EA0101 		orr	r1, r0, r1
 18904              	.LVL21:
 18905 0014 01EA0202 		and	r2, r1, r2
 18906 0018 1A61     		str	r2, [r3, #16]
 360:../Libraries/STM32F10x_StdPeriph_Driver/src/stm32f10x_cec.c **** }
 18907              		.loc 1 360 0
 18908 001a 7047     		bx	lr
 18909              	.L38:
 18910              		.align	2
 18911              	.L37:
 18912 001c 00780040 		.word	1073772544
 18913              		.cfi_endproc
 18914              	.LFE40:
 18916              		.section	.text.CEC_GetITStatus,"ax",%progbits
 18917              		.align	1
 18918              		.global	CEC_GetITStatus
 18919              		.thumb
 18920              		.thumb_func
 18922              	CEC_GetITStatus:
 18923              	.LFB41:
 361:../Libraries/STM32F10x_StdPeriph_Driver/src/stm32f10x_cec.c **** 
 362:../Libraries/STM32F10x_StdPeriph_Driver/src/stm32f10x_cec.c **** /**
 363:../Libraries/STM32F10x_StdPeriph_Driver/src/stm32f10x_cec.c ****   * @brief  Checks whether the specified CEC interrupt has occurred or not.
 364:../Libraries/STM32F10x_StdPeriph_Driver/src/stm32f10x_cec.c ****   * @param  CEC_IT: specifies the CEC interrupt source to check. 
 365:../Libraries/STM32F10x_StdPeriph_Driver/src/stm32f10x_cec.c ****   *   This parameter can be one of the following values:
 366:../Libraries/STM32F10x_StdPeriph_Driver/src/stm32f10x_cec.c ****   *     @arg CEC_IT_TERR: Tx Error
 367:../Libraries/STM32F10x_StdPeriph_Driver/src/stm32f10x_cec.c ****   *     @arg CEC_IT_TBTF: Tx Block Transfer Finished
 368:../Libraries/STM32F10x_StdPeriph_Driver/src/stm32f10x_cec.c ****   *     @arg CEC_IT_RERR: Rx Error
 369:../Libraries/STM32F10x_StdPeriph_Driver/src/stm32f10x_cec.c ****   *     @arg CEC_IT_RBTF: Rx Block Transfer Finished
 370:../Libraries/STM32F10x_StdPeriph_Driver/src/stm32f10x_cec.c ****   * @retval The new state of CEC_IT (SET or RESET).
 371:../Libraries/STM32F10x_StdPeriph_Driver/src/stm32f10x_cec.c ****   */
 372:../Libraries/STM32F10x_StdPeriph_Driver/src/stm32f10x_cec.c **** ITStatus CEC_GetITStatus(uint8_t CEC_IT)
 373:../Libraries/STM32F10x_StdPeriph_Driver/src/stm32f10x_cec.c **** {
 18924              		.loc 1 373 0
 18925              		.cfi_startproc
 18926              		@ args = 0, pretend = 0, frame = 0
 18927              		@ frame_needed = 0, uses_anonymous_args = 0
 18928              		@ link register save eliminated.
 18929              	.LVL22:
 374:../Libraries/STM32F10x_StdPeriph_Driver/src/stm32f10x_cec.c ****   ITStatus bitstatus = RESET;
 375:../Libraries/STM32F10x_StdPeriph_Driver/src/stm32f10x_cec.c ****   uint32_t enablestatus = 0;
 376:../Libraries/STM32F10x_StdPeriph_Driver/src/stm32f10x_cec.c ****   
 377:../Libraries/STM32F10x_StdPeriph_Driver/src/stm32f10x_cec.c ****   /* Check the parameters */
 378:../Libraries/STM32F10x_StdPeriph_Driver/src/stm32f10x_cec.c ****    assert_param(IS_CEC_GET_IT(CEC_IT));
 379:../Libraries/STM32F10x_StdPeriph_Driver/src/stm32f10x_cec.c ****    
 380:../Libraries/STM32F10x_StdPeriph_Driver/src/stm32f10x_cec.c ****   /* Get the CEC IT enable bit status */
 381:../Libraries/STM32F10x_StdPeriph_Driver/src/stm32f10x_cec.c ****   enablestatus = (CEC->CFGR & (uint8_t)CEC_CFGR_IE) ;
 18930              		.loc 1 381 0
 18931 0000 034A     		ldr	r2, .L42
 18932 0002 1168     		ldr	r1, [r2, #0]
 18933              	.LVL23:
 382:../Libraries/STM32F10x_StdPeriph_Driver/src/stm32f10x_cec.c ****   
 383:../Libraries/STM32F10x_StdPeriph_Driver/src/stm32f10x_cec.c ****   /* Check the status of the specified CEC interrupt */
 384:../Libraries/STM32F10x_StdPeriph_Driver/src/stm32f10x_cec.c ****   if (((CEC->CSR & CEC_IT) != (uint32_t)RESET) && enablestatus)
 18934              		.loc 1 384 0
 18935 0004 1369     		ldr	r3, [r2, #16]
 18936 0006 1840     		ands	r0, r0, r3
 18937              	.LVL24:
 385:../Libraries/STM32F10x_StdPeriph_Driver/src/stm32f10x_cec.c ****   {
 386:../Libraries/STM32F10x_StdPeriph_Driver/src/stm32f10x_cec.c ****     /* CEC_IT is set */
 387:../Libraries/STM32F10x_StdPeriph_Driver/src/stm32f10x_cec.c ****     bitstatus = SET;
 18938              		.loc 1 387 0
 18939 0008 18BF     		it	ne
 18940 000a C1F34000 		ubfxne	r0, r1, #1, #1
 18941              	.LVL25:
 388:../Libraries/STM32F10x_StdPeriph_Driver/src/stm32f10x_cec.c ****   }
 389:../Libraries/STM32F10x_StdPeriph_Driver/src/stm32f10x_cec.c ****   else
 390:../Libraries/STM32F10x_StdPeriph_Driver/src/stm32f10x_cec.c ****   {
 391:../Libraries/STM32F10x_StdPeriph_Driver/src/stm32f10x_cec.c ****     /* CEC_IT is reset */
 392:../Libraries/STM32F10x_StdPeriph_Driver/src/stm32f10x_cec.c ****     bitstatus = RESET;
 393:../Libraries/STM32F10x_StdPeriph_Driver/src/stm32f10x_cec.c ****   }
 394:../Libraries/STM32F10x_StdPeriph_Driver/src/stm32f10x_cec.c ****   /* Return the CEC_IT status */
 395:../Libraries/STM32F10x_StdPeriph_Driver/src/stm32f10x_cec.c ****   return  bitstatus;
 396:../Libraries/STM32F10x_StdPeriph_Driver/src/stm32f10x_cec.c **** }
 18942              		.loc 1 396 0
 18943 000e 7047     		bx	lr
 18944              	.L43:
 18945              		.align	2
 18946              	.L42:
 18947 0010 00780040 		.word	1073772544
 18948              		.cfi_endproc
 18949              	.LFE41:
 18951              		.section	.text.CEC_ClearITPendingBit,"ax",%progbits
 18952              		.align	1
 18953              		.global	CEC_ClearITPendingBit
 18954              		.thumb
 18955              		.thumb_func
 18957              	CEC_ClearITPendingBit:
 18958              	.LFB42:
 397:../Libraries/STM32F10x_StdPeriph_Driver/src/stm32f10x_cec.c **** 
 398:../Libraries/STM32F10x_StdPeriph_Driver/src/stm32f10x_cec.c **** /**
 399:../Libraries/STM32F10x_StdPeriph_Driver/src/stm32f10x_cec.c ****   * @brief  Clears the CEC's interrupt pending bits.
 400:../Libraries/STM32F10x_StdPeriph_Driver/src/stm32f10x_cec.c ****   * @param  CEC_IT: specifies the CEC interrupt pending bit to clear.
 401:../Libraries/STM32F10x_StdPeriph_Driver/src/stm32f10x_cec.c ****   *   This parameter can be any combination of the following values:
 402:../Libraries/STM32F10x_StdPeriph_Driver/src/stm32f10x_cec.c ****   *     @arg CEC_IT_TERR: Tx Error
 403:../Libraries/STM32F10x_StdPeriph_Driver/src/stm32f10x_cec.c ****   *     @arg CEC_IT_TBTF: Tx Block Transfer Finished
 404:../Libraries/STM32F10x_StdPeriph_Driver/src/stm32f10x_cec.c ****   *     @arg CEC_IT_RERR: Rx Error
 405:../Libraries/STM32F10x_StdPeriph_Driver/src/stm32f10x_cec.c ****   *     @arg CEC_IT_RBTF: Rx Block Transfer Finished
 406:../Libraries/STM32F10x_StdPeriph_Driver/src/stm32f10x_cec.c ****   * @retval None
 407:../Libraries/STM32F10x_StdPeriph_Driver/src/stm32f10x_cec.c ****   */
 408:../Libraries/STM32F10x_StdPeriph_Driver/src/stm32f10x_cec.c **** void CEC_ClearITPendingBit(uint16_t CEC_IT)
 409:../Libraries/STM32F10x_StdPeriph_Driver/src/stm32f10x_cec.c **** {
 18959              		.loc 1 409 0
 18960              		.cfi_startproc
 18961              		@ args = 0, pretend = 0, frame = 0
 18962              		@ frame_needed = 0, uses_anonymous_args = 0
 18963              		@ link register save eliminated.
 18964              	.LVL26:
 410:../Libraries/STM32F10x_StdPeriph_Driver/src/stm32f10x_cec.c ****   uint32_t tmp = 0x0;
 411:../Libraries/STM32F10x_StdPeriph_Driver/src/stm32f10x_cec.c ****   
 412:../Libraries/STM32F10x_StdPeriph_Driver/src/stm32f10x_cec.c ****   /* Check the parameters */
 413:../Libraries/STM32F10x_StdPeriph_Driver/src/stm32f10x_cec.c ****   assert_param(IS_CEC_GET_IT(CEC_IT));
 414:../Libraries/STM32F10x_StdPeriph_Driver/src/stm32f10x_cec.c ****   
 415:../Libraries/STM32F10x_StdPeriph_Driver/src/stm32f10x_cec.c ****   tmp = CEC->CSR & 0x2;
 18965              		.loc 1 415 0
 18966 0000 064B     		ldr	r3, .L45
 416:../Libraries/STM32F10x_StdPeriph_Driver/src/stm32f10x_cec.c ****   
 417:../Libraries/STM32F10x_StdPeriph_Driver/src/stm32f10x_cec.c ****   /* Clear the selected CEC interrupt pending bits */
 418:../Libraries/STM32F10x_StdPeriph_Driver/src/stm32f10x_cec.c ****   CEC->CSR &= (uint32_t)(((~(uint32_t)CEC_IT) & 0xFFFFFFFC) | tmp);
 18967              		.loc 1 418 0
 18968 0002 C043     		mvns	r0, r0
 18969              	.LVL27:
 415:../Libraries/STM32F10x_StdPeriph_Driver/src/stm32f10x_cec.c ****   tmp = CEC->CSR & 0x2;
 18970              		.loc 1 415 0
 18971 0004 1969     		ldr	r1, [r3, #16]
 18972              	.LVL28:
 18973              		.loc 1 418 0
 18974 0006 20F00300 		bic	r0, r0, #3
 18975 000a 1A69     		ldr	r2, [r3, #16]
 415:../Libraries/STM32F10x_StdPeriph_Driver/src/stm32f10x_cec.c ****   tmp = CEC->CSR & 0x2;
 18976              		.loc 1 415 0
 18977 000c 01F00201 		and	r1, r1, #2
 18978              	.LVL29:
 18979              		.loc 1 418 0
 18980 0010 40EA0101 		orr	r1, r0, r1
 18981              	.LVL30:
 18982 0014 01EA0202 		and	r2, r1, r2
 18983 0018 1A61     		str	r2, [r3, #16]
 419:../Libraries/STM32F10x_StdPeriph_Driver/src/stm32f10x_cec.c **** }
 18984              		.loc 1 419 0
 18985 001a 7047     		bx	lr
 18986              	.L46:
 18987              		.align	2
 18988              	.L45:
 18989 001c 00780040 		.word	1073772544
 18990              		.cfi_endproc
 18991              	.LFE42:
 18993              		.text
 18994              	.Letext0: