   1              		.syntax unified
   2              		.cpu cortex-m3
   3              		.fpu softvfp
   4              		.eabi_attribute 20, 1
   5              		.eabi_attribute 21, 1
   6              		.eabi_attribute 23, 3
   7              		.eabi_attribute 24, 1
   8              		.eabi_attribute 25, 1
   9              		.eabi_attribute 26, 1
  10              		.eabi_attribute 30, 4
  11              		.eabi_attribute 18, 4
  12              		.thumb
  13              		.file	"stm32f10x_adc.c"
  23              	.Ltext0:
  24              		.file 1 "../Libraries/STM32F10x_StdPeriph_Driver/src/stm32f10x_adc.c"
 18926              		.align	1
 18927              		.global	ADC_DeInit
 18928              		.thumb
 18929              		.thumb_func
 18931              	ADC_DeInit:
 18932              	.LFB29:
   1:../Libraries/STM32F10x_StdPeriph_Driver/src/stm32f10x_adc.c **** /**
   2:../Libraries/STM32F10x_StdPeriph_Driver/src/stm32f10x_adc.c ****   ******************************************************************************
   3:../Libraries/STM32F10x_StdPeriph_Driver/src/stm32f10x_adc.c ****   * @file    stm32f10x_adc.c
   4:../Libraries/STM32F10x_StdPeriph_Driver/src/stm32f10x_adc.c ****   * @author  MCD Application Team
   5:../Libraries/STM32F10x_StdPeriph_Driver/src/stm32f10x_adc.c ****   * @version V3.5.0
   6:../Libraries/STM32F10x_StdPeriph_Driver/src/stm32f10x_adc.c ****   * @date    11-March-2011
   7:../Libraries/STM32F10x_StdPeriph_Driver/src/stm32f10x_adc.c ****   * @brief   This file provides all the ADC firmware functions.
   8:../Libraries/STM32F10x_StdPeriph_Driver/src/stm32f10x_adc.c ****   ******************************************************************************
   9:../Libraries/STM32F10x_StdPeriph_Driver/src/stm32f10x_adc.c ****   * @attention
  10:../Libraries/STM32F10x_StdPeriph_Driver/src/stm32f10x_adc.c ****   *
  11:../Libraries/STM32F10x_StdPeriph_Driver/src/stm32f10x_adc.c ****   * THE PRESENT FIRMWARE WHICH IS FOR GUIDANCE ONLY AIMS AT PROVIDING CUSTOMERS
  12:../Libraries/STM32F10x_StdPeriph_Driver/src/stm32f10x_adc.c ****   * WITH CODING INFORMATION REGARDING THEIR PRODUCTS IN ORDER FOR THEM TO SAVE
  13:../Libraries/STM32F10x_StdPeriph_Driver/src/stm32f10x_adc.c ****   * TIME. AS A RESULT, STMICROELECTRONICS SHALL NOT BE HELD LIABLE FOR ANY
  14:../Libraries/STM32F10x_StdPeriph_Driver/src/stm32f10x_adc.c ****   * DIRECT, INDIRECT OR CONSEQUENTIAL DAMAGES WITH RESPECT TO ANY CLAIMS ARISING
  15:../Libraries/STM32F10x_StdPeriph_Driver/src/stm32f10x_adc.c ****   * FROM THE CONTENT OF SUCH FIRMWARE AND/OR THE USE MADE BY CUSTOMERS OF THE
  16:../Libraries/STM32F10x_StdPeriph_Driver/src/stm32f10x_adc.c ****   * CODING INFORMATION CONTAINED HEREIN IN CONNECTION WITH THEIR PRODUCTS.
  17:../Libraries/STM32F10x_StdPeriph_Driver/src/stm32f10x_adc.c ****   *
  18:../Libraries/STM32F10x_StdPeriph_Driver/src/stm32f10x_adc.c ****   * <h2><center>&copy; COPYRIGHT 2011 STMicroelectronics</center></h2>
  19:../Libraries/STM32F10x_StdPeriph_Driver/src/stm32f10x_adc.c ****   ******************************************************************************
  20:../Libraries/STM32F10x_StdPeriph_Driver/src/stm32f10x_adc.c ****   */
  21:../Libraries/STM32F10x_StdPeriph_Driver/src/stm32f10x_adc.c **** 
  22:../Libraries/STM32F10x_StdPeriph_Driver/src/stm32f10x_adc.c **** /* Includes ------------------------------------------------------------------*/
  23:../Libraries/STM32F10x_StdPeriph_Driver/src/stm32f10x_adc.c **** #include "stm32f10x_adc.h"
  24:../Libraries/STM32F10x_StdPeriph_Driver/src/stm32f10x_adc.c **** #include "stm32f10x_rcc.h"
  25:../Libraries/STM32F10x_StdPeriph_Driver/src/stm32f10x_adc.c **** 
  26:../Libraries/STM32F10x_StdPeriph_Driver/src/stm32f10x_adc.c **** /** @addtogroup STM32F10x_StdPeriph_Driver
  27:../Libraries/STM32F10x_StdPeriph_Driver/src/stm32f10x_adc.c ****   * @{
  28:../Libraries/STM32F10x_StdPeriph_Driver/src/stm32f10x_adc.c ****   */
  29:../Libraries/STM32F10x_StdPeriph_Driver/src/stm32f10x_adc.c **** 
  30:../Libraries/STM32F10x_StdPeriph_Driver/src/stm32f10x_adc.c **** /** @defgroup ADC 
  31:../Libraries/STM32F10x_StdPeriph_Driver/src/stm32f10x_adc.c ****   * @brief ADC driver modules
  32:../Libraries/STM32F10x_StdPeriph_Driver/src/stm32f10x_adc.c ****   * @{
  33:../Libraries/STM32F10x_StdPeriph_Driver/src/stm32f10x_adc.c ****   */
  34:../Libraries/STM32F10x_StdPeriph_Driver/src/stm32f10x_adc.c **** 
  35:../Libraries/STM32F10x_StdPeriph_Driver/src/stm32f10x_adc.c **** /** @defgroup ADC_Private_TypesDefinitions
  36:../Libraries/STM32F10x_StdPeriph_Driver/src/stm32f10x_adc.c ****   * @{
  37:../Libraries/STM32F10x_StdPeriph_Driver/src/stm32f10x_adc.c ****   */
  38:../Libraries/STM32F10x_StdPeriph_Driver/src/stm32f10x_adc.c **** 
  39:../Libraries/STM32F10x_StdPeriph_Driver/src/stm32f10x_adc.c **** /**
  40:../Libraries/STM32F10x_StdPeriph_Driver/src/stm32f10x_adc.c ****   * @}
  41:../Libraries/STM32F10x_StdPeriph_Driver/src/stm32f10x_adc.c ****   */
  42:../Libraries/STM32F10x_StdPeriph_Driver/src/stm32f10x_adc.c **** 
  43:../Libraries/STM32F10x_StdPeriph_Driver/src/stm32f10x_adc.c **** /** @defgroup ADC_Private_Defines
  44:../Libraries/STM32F10x_StdPeriph_Driver/src/stm32f10x_adc.c ****   * @{
  45:../Libraries/STM32F10x_StdPeriph_Driver/src/stm32f10x_adc.c ****   */
  46:../Libraries/STM32F10x_StdPeriph_Driver/src/stm32f10x_adc.c **** 
  47:../Libraries/STM32F10x_StdPeriph_Driver/src/stm32f10x_adc.c **** /* ADC DISCNUM mask */
  48:../Libraries/STM32F10x_StdPeriph_Driver/src/stm32f10x_adc.c **** #define CR1_DISCNUM_Reset           ((uint32_t)0xFFFF1FFF)
  49:../Libraries/STM32F10x_StdPeriph_Driver/src/stm32f10x_adc.c **** 
  50:../Libraries/STM32F10x_StdPeriph_Driver/src/stm32f10x_adc.c **** /* ADC DISCEN mask */
  51:../Libraries/STM32F10x_StdPeriph_Driver/src/stm32f10x_adc.c **** #define CR1_DISCEN_Set              ((uint32_t)0x00000800)
  52:../Libraries/STM32F10x_StdPeriph_Driver/src/stm32f10x_adc.c **** #define CR1_DISCEN_Reset            ((uint32_t)0xFFFFF7FF)
  53:../Libraries/STM32F10x_StdPeriph_Driver/src/stm32f10x_adc.c **** 
  54:../Libraries/STM32F10x_StdPeriph_Driver/src/stm32f10x_adc.c **** /* ADC JAUTO mask */
  55:../Libraries/STM32F10x_StdPeriph_Driver/src/stm32f10x_adc.c **** #define CR1_JAUTO_Set               ((uint32_t)0x00000400)
  56:../Libraries/STM32F10x_StdPeriph_Driver/src/stm32f10x_adc.c **** #define CR1_JAUTO_Reset             ((uint32_t)0xFFFFFBFF)
  57:../Libraries/STM32F10x_StdPeriph_Driver/src/stm32f10x_adc.c **** 
  58:../Libraries/STM32F10x_StdPeriph_Driver/src/stm32f10x_adc.c **** /* ADC JDISCEN mask */
  59:../Libraries/STM32F10x_StdPeriph_Driver/src/stm32f10x_adc.c **** #define CR1_JDISCEN_Set             ((uint32_t)0x00001000)
  60:../Libraries/STM32F10x_StdPeriph_Driver/src/stm32f10x_adc.c **** #define CR1_JDISCEN_Reset           ((uint32_t)0xFFFFEFFF)
  61:../Libraries/STM32F10x_StdPeriph_Driver/src/stm32f10x_adc.c **** 
  62:../Libraries/STM32F10x_StdPeriph_Driver/src/stm32f10x_adc.c **** /* ADC AWDCH mask */
  63:../Libraries/STM32F10x_StdPeriph_Driver/src/stm32f10x_adc.c **** #define CR1_AWDCH_Reset             ((uint32_t)0xFFFFFFE0)
  64:../Libraries/STM32F10x_StdPeriph_Driver/src/stm32f10x_adc.c **** 
  65:../Libraries/STM32F10x_StdPeriph_Driver/src/stm32f10x_adc.c **** /* ADC Analog watchdog enable mode mask */
  66:../Libraries/STM32F10x_StdPeriph_Driver/src/stm32f10x_adc.c **** #define CR1_AWDMode_Reset           ((uint32_t)0xFF3FFDFF)
  67:../Libraries/STM32F10x_StdPeriph_Driver/src/stm32f10x_adc.c **** 
  68:../Libraries/STM32F10x_StdPeriph_Driver/src/stm32f10x_adc.c **** /* CR1 register Mask */
  69:../Libraries/STM32F10x_StdPeriph_Driver/src/stm32f10x_adc.c **** #define CR1_CLEAR_Mask              ((uint32_t)0xFFF0FEFF)
  70:../Libraries/STM32F10x_StdPeriph_Driver/src/stm32f10x_adc.c **** 
  71:../Libraries/STM32F10x_StdPeriph_Driver/src/stm32f10x_adc.c **** /* ADC ADON mask */
  72:../Libraries/STM32F10x_StdPeriph_Driver/src/stm32f10x_adc.c **** #define CR2_ADON_Set                ((uint32_t)0x00000001)
  73:../Libraries/STM32F10x_StdPeriph_Driver/src/stm32f10x_adc.c **** #define CR2_ADON_Reset              ((uint32_t)0xFFFFFFFE)
  74:../Libraries/STM32F10x_StdPeriph_Driver/src/stm32f10x_adc.c **** 
  75:../Libraries/STM32F10x_StdPeriph_Driver/src/stm32f10x_adc.c **** /* ADC DMA mask */
  76:../Libraries/STM32F10x_StdPeriph_Driver/src/stm32f10x_adc.c **** #define CR2_DMA_Set                 ((uint32_t)0x00000100)
  77:../Libraries/STM32F10x_StdPeriph_Driver/src/stm32f10x_adc.c **** #define CR2_DMA_Reset               ((uint32_t)0xFFFFFEFF)
  78:../Libraries/STM32F10x_StdPeriph_Driver/src/stm32f10x_adc.c **** 
  79:../Libraries/STM32F10x_StdPeriph_Driver/src/stm32f10x_adc.c **** /* ADC RSTCAL mask */
  80:../Libraries/STM32F10x_StdPeriph_Driver/src/stm32f10x_adc.c **** #define CR2_RSTCAL_Set              ((uint32_t)0x00000008)
  81:../Libraries/STM32F10x_StdPeriph_Driver/src/stm32f10x_adc.c **** 
  82:../Libraries/STM32F10x_StdPeriph_Driver/src/stm32f10x_adc.c **** /* ADC CAL mask */
  83:../Libraries/STM32F10x_StdPeriph_Driver/src/stm32f10x_adc.c **** #define CR2_CAL_Set                 ((uint32_t)0x00000004)
  84:../Libraries/STM32F10x_StdPeriph_Driver/src/stm32f10x_adc.c **** 
  85:../Libraries/STM32F10x_StdPeriph_Driver/src/stm32f10x_adc.c **** /* ADC SWSTART mask */
  86:../Libraries/STM32F10x_StdPeriph_Driver/src/stm32f10x_adc.c **** #define CR2_SWSTART_Set             ((uint32_t)0x00400000)
  87:../Libraries/STM32F10x_StdPeriph_Driver/src/stm32f10x_adc.c **** 
  88:../Libraries/STM32F10x_StdPeriph_Driver/src/stm32f10x_adc.c **** /* ADC EXTTRIG mask */
  89:../Libraries/STM32F10x_StdPeriph_Driver/src/stm32f10x_adc.c **** #define CR2_EXTTRIG_Set             ((uint32_t)0x00100000)
  90:../Libraries/STM32F10x_StdPeriph_Driver/src/stm32f10x_adc.c **** #define CR2_EXTTRIG_Reset           ((uint32_t)0xFFEFFFFF)
  91:../Libraries/STM32F10x_StdPeriph_Driver/src/stm32f10x_adc.c **** 
  92:../Libraries/STM32F10x_StdPeriph_Driver/src/stm32f10x_adc.c **** /* ADC Software start mask */
  93:../Libraries/STM32F10x_StdPeriph_Driver/src/stm32f10x_adc.c **** #define CR2_EXTTRIG_SWSTART_Set     ((uint32_t)0x00500000)
  94:../Libraries/STM32F10x_StdPeriph_Driver/src/stm32f10x_adc.c **** #define CR2_EXTTRIG_SWSTART_Reset   ((uint32_t)0xFFAFFFFF)
  95:../Libraries/STM32F10x_StdPeriph_Driver/src/stm32f10x_adc.c **** 
  96:../Libraries/STM32F10x_StdPeriph_Driver/src/stm32f10x_adc.c **** /* ADC JEXTSEL mask */
  97:../Libraries/STM32F10x_StdPeriph_Driver/src/stm32f10x_adc.c **** #define CR2_JEXTSEL_Reset           ((uint32_t)0xFFFF8FFF)
  98:../Libraries/STM32F10x_StdPeriph_Driver/src/stm32f10x_adc.c **** 
  99:../Libraries/STM32F10x_StdPeriph_Driver/src/stm32f10x_adc.c **** /* ADC JEXTTRIG mask */
 100:../Libraries/STM32F10x_StdPeriph_Driver/src/stm32f10x_adc.c **** #define CR2_JEXTTRIG_Set            ((uint32_t)0x00008000)
 101:../Libraries/STM32F10x_StdPeriph_Driver/src/stm32f10x_adc.c **** #define CR2_JEXTTRIG_Reset          ((uint32_t)0xFFFF7FFF)
 102:../Libraries/STM32F10x_StdPeriph_Driver/src/stm32f10x_adc.c **** 
 103:../Libraries/STM32F10x_StdPeriph_Driver/src/stm32f10x_adc.c **** /* ADC JSWSTART mask */
 104:../Libraries/STM32F10x_StdPeriph_Driver/src/stm32f10x_adc.c **** #define CR2_JSWSTART_Set            ((uint32_t)0x00200000)
 105:../Libraries/STM32F10x_StdPeriph_Driver/src/stm32f10x_adc.c **** 
 106:../Libraries/STM32F10x_StdPeriph_Driver/src/stm32f10x_adc.c **** /* ADC injected software start mask */
 107:../Libraries/STM32F10x_StdPeriph_Driver/src/stm32f10x_adc.c **** #define CR2_JEXTTRIG_JSWSTART_Set   ((uint32_t)0x00208000)
 108:../Libraries/STM32F10x_StdPeriph_Driver/src/stm32f10x_adc.c **** #define CR2_JEXTTRIG_JSWSTART_Reset ((uint32_t)0xFFDF7FFF)
 109:../Libraries/STM32F10x_StdPeriph_Driver/src/stm32f10x_adc.c **** 
 110:../Libraries/STM32F10x_StdPeriph_Driver/src/stm32f10x_adc.c **** /* ADC TSPD mask */
 111:../Libraries/STM32F10x_StdPeriph_Driver/src/stm32f10x_adc.c **** #define CR2_TSVREFE_Set             ((uint32_t)0x00800000)
 112:../Libraries/STM32F10x_StdPeriph_Driver/src/stm32f10x_adc.c **** #define CR2_TSVREFE_Reset           ((uint32_t)0xFF7FFFFF)
 113:../Libraries/STM32F10x_StdPeriph_Driver/src/stm32f10x_adc.c **** 
 114:../Libraries/STM32F10x_StdPeriph_Driver/src/stm32f10x_adc.c **** /* CR2 register Mask */
 115:../Libraries/STM32F10x_StdPeriph_Driver/src/stm32f10x_adc.c **** #define CR2_CLEAR_Mask              ((uint32_t)0xFFF1F7FD)
 116:../Libraries/STM32F10x_StdPeriph_Driver/src/stm32f10x_adc.c **** 
 117:../Libraries/STM32F10x_StdPeriph_Driver/src/stm32f10x_adc.c **** /* ADC SQx mask */
 118:../Libraries/STM32F10x_StdPeriph_Driver/src/stm32f10x_adc.c **** #define SQR3_SQ_Set                 ((uint32_t)0x0000001F)
 119:../Libraries/STM32F10x_StdPeriph_Driver/src/stm32f10x_adc.c **** #define SQR2_SQ_Set                 ((uint32_t)0x0000001F)
 120:../Libraries/STM32F10x_StdPeriph_Driver/src/stm32f10x_adc.c **** #define SQR1_SQ_Set                 ((uint32_t)0x0000001F)
 121:../Libraries/STM32F10x_StdPeriph_Driver/src/stm32f10x_adc.c **** 
 122:../Libraries/STM32F10x_StdPeriph_Driver/src/stm32f10x_adc.c **** /* SQR1 register Mask */
 123:../Libraries/STM32F10x_StdPeriph_Driver/src/stm32f10x_adc.c **** #define SQR1_CLEAR_Mask             ((uint32_t)0xFF0FFFFF)
 124:../Libraries/STM32F10x_StdPeriph_Driver/src/stm32f10x_adc.c **** 
 125:../Libraries/STM32F10x_StdPeriph_Driver/src/stm32f10x_adc.c **** /* ADC JSQx mask */
 126:../Libraries/STM32F10x_StdPeriph_Driver/src/stm32f10x_adc.c **** #define JSQR_JSQ_Set                ((uint32_t)0x0000001F)
 127:../Libraries/STM32F10x_StdPeriph_Driver/src/stm32f10x_adc.c **** 
 128:../Libraries/STM32F10x_StdPeriph_Driver/src/stm32f10x_adc.c **** /* ADC JL mask */
 129:../Libraries/STM32F10x_StdPeriph_Driver/src/stm32f10x_adc.c **** #define JSQR_JL_Set                 ((uint32_t)0x00300000)
 130:../Libraries/STM32F10x_StdPeriph_Driver/src/stm32f10x_adc.c **** #define JSQR_JL_Reset               ((uint32_t)0xFFCFFFFF)
 131:../Libraries/STM32F10x_StdPeriph_Driver/src/stm32f10x_adc.c **** 
 132:../Libraries/STM32F10x_StdPeriph_Driver/src/stm32f10x_adc.c **** /* ADC SMPx mask */
 133:../Libraries/STM32F10x_StdPeriph_Driver/src/stm32f10x_adc.c **** #define SMPR1_SMP_Set               ((uint32_t)0x00000007)
 134:../Libraries/STM32F10x_StdPeriph_Driver/src/stm32f10x_adc.c **** #define SMPR2_SMP_Set               ((uint32_t)0x00000007)
 135:../Libraries/STM32F10x_StdPeriph_Driver/src/stm32f10x_adc.c **** 
 136:../Libraries/STM32F10x_StdPeriph_Driver/src/stm32f10x_adc.c **** /* ADC JDRx registers offset */
 137:../Libraries/STM32F10x_StdPeriph_Driver/src/stm32f10x_adc.c **** #define JDR_Offset                  ((uint8_t)0x28)
 138:../Libraries/STM32F10x_StdPeriph_Driver/src/stm32f10x_adc.c **** 
 139:../Libraries/STM32F10x_StdPeriph_Driver/src/stm32f10x_adc.c **** /* ADC1 DR register base address */
 140:../Libraries/STM32F10x_StdPeriph_Driver/src/stm32f10x_adc.c **** #define DR_ADDRESS                  ((uint32_t)0x4001244C)
 141:../Libraries/STM32F10x_StdPeriph_Driver/src/stm32f10x_adc.c **** 
 142:../Libraries/STM32F10x_StdPeriph_Driver/src/stm32f10x_adc.c **** /**
 143:../Libraries/STM32F10x_StdPeriph_Driver/src/stm32f10x_adc.c ****   * @}
 144:../Libraries/STM32F10x_StdPeriph_Driver/src/stm32f10x_adc.c ****   */
 145:../Libraries/STM32F10x_StdPeriph_Driver/src/stm32f10x_adc.c **** 
 146:../Libraries/STM32F10x_StdPeriph_Driver/src/stm32f10x_adc.c **** /** @defgroup ADC_Private_Macros
 147:../Libraries/STM32F10x_StdPeriph_Driver/src/stm32f10x_adc.c ****   * @{
 148:../Libraries/STM32F10x_StdPeriph_Driver/src/stm32f10x_adc.c ****   */
 149:../Libraries/STM32F10x_StdPeriph_Driver/src/stm32f10x_adc.c **** 
 150:../Libraries/STM32F10x_StdPeriph_Driver/src/stm32f10x_adc.c **** /**
 151:../Libraries/STM32F10x_StdPeriph_Driver/src/stm32f10x_adc.c ****   * @}
 152:../Libraries/STM32F10x_StdPeriph_Driver/src/stm32f10x_adc.c ****   */
 153:../Libraries/STM32F10x_StdPeriph_Driver/src/stm32f10x_adc.c **** 
 154:../Libraries/STM32F10x_StdPeriph_Driver/src/stm32f10x_adc.c **** /** @defgroup ADC_Private_Variables
 155:../Libraries/STM32F10x_StdPeriph_Driver/src/stm32f10x_adc.c ****   * @{
 156:../Libraries/STM32F10x_StdPeriph_Driver/src/stm32f10x_adc.c ****   */
 157:../Libraries/STM32F10x_StdPeriph_Driver/src/stm32f10x_adc.c **** 
 158:../Libraries/STM32F10x_StdPeriph_Driver/src/stm32f10x_adc.c **** /**
 159:../Libraries/STM32F10x_StdPeriph_Driver/src/stm32f10x_adc.c ****   * @}
 160:../Libraries/STM32F10x_StdPeriph_Driver/src/stm32f10x_adc.c ****   */
 161:../Libraries/STM32F10x_StdPeriph_Driver/src/stm32f10x_adc.c **** 
 162:../Libraries/STM32F10x_StdPeriph_Driver/src/stm32f10x_adc.c **** /** @defgroup ADC_Private_FunctionPrototypes
 163:../Libraries/STM32F10x_StdPeriph_Driver/src/stm32f10x_adc.c ****   * @{
 164:../Libraries/STM32F10x_StdPeriph_Driver/src/stm32f10x_adc.c ****   */
 165:../Libraries/STM32F10x_StdPeriph_Driver/src/stm32f10x_adc.c **** 
 166:../Libraries/STM32F10x_StdPeriph_Driver/src/stm32f10x_adc.c **** /**
 167:../Libraries/STM32F10x_StdPeriph_Driver/src/stm32f10x_adc.c ****   * @}
 168:../Libraries/STM32F10x_StdPeriph_Driver/src/stm32f10x_adc.c ****   */
 169:../Libraries/STM32F10x_StdPeriph_Driver/src/stm32f10x_adc.c **** 
 170:../Libraries/STM32F10x_StdPeriph_Driver/src/stm32f10x_adc.c **** /** @defgroup ADC_Private_Functions
 171:../Libraries/STM32F10x_StdPeriph_Driver/src/stm32f10x_adc.c ****   * @{
 172:../Libraries/STM32F10x_StdPeriph_Driver/src/stm32f10x_adc.c ****   */
 173:../Libraries/STM32F10x_StdPeriph_Driver/src/stm32f10x_adc.c **** 
 174:../Libraries/STM32F10x_StdPeriph_Driver/src/stm32f10x_adc.c **** /**
 175:../Libraries/STM32F10x_StdPeriph_Driver/src/stm32f10x_adc.c ****   * @brief  Deinitializes the ADCx peripheral registers to their default reset values.
 176:../Libraries/STM32F10x_StdPeriph_Driver/src/stm32f10x_adc.c ****   * @param  ADCx: where x can be 1, 2 or 3 to select the ADC peripheral.
 177:../Libraries/STM32F10x_StdPeriph_Driver/src/stm32f10x_adc.c ****   * @retval None
 178:../Libraries/STM32F10x_StdPeriph_Driver/src/stm32f10x_adc.c ****   */
 179:../Libraries/STM32F10x_StdPeriph_Driver/src/stm32f10x_adc.c **** void ADC_DeInit(ADC_TypeDef* ADCx)
 180:../Libraries/STM32F10x_StdPeriph_Driver/src/stm32f10x_adc.c **** {
 18933              		.loc 1 180 0
 18934              		.cfi_startproc
 18935              		@ args = 0, pretend = 0, frame = 0
 18936              		@ frame_needed = 0, uses_anonymous_args = 0
 18937              	.LVL0:
 181:../Libraries/STM32F10x_StdPeriph_Driver/src/stm32f10x_adc.c ****   /* Check the parameters */
 182:../Libraries/STM32F10x_StdPeriph_Driver/src/stm32f10x_adc.c ****   assert_param(IS_ADC_ALL_PERIPH(ADCx));
 183:../Libraries/STM32F10x_StdPeriph_Driver/src/stm32f10x_adc.c ****   
 184:../Libraries/STM32F10x_StdPeriph_Driver/src/stm32f10x_adc.c ****   if (ADCx == ADC1)
 18938              		.loc 1 184 0
 18939 0000 134B     		ldr	r3, .L6
 180:../Libraries/STM32F10x_StdPeriph_Driver/src/stm32f10x_adc.c **** {
 18940              		.loc 1 180 0
 18941 0002 10B5     		push	{r4, lr}
 18942              	.LCFI0:
 18943              		.cfi_def_cfa_offset 8
 18944              		.loc 1 184 0
 18945 0004 9842     		cmp	r0, r3
 18946 0006 07D1     		bne	.L2
 18947              		.cfi_offset 14, -4
 18948              		.cfi_offset 4, -8
 185:../Libraries/STM32F10x_StdPeriph_Driver/src/stm32f10x_adc.c ****   {
 186:../Libraries/STM32F10x_StdPeriph_Driver/src/stm32f10x_adc.c ****     /* Enable ADC1 reset state */
 187:../Libraries/STM32F10x_StdPeriph_Driver/src/stm32f10x_adc.c ****     RCC_APB2PeriphResetCmd(RCC_APB2Periph_ADC1, ENABLE);
 18949              		.loc 1 187 0
 18950 0008 4FF40070 		mov	r0, #512
 18951              	.LVL1:
 18952 000c 0121     		movs	r1, #1
 18953 000e FFF7FEFF 		bl	RCC_APB2PeriphResetCmd
 188:../Libraries/STM32F10x_StdPeriph_Driver/src/stm32f10x_adc.c ****     /* Release ADC1 from reset state */
 189:../Libraries/STM32F10x_StdPeriph_Driver/src/stm32f10x_adc.c ****     RCC_APB2PeriphResetCmd(RCC_APB2Periph_ADC1, DISABLE);
 18954              		.loc 1 189 0
 18955 0012 4FF40070 		mov	r0, #512
 18956 0016 14E0     		b	.L5
 18957              	.LVL2:
 18958              	.L2:
 190:../Libraries/STM32F10x_StdPeriph_Driver/src/stm32f10x_adc.c ****   }
 191:../Libraries/STM32F10x_StdPeriph_Driver/src/stm32f10x_adc.c ****   else if (ADCx == ADC2)
 18959              		.loc 1 191 0
 18960 0018 0E4B     		ldr	r3, .L6+4
 18961 001a 9842     		cmp	r0, r3
 18962 001c 07D1     		bne	.L3
 192:../Libraries/STM32F10x_StdPeriph_Driver/src/stm32f10x_adc.c ****   {
 193:../Libraries/STM32F10x_StdPeriph_Driver/src/stm32f10x_adc.c ****     /* Enable ADC2 reset state */
 194:../Libraries/STM32F10x_StdPeriph_Driver/src/stm32f10x_adc.c ****     RCC_APB2PeriphResetCmd(RCC_APB2Periph_ADC2, ENABLE);
 18963              		.loc 1 194 0
 18964 001e 4FF48060 		mov	r0, #1024
 18965              	.LVL3:
 18966 0022 0121     		movs	r1, #1
 18967 0024 FFF7FEFF 		bl	RCC_APB2PeriphResetCmd
 195:../Libraries/STM32F10x_StdPeriph_Driver/src/stm32f10x_adc.c ****     /* Release ADC2 from reset state */
 196:../Libraries/STM32F10x_StdPeriph_Driver/src/stm32f10x_adc.c ****     RCC_APB2PeriphResetCmd(RCC_APB2Periph_ADC2, DISABLE);
 18968              		.loc 1 196 0
 18969 0028 4FF48060 		mov	r0, #1024
 18970 002c 09E0     		b	.L5
 18971              	.LVL4:
 18972              	.L3:
 197:../Libraries/STM32F10x_StdPeriph_Driver/src/stm32f10x_adc.c ****   }
 198:../Libraries/STM32F10x_StdPeriph_Driver/src/stm32f10x_adc.c ****   else
 199:../Libraries/STM32F10x_StdPeriph_Driver/src/stm32f10x_adc.c ****   {
 200:../Libraries/STM32F10x_StdPeriph_Driver/src/stm32f10x_adc.c ****     if (ADCx == ADC3)
 18973              		.loc 1 200 0
 18974 002e 0A4B     		ldr	r3, .L6+8
 18975 0030 9842     		cmp	r0, r3
 18976 0032 0BD1     		bne	.L1
 201:../Libraries/STM32F10x_StdPeriph_Driver/src/stm32f10x_adc.c ****     {
 202:../Libraries/STM32F10x_StdPeriph_Driver/src/stm32f10x_adc.c ****       /* Enable ADC3 reset state */
 203:../Libraries/STM32F10x_StdPeriph_Driver/src/stm32f10x_adc.c ****       RCC_APB2PeriphResetCmd(RCC_APB2Periph_ADC3, ENABLE);
 18977              		.loc 1 203 0
 18978 0034 4FF40040 		mov	r0, #32768
 18979              	.LVL5:
 18980 0038 0121     		movs	r1, #1
 18981 003a FFF7FEFF 		bl	RCC_APB2PeriphResetCmd
 204:../Libraries/STM32F10x_StdPeriph_Driver/src/stm32f10x_adc.c ****       /* Release ADC3 from reset state */
 205:../Libraries/STM32F10x_StdPeriph_Driver/src/stm32f10x_adc.c ****       RCC_APB2PeriphResetCmd(RCC_APB2Periph_ADC3, DISABLE);
 18982              		.loc 1 205 0
 18983 003e 4FF40040 		mov	r0, #32768
 18984              	.L5:
 18985 0042 0021     		movs	r1, #0
 206:../Libraries/STM32F10x_StdPeriph_Driver/src/stm32f10x_adc.c ****     }
 207:../Libraries/STM32F10x_StdPeriph_Driver/src/stm32f10x_adc.c ****   }
 208:../Libraries/STM32F10x_StdPeriph_Driver/src/stm32f10x_adc.c **** }
 18986              		.loc 1 208 0
 18987 0044 BDE81040 		pop	{r4, lr}
 205:../Libraries/STM32F10x_StdPeriph_Driver/src/stm32f10x_adc.c ****       RCC_APB2PeriphResetCmd(RCC_APB2Periph_ADC3, DISABLE);
 18988              		.loc 1 205 0
 18989 0048 FFF7FEBF 		b	RCC_APB2PeriphResetCmd
 18990              	.LVL6:
 18991              	.L1:
 18992 004c 10BD     		pop	{r4, pc}
 18993              	.L7:
 18994 004e 00BF     		.align	2
 18995              	.L6:
 18996 0050 00240140 		.word	1073816576
 18997 0054 00280140 		.word	1073817600
 18998 0058 003C0140 		.word	1073822720
 18999              		.cfi_endproc
 19000              	.LFE29:
 19002              		.section	.text.ADC_Init,"ax",%progbits
 19003              		.align	1
 19004              		.global	ADC_Init
 19005              		.thumb
 19006              		.thumb_func
 19008              	ADC_Init:
 19009              	.LFB30:
 209:../Libraries/STM32F10x_StdPeriph_Driver/src/stm32f10x_adc.c **** 
 210:../Libraries/STM32F10x_StdPeriph_Driver/src/stm32f10x_adc.c **** /**
 211:../Libraries/STM32F10x_StdPeriph_Driver/src/stm32f10x_adc.c ****   * @brief  Initializes the ADCx peripheral according to the specified parameters
 212:../Libraries/STM32F10x_StdPeriph_Driver/src/stm32f10x_adc.c ****   *         in the ADC_InitStruct.
 213:../Libraries/STM32F10x_StdPeriph_Driver/src/stm32f10x_adc.c ****   * @param  ADCx: where x can be 1, 2 or 3 to select the ADC peripheral.
 214:../Libraries/STM32F10x_StdPeriph_Driver/src/stm32f10x_adc.c ****   * @param  ADC_InitStruct: pointer to an ADC_InitTypeDef structure that contains
 215:../Libraries/STM32F10x_StdPeriph_Driver/src/stm32f10x_adc.c ****   *         the configuration information for the specified ADC peripheral.
 216:../Libraries/STM32F10x_StdPeriph_Driver/src/stm32f10x_adc.c ****   * @retval None
 217:../Libraries/STM32F10x_StdPeriph_Driver/src/stm32f10x_adc.c ****   */
 218:../Libraries/STM32F10x_StdPeriph_Driver/src/stm32f10x_adc.c **** void ADC_Init(ADC_TypeDef* ADCx, ADC_InitTypeDef* ADC_InitStruct)
 219:../Libraries/STM32F10x_StdPeriph_Driver/src/stm32f10x_adc.c **** {
 19010              		.loc 1 219 0
 19011              		.cfi_startproc
 19012              		@ args = 0, pretend = 0, frame = 0
 19013              		@ frame_needed = 0, uses_anonymous_args = 0
 19014              	.LVL7:
 220:../Libraries/STM32F10x_StdPeriph_Driver/src/stm32f10x_adc.c ****   uint32_t tmpreg1 = 0;
 221:../Libraries/STM32F10x_StdPeriph_Driver/src/stm32f10x_adc.c ****   uint8_t tmpreg2 = 0;
 222:../Libraries/STM32F10x_StdPeriph_Driver/src/stm32f10x_adc.c ****   /* Check the parameters */
 223:../Libraries/STM32F10x_StdPeriph_Driver/src/stm32f10x_adc.c ****   assert_param(IS_ADC_ALL_PERIPH(ADCx));
 224:../Libraries/STM32F10x_StdPeriph_Driver/src/stm32f10x_adc.c ****   assert_param(IS_ADC_MODE(ADC_InitStruct->ADC_Mode));
 225:../Libraries/STM32F10x_StdPeriph_Driver/src/stm32f10x_adc.c ****   assert_param(IS_FUNCTIONAL_STATE(ADC_InitStruct->ADC_ScanConvMode));
 226:../Libraries/STM32F10x_StdPeriph_Driver/src/stm32f10x_adc.c ****   assert_param(IS_FUNCTIONAL_STATE(ADC_InitStruct->ADC_ContinuousConvMode));
 227:../Libraries/STM32F10x_StdPeriph_Driver/src/stm32f10x_adc.c ****   assert_param(IS_ADC_EXT_TRIG(ADC_InitStruct->ADC_ExternalTrigConv));   
 228:../Libraries/STM32F10x_StdPeriph_Driver/src/stm32f10x_adc.c ****   assert_param(IS_ADC_DATA_ALIGN(ADC_InitStruct->ADC_DataAlign)); 
 229:../Libraries/STM32F10x_StdPeriph_Driver/src/stm32f10x_adc.c ****   assert_param(IS_ADC_REGULAR_LENGTH(ADC_InitStruct->ADC_NbrOfChannel));
 230:../Libraries/STM32F10x_StdPeriph_Driver/src/stm32f10x_adc.c **** 
 231:../Libraries/STM32F10x_StdPeriph_Driver/src/stm32f10x_adc.c ****   /*---------------------------- ADCx CR1 Configuration -----------------*/
 232:../Libraries/STM32F10x_StdPeriph_Driver/src/stm32f10x_adc.c ****   /* Get the ADCx CR1 value */
 233:../Libraries/STM32F10x_StdPeriph_Driver/src/stm32f10x_adc.c ****   tmpreg1 = ADCx->CR1;
 19015              		.loc 1 233 0
 19016 0000 4368     		ldr	r3, [r0, #4]
 19017              	.LVL8:
 234:../Libraries/STM32F10x_StdPeriph_Driver/src/stm32f10x_adc.c ****   /* Clear DUALMOD and SCAN bits */
 235:../Libraries/STM32F10x_StdPeriph_Driver/src/stm32f10x_adc.c ****   tmpreg1 &= CR1_CLEAR_Mask;
 236:../Libraries/STM32F10x_StdPeriph_Driver/src/stm32f10x_adc.c ****   /* Configure ADCx: Dual mode and scan conversion mode */
 237:../Libraries/STM32F10x_StdPeriph_Driver/src/stm32f10x_adc.c ****   /* Set DUALMOD bits according to ADC_Mode value */
 238:../Libraries/STM32F10x_StdPeriph_Driver/src/stm32f10x_adc.c ****   /* Set SCAN bit according to ADC_ScanConvMode value */
 239:../Libraries/STM32F10x_StdPeriph_Driver/src/stm32f10x_adc.c ****   tmpreg1 |= (uint32_t)(ADC_InitStruct->ADC_Mode | ((uint32_t)ADC_InitStruct->ADC_ScanConvMode << 8
 19018              		.loc 1 239 0
 19019 0002 0A68     		ldr	r2, [r1, #0]
 235:../Libraries/STM32F10x_StdPeriph_Driver/src/stm32f10x_adc.c ****   tmpreg1 &= CR1_CLEAR_Mask;
 19020              		.loc 1 235 0
 19021 0004 23F47023 		bic	r3, r3, #983040
 19022              	.LVL9:
 19023 0008 23F48073 		bic	r3, r3, #256
 19024              		.loc 1 239 0
 19025 000c 1343     		orrs	r3, r3, r2
 19026 000e 0A79     		ldrb	r2, [r1, #4]	@ zero_extendqisi2
 219:../Libraries/STM32F10x_StdPeriph_Driver/src/stm32f10x_adc.c **** {
 19027              		.loc 1 219 0
 19028 0010 10B5     		push	{r4, lr}
 19029              	.LCFI1:
 19030              		.cfi_def_cfa_offset 8
 19031              		.loc 1 239 0
 19032 0012 43EA0223 		orr	r3, r3, r2, lsl #8
 19033              	.LVL10:
 240:../Libraries/STM32F10x_StdPeriph_Driver/src/stm32f10x_adc.c ****   /* Write to ADCx CR1 */
 241:../Libraries/STM32F10x_StdPeriph_Driver/src/stm32f10x_adc.c ****   ADCx->CR1 = tmpreg1;
 19034              		.loc 1 241 0
 19035 0016 4360     		str	r3, [r0, #4]
 242:../Libraries/STM32F10x_StdPeriph_Driver/src/stm32f10x_adc.c **** 
 243:../Libraries/STM32F10x_StdPeriph_Driver/src/stm32f10x_adc.c ****   /*---------------------------- ADCx CR2 Configuration -----------------*/
 244:../Libraries/STM32F10x_StdPeriph_Driver/src/stm32f10x_adc.c ****   /* Get the ADCx CR2 value */
 245:../Libraries/STM32F10x_StdPeriph_Driver/src/stm32f10x_adc.c ****   tmpreg1 = ADCx->CR2;
 246:../Libraries/STM32F10x_StdPeriph_Driver/src/stm32f10x_adc.c ****   /* Clear CONT, ALIGN and EXTSEL bits */
 247:../Libraries/STM32F10x_StdPeriph_Driver/src/stm32f10x_adc.c ****   tmpreg1 &= CR2_CLEAR_Mask;
 248:../Libraries/STM32F10x_StdPeriph_Driver/src/stm32f10x_adc.c ****   /* Configure ADCx: external trigger event and continuous conversion mode */
 249:../Libraries/STM32F10x_StdPeriph_Driver/src/stm32f10x_adc.c ****   /* Set ALIGN bit according to ADC_DataAlign value */
 250:../Libraries/STM32F10x_StdPeriph_Driver/src/stm32f10x_adc.c ****   /* Set EXTSEL bits according to ADC_ExternalTrigConv value */
 251:../Libraries/STM32F10x_StdPeriph_Driver/src/stm32f10x_adc.c ****   /* Set CONT bit according to ADC_ContinuousConvMode value */
 252:../Libraries/STM32F10x_StdPeriph_Driver/src/stm32f10x_adc.c ****   tmpreg1 |= (uint32_t)(ADC_InitStruct->ADC_DataAlign | ADC_InitStruct->ADC_ExternalTrigConv |
 19036              		.loc 1 252 0
 19037 0018 8A68     		ldr	r2, [r1, #8]
 19038 001a CB68     		ldr	r3, [r1, #12]
 19039              	.LVL11:
 245:../Libraries/STM32F10x_StdPeriph_Driver/src/stm32f10x_adc.c ****   tmpreg1 = ADCx->CR2;
 19040              		.loc 1 245 0
 19041 001c 8468     		ldr	r4, [r0, #8]
 19042              		.cfi_offset 14, -4
 19043              		.cfi_offset 4, -8
 19044              	.LVL12:
 19045              		.loc 1 252 0
 19046 001e 1A43     		orrs	r2, r2, r3
 247:../Libraries/STM32F10x_StdPeriph_Driver/src/stm32f10x_adc.c ****   tmpreg1 &= CR2_CLEAR_Mask;
 19047              		.loc 1 247 0
 19048 0020 094B     		ldr	r3, .L9
 19049 0022 04EA0303 		and	r3, r4, r3
 19050              		.loc 1 252 0
 19051 0026 42EA0303 		orr	r3, r2, r3
 253:../Libraries/STM32F10x_StdPeriph_Driver/src/stm32f10x_adc.c ****             ((uint32_t)ADC_InitStruct->ADC_ContinuousConvMode << 1));
 19052              		.loc 1 253 0
 19053 002a 4A79     		ldrb	r2, [r1, #5]	@ zero_extendqisi2
 252:../Libraries/STM32F10x_StdPeriph_Driver/src/stm32f10x_adc.c ****   tmpreg1 |= (uint32_t)(ADC_InitStruct->ADC_DataAlign | ADC_InitStruct->ADC_ExternalTrigConv |
 19054              		.loc 1 252 0
 19055 002c 43EA4203 		orr	r3, r3, r2, lsl #1
 19056              	.LVL13:
 254:../Libraries/STM32F10x_StdPeriph_Driver/src/stm32f10x_adc.c ****   /* Write to ADCx CR2 */
 255:../Libraries/STM32F10x_StdPeriph_Driver/src/stm32f10x_adc.c ****   ADCx->CR2 = tmpreg1;
 19057              		.loc 1 255 0
 19058 0030 8360     		str	r3, [r0, #8]
 256:../Libraries/STM32F10x_StdPeriph_Driver/src/stm32f10x_adc.c **** 
 257:../Libraries/STM32F10x_StdPeriph_Driver/src/stm32f10x_adc.c ****   /*---------------------------- ADCx SQR1 Configuration -----------------*/
 258:../Libraries/STM32F10x_StdPeriph_Driver/src/stm32f10x_adc.c ****   /* Get the ADCx SQR1 value */
 259:../Libraries/STM32F10x_StdPeriph_Driver/src/stm32f10x_adc.c ****   tmpreg1 = ADCx->SQR1;
 260:../Libraries/STM32F10x_StdPeriph_Driver/src/stm32f10x_adc.c ****   /* Clear L bits */
 261:../Libraries/STM32F10x_StdPeriph_Driver/src/stm32f10x_adc.c ****   tmpreg1 &= SQR1_CLEAR_Mask;
 262:../Libraries/STM32F10x_StdPeriph_Driver/src/stm32f10x_adc.c ****   /* Configure ADCx: regular channel sequence length */
 263:../Libraries/STM32F10x_StdPeriph_Driver/src/stm32f10x_adc.c ****   /* Set L bits according to ADC_NbrOfChannel value */
 264:../Libraries/STM32F10x_StdPeriph_Driver/src/stm32f10x_adc.c ****   tmpreg2 |= (uint8_t) (ADC_InitStruct->ADC_NbrOfChannel - (uint8_t)1);
 19059              		.loc 1 264 0
 19060 0032 0B7C     		ldrb	r3, [r1, #16]	@ zero_extendqisi2
 19061              	.LVL14:
 259:../Libraries/STM32F10x_StdPeriph_Driver/src/stm32f10x_adc.c ****   tmpreg1 = ADCx->SQR1;
 19062              		.loc 1 259 0
 19063 0034 C26A     		ldr	r2, [r0, #44]
 19064              	.LVL15:
 19065              		.loc 1 264 0
 19066 0036 013B     		subs	r3, r3, #1
 261:../Libraries/STM32F10x_StdPeriph_Driver/src/stm32f10x_adc.c ****   tmpreg1 &= SQR1_CLEAR_Mask;
 19067              		.loc 1 261 0
 19068 0038 22F47002 		bic	r2, r2, #15728640
 19069              	.LVL16:
 265:../Libraries/STM32F10x_StdPeriph_Driver/src/stm32f10x_adc.c ****   tmpreg1 |= (uint32_t)tmpreg2 << 20;
 19070              		.loc 1 265 0
 19071 003c DBB2     		uxtb	r3, r3
 19072 003e 42EA0353 		orr	r3, r2, r3, lsl #20
 19073              	.LVL17:
 266:../Libraries/STM32F10x_StdPeriph_Driver/src/stm32f10x_adc.c ****   /* Write to ADCx SQR1 */
 267:../Libraries/STM32F10x_StdPeriph_Driver/src/stm32f10x_adc.c ****   ADCx->SQR1 = tmpreg1;
 19074              		.loc 1 267 0
 19075 0042 C362     		str	r3, [r0, #44]
 268:../Libraries/STM32F10x_StdPeriph_Driver/src/stm32f10x_adc.c **** }
 19076              		.loc 1 268 0
 19077 0044 10BD     		pop	{r4, pc}
 19078              	.L10:
 19079 0046 00BF     		.align	2
 19080              	.L9:
 19081 0048 FDF7F1FF 		.word	-919555
 19082              		.cfi_endproc
 19083              	.LFE30:
 19085              		.section	.text.ADC_StructInit,"ax",%progbits
 19086              		.align	1
 19087              		.global	ADC_StructInit
 19088              		.thumb
 19089              		.thumb_func
 19091              	ADC_StructInit:
 19092              	.LFB31:
 269:../Libraries/STM32F10x_StdPeriph_Driver/src/stm32f10x_adc.c **** 
 270:../Libraries/STM32F10x_StdPeriph_Driver/src/stm32f10x_adc.c **** /**
 271:../Libraries/STM32F10x_StdPeriph_Driver/src/stm32f10x_adc.c ****   * @brief  Fills each ADC_InitStruct member with its default value.
 272:../Libraries/STM32F10x_StdPeriph_Driver/src/stm32f10x_adc.c ****   * @param  ADC_InitStruct : pointer to an ADC_InitTypeDef structure which will be initialized.
 273:../Libraries/STM32F10x_StdPeriph_Driver/src/stm32f10x_adc.c ****   * @retval None
 274:../Libraries/STM32F10x_StdPeriph_Driver/src/stm32f10x_adc.c ****   */
 275:../Libraries/STM32F10x_StdPeriph_Driver/src/stm32f10x_adc.c **** void ADC_StructInit(ADC_InitTypeDef* ADC_InitStruct)
 276:../Libraries/STM32F10x_StdPeriph_Driver/src/stm32f10x_adc.c **** {
 19093              		.loc 1 276 0
 19094              		.cfi_startproc
 19095              		@ args = 0, pretend = 0, frame = 0
 19096              		@ frame_needed = 0, uses_anonymous_args = 0
 19097              		@ link register save eliminated.
 19098              	.LVL18:
 277:../Libraries/STM32F10x_StdPeriph_Driver/src/stm32f10x_adc.c ****   /* Reset ADC init structure parameters values */
 278:../Libraries/STM32F10x_StdPeriph_Driver/src/stm32f10x_adc.c ****   /* Initialize the ADC_Mode member */
 279:../Libraries/STM32F10x_StdPeriph_Driver/src/stm32f10x_adc.c ****   ADC_InitStruct->ADC_Mode = ADC_Mode_Independent;
 19099              		.loc 1 279 0
 19100 0000 0023     		movs	r3, #0
 19101 0002 0360     		str	r3, [r0, #0]
 280:../Libraries/STM32F10x_StdPeriph_Driver/src/stm32f10x_adc.c ****   /* initialize the ADC_ScanConvMode member */
 281:../Libraries/STM32F10x_StdPeriph_Driver/src/stm32f10x_adc.c ****   ADC_InitStruct->ADC_ScanConvMode = DISABLE;
 19102              		.loc 1 281 0
 19103 0004 0371     		strb	r3, [r0, #4]
 282:../Libraries/STM32F10x_StdPeriph_Driver/src/stm32f10x_adc.c ****   /* Initialize the ADC_ContinuousConvMode member */
 283:../Libraries/STM32F10x_StdPeriph_Driver/src/stm32f10x_adc.c ****   ADC_InitStruct->ADC_ContinuousConvMode = DISABLE;
 19104              		.loc 1 283 0
 19105 0006 4371     		strb	r3, [r0, #5]
 284:../Libraries/STM32F10x_StdPeriph_Driver/src/stm32f10x_adc.c ****   /* Initialize the ADC_ExternalTrigConv member */
 285:../Libraries/STM32F10x_StdPeriph_Driver/src/stm32f10x_adc.c ****   ADC_InitStruct->ADC_ExternalTrigConv = ADC_ExternalTrigConv_T1_CC1;
 19106              		.loc 1 285 0
 19107 0008 8360     		str	r3, [r0, #8]
 286:../Libraries/STM32F10x_StdPeriph_Driver/src/stm32f10x_adc.c ****   /* Initialize the ADC_DataAlign member */
 287:../Libraries/STM32F10x_StdPeriph_Driver/src/stm32f10x_adc.c ****   ADC_InitStruct->ADC_DataAlign = ADC_DataAlign_Right;
 19108              		.loc 1 287 0
 19109 000a C360     		str	r3, [r0, #12]
 288:../Libraries/STM32F10x_StdPeriph_Driver/src/stm32f10x_adc.c ****   /* Initialize the ADC_NbrOfChannel member */
 289:../Libraries/STM32F10x_StdPeriph_Driver/src/stm32f10x_adc.c ****   ADC_InitStruct->ADC_NbrOfChannel = 1;
 19110              		.loc 1 289 0
 19111 000c 0133     		adds	r3, r3, #1
 19112 000e 0374     		strb	r3, [r0, #16]
 290:../Libraries/STM32F10x_StdPeriph_Driver/src/stm32f10x_adc.c **** }
 19113              		.loc 1 290 0
 19114 0010 7047     		bx	lr
 19115              		.cfi_endproc
 19116              	.LFE31:
 19118              		.section	.text.ADC_Cmd,"ax",%progbits
 19119              		.align	1
 19120              		.global	ADC_Cmd
 19121              		.thumb
 19122              		.thumb_func
 19124              	ADC_Cmd:
 19125              	.LFB32:
 291:../Libraries/STM32F10x_StdPeriph_Driver/src/stm32f10x_adc.c **** 
 292:../Libraries/STM32F10x_StdPeriph_Driver/src/stm32f10x_adc.c **** /**
 293:../Libraries/STM32F10x_StdPeriph_Driver/src/stm32f10x_adc.c ****   * @brief  Enables or disables the specified ADC peripheral.
 294:../Libraries/STM32F10x_StdPeriph_Driver/src/stm32f10x_adc.c ****   * @param  ADCx: where x can be 1, 2 or 3 to select the ADC peripheral.
 295:../Libraries/STM32F10x_StdPeriph_Driver/src/stm32f10x_adc.c ****   * @param  NewState: new state of the ADCx peripheral.
 296:../Libraries/STM32F10x_StdPeriph_Driver/src/stm32f10x_adc.c ****   *   This parameter can be: ENABLE or DISABLE.
 297:../Libraries/STM32F10x_StdPeriph_Driver/src/stm32f10x_adc.c ****   * @retval None
 298:../Libraries/STM32F10x_StdPeriph_Driver/src/stm32f10x_adc.c ****   */
 299:../Libraries/STM32F10x_StdPeriph_Driver/src/stm32f10x_adc.c **** void ADC_Cmd(ADC_TypeDef* ADCx, FunctionalState NewState)
 300:../Libraries/STM32F10x_StdPeriph_Driver/src/stm32f10x_adc.c **** {
 19126              		.loc 1 300 0
 19127              		.cfi_startproc
 19128              		@ args = 0, pretend = 0, frame = 0
 19129              		@ frame_needed = 0, uses_anonymous_args = 0
 19130              		@ link register save eliminated.
 19131              	.LVL19:
 301:../Libraries/STM32F10x_StdPeriph_Driver/src/stm32f10x_adc.c ****   /* Check the parameters */
 302:../Libraries/STM32F10x_StdPeriph_Driver/src/stm32f10x_adc.c ****   assert_param(IS_ADC_ALL_PERIPH(ADCx));
 303:../Libraries/STM32F10x_StdPeriph_Driver/src/stm32f10x_adc.c ****   assert_param(IS_FUNCTIONAL_STATE(NewState));
 304:../Libraries/STM32F10x_StdPeriph_Driver/src/stm32f10x_adc.c ****   if (NewState != DISABLE)
 19132              		.loc 1 304 0
 19133 0000 19B1     		cbz	r1, .L13
 305:../Libraries/STM32F10x_StdPeriph_Driver/src/stm32f10x_adc.c ****   {
 306:../Libraries/STM32F10x_StdPeriph_Driver/src/stm32f10x_adc.c ****     /* Set the ADON bit to wake up the ADC from power down mode */
 307:../Libraries/STM32F10x_StdPeriph_Driver/src/stm32f10x_adc.c ****     ADCx->CR2 |= CR2_ADON_Set;
 19134              		.loc 1 307 0
 19135 0002 8368     		ldr	r3, [r0, #8]
 19136 0004 43F00103 		orr	r3, r3, #1
 19137 0008 02E0     		b	.L15
 19138              	.L13:
 308:../Libraries/STM32F10x_StdPeriph_Driver/src/stm32f10x_adc.c ****   }
 309:../Libraries/STM32F10x_StdPeriph_Driver/src/stm32f10x_adc.c ****   else
 310:../Libraries/STM32F10x_StdPeriph_Driver/src/stm32f10x_adc.c ****   {
 311:../Libraries/STM32F10x_StdPeriph_Driver/src/stm32f10x_adc.c ****     /* Disable the selected ADC peripheral */
 312:../Libraries/STM32F10x_StdPeriph_Driver/src/stm32f10x_adc.c ****     ADCx->CR2 &= CR2_ADON_Reset;
 19139              		.loc 1 312 0
 19140 000a 8368     		ldr	r3, [r0, #8]
 19141 000c 23F00103 		bic	r3, r3, #1
 19142              	.L15:
 19143 0010 8360     		str	r3, [r0, #8]
 19144 0012 7047     		bx	lr
 19145              		.cfi_endproc
 19146              	.LFE32:
 19148              		.section	.text.ADC_DMACmd,"ax",%progbits
 19149              		.align	1
 19150              		.global	ADC_DMACmd
 19151              		.thumb
 19152              		.thumb_func
 19154              	ADC_DMACmd:
 19155              	.LFB33:
 313:../Libraries/STM32F10x_StdPeriph_Driver/src/stm32f10x_adc.c ****   }
 314:../Libraries/STM32F10x_StdPeriph_Driver/src/stm32f10x_adc.c **** }
 315:../Libraries/STM32F10x_StdPeriph_Driver/src/stm32f10x_adc.c **** 
 316:../Libraries/STM32F10x_StdPeriph_Driver/src/stm32f10x_adc.c **** /**
 317:../Libraries/STM32F10x_StdPeriph_Driver/src/stm32f10x_adc.c ****   * @brief  Enables or disables the specified ADC DMA request.
 318:../Libraries/STM32F10x_StdPeriph_Driver/src/stm32f10x_adc.c ****   * @param  ADCx: where x can be 1 or 3 to select the ADC peripheral.
 319:../Libraries/STM32F10x_StdPeriph_Driver/src/stm32f10x_adc.c ****   *   Note: ADC2 hasn't a DMA capability.
 320:../Libraries/STM32F10x_StdPeriph_Driver/src/stm32f10x_adc.c ****   * @param  NewState: new state of the selected ADC DMA transfer.
 321:../Libraries/STM32F10x_StdPeriph_Driver/src/stm32f10x_adc.c ****   *   This parameter can be: ENABLE or DISABLE.
 322:../Libraries/STM32F10x_StdPeriph_Driver/src/stm32f10x_adc.c ****   * @retval None
 323:../Libraries/STM32F10x_StdPeriph_Driver/src/stm32f10x_adc.c ****   */
 324:../Libraries/STM32F10x_StdPeriph_Driver/src/stm32f10x_adc.c **** void ADC_DMACmd(ADC_TypeDef* ADCx, FunctionalState NewState)
 325:../Libraries/STM32F10x_StdPeriph_Driver/src/stm32f10x_adc.c **** {
 19156              		.loc 1 325 0
 19157              		.cfi_startproc
 19158              		@ args = 0, pretend = 0, frame = 0
 19159              		@ frame_needed = 0, uses_anonymous_args = 0
 19160              		@ link register save eliminated.
 19161              	.LVL20:
 326:../Libraries/STM32F10x_StdPeriph_Driver/src/stm32f10x_adc.c ****   /* Check the parameters */
 327:../Libraries/STM32F10x_StdPeriph_Driver/src/stm32f10x_adc.c ****   assert_param(IS_ADC_DMA_PERIPH(ADCx));
 328:../Libraries/STM32F10x_StdPeriph_Driver/src/stm32f10x_adc.c ****   assert_param(IS_FUNCTIONAL_STATE(NewState));
 329:../Libraries/STM32F10x_StdPeriph_Driver/src/stm32f10x_adc.c ****   if (NewState != DISABLE)
 19162              		.loc 1 329 0
 19163 0000 19B1     		cbz	r1, .L17
 330:../Libraries/STM32F10x_StdPeriph_Driver/src/stm32f10x_adc.c ****   {
 331:../Libraries/STM32F10x_StdPeriph_Driver/src/stm32f10x_adc.c ****     /* Enable the selected ADC DMA request */
 332:../Libraries/STM32F10x_StdPeriph_Driver/src/stm32f10x_adc.c ****     ADCx->CR2 |= CR2_DMA_Set;
 19164              		.loc 1 332 0
 19165 0002 8368     		ldr	r3, [r0, #8]
 19166 0004 43F48073 		orr	r3, r3, #256
 19167 0008 02E0     		b	.L19
 19168              	.L17:
 333:../Libraries/STM32F10x_StdPeriph_Driver/src/stm32f10x_adc.c ****   }
 334:../Libraries/STM32F10x_StdPeriph_Driver/src/stm32f10x_adc.c ****   else
 335:../Libraries/STM32F10x_StdPeriph_Driver/src/stm32f10x_adc.c ****   {
 336:../Libraries/STM32F10x_StdPeriph_Driver/src/stm32f10x_adc.c ****     /* Disable the selected ADC DMA request */
 337:../Libraries/STM32F10x_StdPeriph_Driver/src/stm32f10x_adc.c ****     ADCx->CR2 &= CR2_DMA_Reset;
 19169              		.loc 1 337 0
 19170 000a 8368     		ldr	r3, [r0, #8]
 19171 000c 23F48073 		bic	r3, r3, #256
 19172              	.L19:
 19173 0010 8360     		str	r3, [r0, #8]
 19174 0012 7047     		bx	lr
 19175              		.cfi_endproc
 19176              	.LFE33:
 19178              		.section	.text.ADC_ITConfig,"ax",%progbits
 19179              		.align	1
 19180              		.global	ADC_ITConfig
 19181              		.thumb
 19182              		.thumb_func
 19184              	ADC_ITConfig:
 19185              	.LFB34:
 338:../Libraries/STM32F10x_StdPeriph_Driver/src/stm32f10x_adc.c ****   }
 339:../Libraries/STM32F10x_StdPeriph_Driver/src/stm32f10x_adc.c **** }
 340:../Libraries/STM32F10x_StdPeriph_Driver/src/stm32f10x_adc.c **** 
 341:../Libraries/STM32F10x_StdPeriph_Driver/src/stm32f10x_adc.c **** /**
 342:../Libraries/STM32F10x_StdPeriph_Driver/src/stm32f10x_adc.c ****   * @brief  Enables or disables the specified ADC interrupts.
 343:../Libraries/STM32F10x_StdPeriph_Driver/src/stm32f10x_adc.c ****   * @param  ADCx: where x can be 1, 2 or 3 to select the ADC peripheral.
 344:../Libraries/STM32F10x_StdPeriph_Driver/src/stm32f10x_adc.c ****   * @param  ADC_IT: specifies the ADC interrupt sources to be enabled or disabled. 
 345:../Libraries/STM32F10x_StdPeriph_Driver/src/stm32f10x_adc.c ****   *   This parameter can be any combination of the following values:
 346:../Libraries/STM32F10x_StdPeriph_Driver/src/stm32f10x_adc.c ****   *     @arg ADC_IT_EOC: End of conversion interrupt mask
 347:../Libraries/STM32F10x_StdPeriph_Driver/src/stm32f10x_adc.c ****   *     @arg ADC_IT_AWD: Analog watchdog interrupt mask
 348:../Libraries/STM32F10x_StdPeriph_Driver/src/stm32f10x_adc.c ****   *     @arg ADC_IT_JEOC: End of injected conversion interrupt mask
 349:../Libraries/STM32F10x_StdPeriph_Driver/src/stm32f10x_adc.c ****   * @param  NewState: new state of the specified ADC interrupts.
 350:../Libraries/STM32F10x_StdPeriph_Driver/src/stm32f10x_adc.c ****   *   This parameter can be: ENABLE or DISABLE.
 351:../Libraries/STM32F10x_StdPeriph_Driver/src/stm32f10x_adc.c ****   * @retval None
 352:../Libraries/STM32F10x_StdPeriph_Driver/src/stm32f10x_adc.c ****   */
 353:../Libraries/STM32F10x_StdPeriph_Driver/src/stm32f10x_adc.c **** void ADC_ITConfig(ADC_TypeDef* ADCx, uint16_t ADC_IT, FunctionalState NewState)
 354:../Libraries/STM32F10x_StdPeriph_Driver/src/stm32f10x_adc.c **** {
 19186              		.loc 1 354 0
 19187              		.cfi_startproc
 19188              		@ args = 0, pretend = 0, frame = 0
 19189              		@ frame_needed = 0, uses_anonymous_args = 0
 19190              		@ link register save eliminated.
 19191              	.LVL21:
 355:../Libraries/STM32F10x_StdPeriph_Driver/src/stm32f10x_adc.c ****   uint8_t itmask = 0;
 356:../Libraries/STM32F10x_StdPeriph_Driver/src/stm32f10x_adc.c ****   /* Check the parameters */
 357:../Libraries/STM32F10x_StdPeriph_Driver/src/stm32f10x_adc.c ****   assert_param(IS_ADC_ALL_PERIPH(ADCx));
 358:../Libraries/STM32F10x_StdPeriph_Driver/src/stm32f10x_adc.c ****   assert_param(IS_FUNCTIONAL_STATE(NewState));
 359:../Libraries/STM32F10x_StdPeriph_Driver/src/stm32f10x_adc.c ****   assert_param(IS_ADC_IT(ADC_IT));
 360:../Libraries/STM32F10x_StdPeriph_Driver/src/stm32f10x_adc.c ****   /* Get the ADC IT index */
 361:../Libraries/STM32F10x_StdPeriph_Driver/src/stm32f10x_adc.c ****   itmask = (uint8_t)ADC_IT;
 19192              		.loc 1 361 0
 19193 0000 C9B2     		uxtb	r1, r1
 19194              	.LVL22:
 362:../Libraries/STM32F10x_StdPeriph_Driver/src/stm32f10x_adc.c ****   if (NewState != DISABLE)
 19195              		.loc 1 362 0
 19196 0002 12B1     		cbz	r2, .L21
 363:../Libraries/STM32F10x_StdPeriph_Driver/src/stm32f10x_adc.c ****   {
 364:../Libraries/STM32F10x_StdPeriph_Driver/src/stm32f10x_adc.c ****     /* Enable the selected ADC interrupts */
 365:../Libraries/STM32F10x_StdPeriph_Driver/src/stm32f10x_adc.c ****     ADCx->CR1 |= itmask;
 19197              		.loc 1 365 0
 19198 0004 4368     		ldr	r3, [r0, #4]
 19199 0006 1943     		orrs	r1, r1, r3
 19200              	.LVL23:
 19201 0008 02E0     		b	.L23
 19202              	.LVL24:
 19203              	.L21:
 366:../Libraries/STM32F10x_StdPeriph_Driver/src/stm32f10x_adc.c ****   }
 367:../Libraries/STM32F10x_StdPeriph_Driver/src/stm32f10x_adc.c ****   else
 368:../Libraries/STM32F10x_StdPeriph_Driver/src/stm32f10x_adc.c ****   {
 369:../Libraries/STM32F10x_StdPeriph_Driver/src/stm32f10x_adc.c ****     /* Disable the selected ADC interrupts */
 370:../Libraries/STM32F10x_StdPeriph_Driver/src/stm32f10x_adc.c ****     ADCx->CR1 &= (~(uint32_t)itmask);
 19204              		.loc 1 370 0
 19205 000a 4368     		ldr	r3, [r0, #4]
 19206 000c 23EA0101 		bic	r1, r3, r1
 19207              	.LVL25:
 19208              	.L23:
 19209 0010 4160     		str	r1, [r0, #4]
 19210 0012 7047     		bx	lr
 19211              		.cfi_endproc
 19212              	.LFE34:
 19214              		.section	.text.ADC_ResetCalibration,"ax",%progbits
 19215              		.align	1
 19216              		.global	ADC_ResetCalibration
 19217              		.thumb
 19218              		.thumb_func
 19220              	ADC_ResetCalibration:
 19221              	.LFB35:
 371:../Libraries/STM32F10x_StdPeriph_Driver/src/stm32f10x_adc.c ****   }
 372:../Libraries/STM32F10x_StdPeriph_Driver/src/stm32f10x_adc.c **** }
 373:../Libraries/STM32F10x_StdPeriph_Driver/src/stm32f10x_adc.c **** 
 374:../Libraries/STM32F10x_StdPeriph_Driver/src/stm32f10x_adc.c **** /**
 375:../Libraries/STM32F10x_StdPeriph_Driver/src/stm32f10x_adc.c ****   * @brief  Resets the selected ADC calibration registers.
 376:../Libraries/STM32F10x_StdPeriph_Driver/src/stm32f10x_adc.c ****   * @param  ADCx: where x can be 1, 2 or 3 to select the ADC peripheral.
 377:../Libraries/STM32F10x_StdPeriph_Driver/src/stm32f10x_adc.c ****   * @retval None
 378:../Libraries/STM32F10x_StdPeriph_Driver/src/stm32f10x_adc.c ****   */
 379:../Libraries/STM32F10x_StdPeriph_Driver/src/stm32f10x_adc.c **** void ADC_ResetCalibration(ADC_TypeDef* ADCx)
 380:../Libraries/STM32F10x_StdPeriph_Driver/src/stm32f10x_adc.c **** {
 19222              		.loc 1 380 0
 19223              		.cfi_startproc
 19224              		@ args = 0, pretend = 0, frame = 0
 19225              		@ frame_needed = 0, uses_anonymous_args = 0
 19226              		@ link register save eliminated.
 19227              	.LVL26:
 381:../Libraries/STM32F10x_StdPeriph_Driver/src/stm32f10x_adc.c ****   /* Check the parameters */
 382:../Libraries/STM32F10x_StdPeriph_Driver/src/stm32f10x_adc.c ****   assert_param(IS_ADC_ALL_PERIPH(ADCx));
 383:../Libraries/STM32F10x_StdPeriph_Driver/src/stm32f10x_adc.c ****   /* Resets the selected ADC calibration registers */  
 384:../Libraries/STM32F10x_StdPeriph_Driver/src/stm32f10x_adc.c ****   ADCx->CR2 |= CR2_RSTCAL_Set;
 19228              		.loc 1 384 0
 19229 0000 8368     		ldr	r3, [r0, #8]
 19230 0002 43F00803 		orr	r3, r3, #8
 19231 0006 8360     		str	r3, [r0, #8]
 385:../Libraries/STM32F10x_StdPeriph_Driver/src/stm32f10x_adc.c **** }
 19232              		.loc 1 385 0
 19233 0008 7047     		bx	lr
 19234              		.cfi_endproc
 19235              	.LFE35:
 19237              		.section	.text.ADC_GetResetCalibrationStatus,"ax",%progbits
 19238              		.align	1
 19239              		.global	ADC_GetResetCalibrationStatus
 19240              		.thumb
 19241              		.thumb_func
 19243              	ADC_GetResetCalibrationStatus:
 19244              	.LFB36:
 386:../Libraries/STM32F10x_StdPeriph_Driver/src/stm32f10x_adc.c **** 
 387:../Libraries/STM32F10x_StdPeriph_Driver/src/stm32f10x_adc.c **** /**
 388:../Libraries/STM32F10x_StdPeriph_Driver/src/stm32f10x_adc.c ****   * @brief  Gets the selected ADC reset calibration registers status.
 389:../Libraries/STM32F10x_StdPeriph_Driver/src/stm32f10x_adc.c ****   * @param  ADCx: where x can be 1, 2 or 3 to select the ADC peripheral.
 390:../Libraries/STM32F10x_StdPeriph_Driver/src/stm32f10x_adc.c ****   * @retval The new state of ADC reset calibration registers (SET or RESET).
 391:../Libraries/STM32F10x_StdPeriph_Driver/src/stm32f10x_adc.c ****   */
 392:../Libraries/STM32F10x_StdPeriph_Driver/src/stm32f10x_adc.c **** FlagStatus ADC_GetResetCalibrationStatus(ADC_TypeDef* ADCx)
 393:../Libraries/STM32F10x_StdPeriph_Driver/src/stm32f10x_adc.c **** {
 19245              		.loc 1 393 0
 19246              		.cfi_startproc
 19247              		@ args = 0, pretend = 0, frame = 0
 19248              		@ frame_needed = 0, uses_anonymous_args = 0
 19249              		@ link register save eliminated.
 19250              	.LVL27:
 394:../Libraries/STM32F10x_StdPeriph_Driver/src/stm32f10x_adc.c ****   FlagStatus bitstatus = RESET;
 395:../Libraries/STM32F10x_StdPeriph_Driver/src/stm32f10x_adc.c ****   /* Check the parameters */
 396:../Libraries/STM32F10x_StdPeriph_Driver/src/stm32f10x_adc.c ****   assert_param(IS_ADC_ALL_PERIPH(ADCx));
 397:../Libraries/STM32F10x_StdPeriph_Driver/src/stm32f10x_adc.c ****   /* Check the status of RSTCAL bit */
 398:../Libraries/STM32F10x_StdPeriph_Driver/src/stm32f10x_adc.c ****   if ((ADCx->CR2 & CR2_RSTCAL_Set) != (uint32_t)RESET)
 19251              		.loc 1 398 0
 19252 0000 8068     		ldr	r0, [r0, #8]
 19253              	.LVL28:
 399:../Libraries/STM32F10x_StdPeriph_Driver/src/stm32f10x_adc.c ****   {
 400:../Libraries/STM32F10x_StdPeriph_Driver/src/stm32f10x_adc.c ****     /* RSTCAL bit is set */
 401:../Libraries/STM32F10x_StdPeriph_Driver/src/stm32f10x_adc.c ****     bitstatus = SET;
 402:../Libraries/STM32F10x_StdPeriph_Driver/src/stm32f10x_adc.c ****   }
 403:../Libraries/STM32F10x_StdPeriph_Driver/src/stm32f10x_adc.c ****   else
 404:../Libraries/STM32F10x_StdPeriph_Driver/src/stm32f10x_adc.c ****   {
 405:../Libraries/STM32F10x_StdPeriph_Driver/src/stm32f10x_adc.c ****     /* RSTCAL bit is reset */
 406:../Libraries/STM32F10x_StdPeriph_Driver/src/stm32f10x_adc.c ****     bitstatus = RESET;
 407:../Libraries/STM32F10x_StdPeriph_Driver/src/stm32f10x_adc.c ****   }
 408:../Libraries/STM32F10x_StdPeriph_Driver/src/stm32f10x_adc.c ****   /* Return the RSTCAL bit status */
 409:../Libraries/STM32F10x_StdPeriph_Driver/src/stm32f10x_adc.c ****   return  bitstatus;
 410:../Libraries/STM32F10x_StdPeriph_Driver/src/stm32f10x_adc.c **** }
 19254              		.loc 1 410 0
 19255 0002 C0F3C000 		ubfx	r0, r0, #3, #1
 19256              	.LVL29:
 19257 0006 7047     		bx	lr
 19258              		.cfi_endproc
 19259              	.LFE36:
 19261              		.section	.text.ADC_StartCalibration,"ax",%progbits
 19262              		.align	1
 19263              		.global	ADC_StartCalibration
 19264              		.thumb
 19265              		.thumb_func
 19267              	ADC_StartCalibration:
 19268              	.LFB37:
 411:../Libraries/STM32F10x_StdPeriph_Driver/src/stm32f10x_adc.c **** 
 412:../Libraries/STM32F10x_StdPeriph_Driver/src/stm32f10x_adc.c **** /**
 413:../Libraries/STM32F10x_StdPeriph_Driver/src/stm32f10x_adc.c ****   * @brief  Starts the selected ADC calibration process.
 414:../Libraries/STM32F10x_StdPeriph_Driver/src/stm32f10x_adc.c ****   * @param  ADCx: where x can be 1, 2 or 3 to select the ADC peripheral.
 415:../Libraries/STM32F10x_StdPeriph_Driver/src/stm32f10x_adc.c ****   * @retval None
 416:../Libraries/STM32F10x_StdPeriph_Driver/src/stm32f10x_adc.c ****   */
 417:../Libraries/STM32F10x_StdPeriph_Driver/src/stm32f10x_adc.c **** void ADC_StartCalibration(ADC_TypeDef* ADCx)
 418:../Libraries/STM32F10x_StdPeriph_Driver/src/stm32f10x_adc.c **** {
 19269              		.loc 1 418 0
 19270              		.cfi_startproc
 19271              		@ args = 0, pretend = 0, frame = 0
 19272              		@ frame_needed = 0, uses_anonymous_args = 0
 19273              		@ link register save eliminated.
 19274              	.LVL30:
 419:../Libraries/STM32F10x_StdPeriph_Driver/src/stm32f10x_adc.c ****   /* Check the parameters */
 420:../Libraries/STM32F10x_StdPeriph_Driver/src/stm32f10x_adc.c ****   assert_param(IS_ADC_ALL_PERIPH(ADCx));
 421:../Libraries/STM32F10x_StdPeriph_Driver/src/stm32f10x_adc.c ****   /* Enable the selected ADC calibration process */  
 422:../Libraries/STM32F10x_StdPeriph_Driver/src/stm32f10x_adc.c ****   ADCx->CR2 |= CR2_CAL_Set;
 19275              		.loc 1 422 0
 19276 0000 8368     		ldr	r3, [r0, #8]
 19277 0002 43F00403 		orr	r3, r3, #4
 19278 0006 8360     		str	r3, [r0, #8]
 423:../Libraries/STM32F10x_StdPeriph_Driver/src/stm32f10x_adc.c **** }
 19279              		.loc 1 423 0
 19280 0008 7047     		bx	lr
 19281              		.cfi_endproc
 19282              	.LFE37:
 19284              		.section	.text.ADC_GetCalibrationStatus,"ax",%progbits
 19285              		.align	1
 19286              		.global	ADC_GetCalibrationStatus
 19287              		.thumb
 19288              		.thumb_func
 19290              	ADC_GetCalibrationStatus:
 19291              	.LFB38:
 424:../Libraries/STM32F10x_StdPeriph_Driver/src/stm32f10x_adc.c **** 
 425:../Libraries/STM32F10x_StdPeriph_Driver/src/stm32f10x_adc.c **** /**
 426:../Libraries/STM32F10x_StdPeriph_Driver/src/stm32f10x_adc.c ****   * @brief  Gets the selected ADC calibration status.
 427:../Libraries/STM32F10x_StdPeriph_Driver/src/stm32f10x_adc.c ****   * @param  ADCx: where x can be 1, 2 or 3 to select the ADC peripheral.
 428:../Libraries/STM32F10x_StdPeriph_Driver/src/stm32f10x_adc.c ****   * @retval The new state of ADC calibration (SET or RESET).
 429:../Libraries/STM32F10x_StdPeriph_Driver/src/stm32f10x_adc.c ****   */
 430:../Libraries/STM32F10x_StdPeriph_Driver/src/stm32f10x_adc.c **** FlagStatus ADC_GetCalibrationStatus(ADC_TypeDef* ADCx)
 431:../Libraries/STM32F10x_StdPeriph_Driver/src/stm32f10x_adc.c **** {
 19292              		.loc 1 431 0
 19293              		.cfi_startproc
 19294              		@ args = 0, pretend = 0, frame = 0
 19295              		@ frame_needed = 0, uses_anonymous_args = 0
 19296              		@ link register save eliminated.
 19297              	.LVL31:
 432:../Libraries/STM32F10x_StdPeriph_Driver/src/stm32f10x_adc.c ****   FlagStatus bitstatus = RESET;
 433:../Libraries/STM32F10x_StdPeriph_Driver/src/stm32f10x_adc.c ****   /* Check the parameters */
 434:../Libraries/STM32F10x_StdPeriph_Driver/src/stm32f10x_adc.c ****   assert_param(IS_ADC_ALL_PERIPH(ADCx));
 435:../Libraries/STM32F10x_StdPeriph_Driver/src/stm32f10x_adc.c ****   /* Check the status of CAL bit */
 436:../Libraries/STM32F10x_StdPeriph_Driver/src/stm32f10x_adc.c ****   if ((ADCx->CR2 & CR2_CAL_Set) != (uint32_t)RESET)
 19298              		.loc 1 436 0
 19299 0000 8068     		ldr	r0, [r0, #8]
 19300              	.LVL32:
 437:../Libraries/STM32F10x_StdPeriph_Driver/src/stm32f10x_adc.c ****   {
 438:../Libraries/STM32F10x_StdPeriph_Driver/src/stm32f10x_adc.c ****     /* CAL bit is set: calibration on going */
 439:../Libraries/STM32F10x_StdPeriph_Driver/src/stm32f10x_adc.c ****     bitstatus = SET;
 440:../Libraries/STM32F10x_StdPeriph_Driver/src/stm32f10x_adc.c ****   }
 441:../Libraries/STM32F10x_StdPeriph_Driver/src/stm32f10x_adc.c ****   else
 442:../Libraries/STM32F10x_StdPeriph_Driver/src/stm32f10x_adc.c ****   {
 443:../Libraries/STM32F10x_StdPeriph_Driver/src/stm32f10x_adc.c ****     /* CAL bit is reset: end of calibration */
 444:../Libraries/STM32F10x_StdPeriph_Driver/src/stm32f10x_adc.c ****     bitstatus = RESET;
 445:../Libraries/STM32F10x_StdPeriph_Driver/src/stm32f10x_adc.c ****   }
 446:../Libraries/STM32F10x_StdPeriph_Driver/src/stm32f10x_adc.c ****   /* Return the CAL bit status */
 447:../Libraries/STM32F10x_StdPeriph_Driver/src/stm32f10x_adc.c ****   return  bitstatus;
 448:../Libraries/STM32F10x_StdPeriph_Driver/src/stm32f10x_adc.c **** }
 19301              		.loc 1 448 0
 19302 0002 C0F38000 		ubfx	r0, r0, #2, #1
 19303              	.LVL33:
 19304 0006 7047     		bx	lr
 19305              		.cfi_endproc
 19306              	.LFE38:
 19308              		.section	.text.ADC_SoftwareStartConvCmd,"ax",%progbits
 19309              		.align	1
 19310              		.global	ADC_SoftwareStartConvCmd
 19311              		.thumb
 19312              		.thumb_func
 19314              	ADC_SoftwareStartConvCmd:
 19315              	.LFB39:
 449:../Libraries/STM32F10x_StdPeriph_Driver/src/stm32f10x_adc.c **** 
 450:../Libraries/STM32F10x_StdPeriph_Driver/src/stm32f10x_adc.c **** /**
 451:../Libraries/STM32F10x_StdPeriph_Driver/src/stm32f10x_adc.c ****   * @brief  Enables or disables the selected ADC software start conversion .
 452:../Libraries/STM32F10x_StdPeriph_Driver/src/stm32f10x_adc.c ****   * @param  ADCx: where x can be 1, 2 or 3 to select the ADC peripheral.
 453:../Libraries/STM32F10x_StdPeriph_Driver/src/stm32f10x_adc.c ****   * @param  NewState: new state of the selected ADC software start conversion.
 454:../Libraries/STM32F10x_StdPeriph_Driver/src/stm32f10x_adc.c ****   *   This parameter can be: ENABLE or DISABLE.
 455:../Libraries/STM32F10x_StdPeriph_Driver/src/stm32f10x_adc.c ****   * @retval None
 456:../Libraries/STM32F10x_StdPeriph_Driver/src/stm32f10x_adc.c ****   */
 457:../Libraries/STM32F10x_StdPeriph_Driver/src/stm32f10x_adc.c **** void ADC_SoftwareStartConvCmd(ADC_TypeDef* ADCx, FunctionalState NewState)
 458:../Libraries/STM32F10x_StdPeriph_Driver/src/stm32f10x_adc.c **** {
 19316              		.loc 1 458 0
 19317              		.cfi_startproc
 19318              		@ args = 0, pretend = 0, frame = 0
 19319              		@ frame_needed = 0, uses_anonymous_args = 0
 19320              		@ link register save eliminated.
 19321              	.LVL34:
 459:../Libraries/STM32F10x_StdPeriph_Driver/src/stm32f10x_adc.c ****   /* Check the parameters */
 460:../Libraries/STM32F10x_StdPeriph_Driver/src/stm32f10x_adc.c ****   assert_param(IS_ADC_ALL_PERIPH(ADCx));
 461:../Libraries/STM32F10x_StdPeriph_Driver/src/stm32f10x_adc.c ****   assert_param(IS_FUNCTIONAL_STATE(NewState));
 462:../Libraries/STM32F10x_StdPeriph_Driver/src/stm32f10x_adc.c ****   if (NewState != DISABLE)
 19322              		.loc 1 462 0
 19323 0000 19B1     		cbz	r1, .L29
 463:../Libraries/STM32F10x_StdPeriph_Driver/src/stm32f10x_adc.c ****   {
 464:../Libraries/STM32F10x_StdPeriph_Driver/src/stm32f10x_adc.c ****     /* Enable the selected ADC conversion on external event and start the selected
 465:../Libraries/STM32F10x_StdPeriph_Driver/src/stm32f10x_adc.c ****        ADC conversion */
 466:../Libraries/STM32F10x_StdPeriph_Driver/src/stm32f10x_adc.c ****     ADCx->CR2 |= CR2_EXTTRIG_SWSTART_Set;
 19324              		.loc 1 466 0
 19325 0002 8368     		ldr	r3, [r0, #8]
 19326 0004 43F4A003 		orr	r3, r3, #5242880
 19327 0008 02E0     		b	.L31
 19328              	.L29:
 467:../Libraries/STM32F10x_StdPeriph_Driver/src/stm32f10x_adc.c ****   }
 468:../Libraries/STM32F10x_StdPeriph_Driver/src/stm32f10x_adc.c ****   else
 469:../Libraries/STM32F10x_StdPeriph_Driver/src/stm32f10x_adc.c ****   {
 470:../Libraries/STM32F10x_StdPeriph_Driver/src/stm32f10x_adc.c ****     /* Disable the selected ADC conversion on external event and stop the selected
 471:../Libraries/STM32F10x_StdPeriph_Driver/src/stm32f10x_adc.c ****        ADC conversion */
 472:../Libraries/STM32F10x_StdPeriph_Driver/src/stm32f10x_adc.c ****     ADCx->CR2 &= CR2_EXTTRIG_SWSTART_Reset;
 19329              		.loc 1 472 0
 19330 000a 8368     		ldr	r3, [r0, #8]
 19331 000c 23F4A003 		bic	r3, r3, #5242880
 19332              	.L31:
 19333 0010 8360     		str	r3, [r0, #8]
 19334 0012 7047     		bx	lr
 19335              		.cfi_endproc
 19336              	.LFE39:
 19338              		.section	.text.ADC_GetSoftwareStartConvStatus,"ax",%progbits
 19339              		.align	1
 19340              		.global	ADC_GetSoftwareStartConvStatus
 19341              		.thumb
 19342              		.thumb_func
 19344              	ADC_GetSoftwareStartConvStatus:
 19345              	.LFB40:
 473:../Libraries/STM32F10x_StdPeriph_Driver/src/stm32f10x_adc.c ****   }
 474:../Libraries/STM32F10x_StdPeriph_Driver/src/stm32f10x_adc.c **** }
 475:../Libraries/STM32F10x_StdPeriph_Driver/src/stm32f10x_adc.c **** 
 476:../Libraries/STM32F10x_StdPeriph_Driver/src/stm32f10x_adc.c **** /**
 477:../Libraries/STM32F10x_StdPeriph_Driver/src/stm32f10x_adc.c ****   * @brief  Gets the selected ADC Software start conversion Status.
 478:../Libraries/STM32F10x_StdPeriph_Driver/src/stm32f10x_adc.c ****   * @param  ADCx: where x can be 1, 2 or 3 to select the ADC peripheral.
 479:../Libraries/STM32F10x_StdPeriph_Driver/src/stm32f10x_adc.c ****   * @retval The new state of ADC software start conversion (SET or RESET).
 480:../Libraries/STM32F10x_StdPeriph_Driver/src/stm32f10x_adc.c ****   */
 481:../Libraries/STM32F10x_StdPeriph_Driver/src/stm32f10x_adc.c **** FlagStatus ADC_GetSoftwareStartConvStatus(ADC_TypeDef* ADCx)
 482:../Libraries/STM32F10x_StdPeriph_Driver/src/stm32f10x_adc.c **** {
 19346              		.loc 1 482 0
 19347              		.cfi_startproc
 19348              		@ args = 0, pretend = 0, frame = 0
 19349              		@ frame_needed = 0, uses_anonymous_args = 0
 19350              		@ link register save eliminated.
 19351              	.LVL35:
 483:../Libraries/STM32F10x_StdPeriph_Driver/src/stm32f10x_adc.c ****   FlagStatus bitstatus = RESET;
 484:../Libraries/STM32F10x_StdPeriph_Driver/src/stm32f10x_adc.c ****   /* Check the parameters */
 485:../Libraries/STM32F10x_StdPeriph_Driver/src/stm32f10x_adc.c ****   assert_param(IS_ADC_ALL_PERIPH(ADCx));
 486:../Libraries/STM32F10x_StdPeriph_Driver/src/stm32f10x_adc.c ****   /* Check the status of SWSTART bit */
 487:../Libraries/STM32F10x_StdPeriph_Driver/src/stm32f10x_adc.c ****   if ((ADCx->CR2 & CR2_SWSTART_Set) != (uint32_t)RESET)
 19352              		.loc 1 487 0
 19353 0000 8068     		ldr	r0, [r0, #8]
 19354              	.LVL36:
 488:../Libraries/STM32F10x_StdPeriph_Driver/src/stm32f10x_adc.c ****   {
 489:../Libraries/STM32F10x_StdPeriph_Driver/src/stm32f10x_adc.c ****     /* SWSTART bit is set */
 490:../Libraries/STM32F10x_StdPeriph_Driver/src/stm32f10x_adc.c ****     bitstatus = SET;
 491:../Libraries/STM32F10x_StdPeriph_Driver/src/stm32f10x_adc.c ****   }
 492:../Libraries/STM32F10x_StdPeriph_Driver/src/stm32f10x_adc.c ****   else
 493:../Libraries/STM32F10x_StdPeriph_Driver/src/stm32f10x_adc.c ****   {
 494:../Libraries/STM32F10x_StdPeriph_Driver/src/stm32f10x_adc.c ****     /* SWSTART bit is reset */
 495:../Libraries/STM32F10x_StdPeriph_Driver/src/stm32f10x_adc.c ****     bitstatus = RESET;
 496:../Libraries/STM32F10x_StdPeriph_Driver/src/stm32f10x_adc.c ****   }
 497:../Libraries/STM32F10x_StdPeriph_Driver/src/stm32f10x_adc.c ****   /* Return the SWSTART bit status */
 498:../Libraries/STM32F10x_StdPeriph_Driver/src/stm32f10x_adc.c ****   return  bitstatus;
 499:../Libraries/STM32F10x_StdPeriph_Driver/src/stm32f10x_adc.c **** }
 19355              		.loc 1 499 0
 19356 0002 C0F38050 		ubfx	r0, r0, #22, #1
 19357              	.LVL37:
 19358 0006 7047     		bx	lr
 19359              		.cfi_endproc
 19360              	.LFE40:
 19362              		.section	.text.ADC_DiscModeChannelCountConfig,"ax",%progbits
 19363              		.align	1
 19364              		.global	ADC_DiscModeChannelCountConfig
 19365              		.thumb
 19366              		.thumb_func
 19368              	ADC_DiscModeChannelCountConfig:
 19369              	.LFB41:
 500:../Libraries/STM32F10x_StdPeriph_Driver/src/stm32f10x_adc.c **** 
 501:../Libraries/STM32F10x_StdPeriph_Driver/src/stm32f10x_adc.c **** /**
 502:../Libraries/STM32F10x_StdPeriph_Driver/src/stm32f10x_adc.c ****   * @brief  Configures the discontinuous mode for the selected ADC regular
 503:../Libraries/STM32F10x_StdPeriph_Driver/src/stm32f10x_adc.c ****   *         group channel.
 504:../Libraries/STM32F10x_StdPeriph_Driver/src/stm32f10x_adc.c ****   * @param  ADCx: where x can be 1, 2 or 3 to select the ADC peripheral.
 505:../Libraries/STM32F10x_StdPeriph_Driver/src/stm32f10x_adc.c ****   * @param  Number: specifies the discontinuous mode regular channel
 506:../Libraries/STM32F10x_StdPeriph_Driver/src/stm32f10x_adc.c ****   *         count value. This number must be between 1 and 8.
 507:../Libraries/STM32F10x_StdPeriph_Driver/src/stm32f10x_adc.c ****   * @retval None
 508:../Libraries/STM32F10x_StdPeriph_Driver/src/stm32f10x_adc.c ****   */
 509:../Libraries/STM32F10x_StdPeriph_Driver/src/stm32f10x_adc.c **** void ADC_DiscModeChannelCountConfig(ADC_TypeDef* ADCx, uint8_t Number)
 510:../Libraries/STM32F10x_StdPeriph_Driver/src/stm32f10x_adc.c **** {
 19370              		.loc 1 510 0
 19371              		.cfi_startproc
 19372              		@ args = 0, pretend = 0, frame = 0
 19373              		@ frame_needed = 0, uses_anonymous_args = 0
 19374              		@ link register save eliminated.
 19375              	.LVL38:
 511:../Libraries/STM32F10x_StdPeriph_Driver/src/stm32f10x_adc.c ****   uint32_t tmpreg1 = 0;
 512:../Libraries/STM32F10x_StdPeriph_Driver/src/stm32f10x_adc.c ****   uint32_t tmpreg2 = 0;
 513:../Libraries/STM32F10x_StdPeriph_Driver/src/stm32f10x_adc.c ****   /* Check the parameters */
 514:../Libraries/STM32F10x_StdPeriph_Driver/src/stm32f10x_adc.c ****   assert_param(IS_ADC_ALL_PERIPH(ADCx));
 515:../Libraries/STM32F10x_StdPeriph_Driver/src/stm32f10x_adc.c ****   assert_param(IS_ADC_REGULAR_DISC_NUMBER(Number));
 516:../Libraries/STM32F10x_StdPeriph_Driver/src/stm32f10x_adc.c ****   /* Get the old register value */
 517:../Libraries/STM32F10x_StdPeriph_Driver/src/stm32f10x_adc.c ****   tmpreg1 = ADCx->CR1;
 19376              		.loc 1 517 0
 19377 0000 4368     		ldr	r3, [r0, #4]
 19378              	.LVL39:
 518:../Libraries/STM32F10x_StdPeriph_Driver/src/stm32f10x_adc.c ****   /* Clear the old discontinuous mode channel count */
 519:../Libraries/STM32F10x_StdPeriph_Driver/src/stm32f10x_adc.c ****   tmpreg1 &= CR1_DISCNUM_Reset;
 520:../Libraries/STM32F10x_StdPeriph_Driver/src/stm32f10x_adc.c ****   /* Set the discontinuous mode channel count */
 521:../Libraries/STM32F10x_StdPeriph_Driver/src/stm32f10x_adc.c ****   tmpreg2 = Number - 1;
 19379              		.loc 1 521 0
 19380 0002 0139     		subs	r1, r1, #1
 19381              	.LVL40:
 519:../Libraries/STM32F10x_StdPeriph_Driver/src/stm32f10x_adc.c ****   tmpreg1 &= CR1_DISCNUM_Reset;
 19382              		.loc 1 519 0
 19383 0004 23F46043 		bic	r3, r3, #57344
 19384              	.LVL41:
 522:../Libraries/STM32F10x_StdPeriph_Driver/src/stm32f10x_adc.c ****   tmpreg1 |= tmpreg2 << 13;
 19385              		.loc 1 522 0
 19386 0008 43EA4133 		orr	r3, r3, r1, lsl #13
 19387              	.LVL42:
 523:../Libraries/STM32F10x_StdPeriph_Driver/src/stm32f10x_adc.c ****   /* Store the new register value */
 524:../Libraries/STM32F10x_StdPeriph_Driver/src/stm32f10x_adc.c ****   ADCx->CR1 = tmpreg1;
 19388              		.loc 1 524 0
 19389 000c 4360     		str	r3, [r0, #4]
 525:../Libraries/STM32F10x_StdPeriph_Driver/src/stm32f10x_adc.c **** }
 19390              		.loc 1 525 0
 19391 000e 7047     		bx	lr
 19392              		.cfi_endproc
 19393              	.LFE41:
 19395              		.section	.text.ADC_DiscModeCmd,"ax",%progbits
 19396              		.align	1
 19397              		.global	ADC_DiscModeCmd
 19398              		.thumb
 19399              		.thumb_func
 19401              	ADC_DiscModeCmd:
 19402              	.LFB42:
 526:../Libraries/STM32F10x_StdPeriph_Driver/src/stm32f10x_adc.c **** 
 527:../Libraries/STM32F10x_StdPeriph_Driver/src/stm32f10x_adc.c **** /**
 528:../Libraries/STM32F10x_StdPeriph_Driver/src/stm32f10x_adc.c ****   * @brief  Enables or disables the discontinuous mode on regular group
 529:../Libraries/STM32F10x_StdPeriph_Driver/src/stm32f10x_adc.c ****   *         channel for the specified ADC
 530:../Libraries/STM32F10x_StdPeriph_Driver/src/stm32f10x_adc.c ****   * @param  ADCx: where x can be 1, 2 or 3 to select the ADC peripheral.
 531:../Libraries/STM32F10x_StdPeriph_Driver/src/stm32f10x_adc.c ****   * @param  NewState: new state of the selected ADC discontinuous mode
 532:../Libraries/STM32F10x_StdPeriph_Driver/src/stm32f10x_adc.c ****   *         on regular group channel.
 533:../Libraries/STM32F10x_StdPeriph_Driver/src/stm32f10x_adc.c ****   *         This parameter can be: ENABLE or DISABLE.
 534:../Libraries/STM32F10x_StdPeriph_Driver/src/stm32f10x_adc.c ****   * @retval None
 535:../Libraries/STM32F10x_StdPeriph_Driver/src/stm32f10x_adc.c ****   */
 536:../Libraries/STM32F10x_StdPeriph_Driver/src/stm32f10x_adc.c **** void ADC_DiscModeCmd(ADC_TypeDef* ADCx, FunctionalState NewState)
 537:../Libraries/STM32F10x_StdPeriph_Driver/src/stm32f10x_adc.c **** {
 19403              		.loc 1 537 0
 19404              		.cfi_startproc
 19405              		@ args = 0, pretend = 0, frame = 0
 19406              		@ frame_needed = 0, uses_anonymous_args = 0
 19407              		@ link register save eliminated.
 19408              	.LVL43:
 538:../Libraries/STM32F10x_StdPeriph_Driver/src/stm32f10x_adc.c ****   /* Check the parameters */
 539:../Libraries/STM32F10x_StdPeriph_Driver/src/stm32f10x_adc.c ****   assert_param(IS_ADC_ALL_PERIPH(ADCx));
 540:../Libraries/STM32F10x_StdPeriph_Driver/src/stm32f10x_adc.c ****   assert_param(IS_FUNCTIONAL_STATE(NewState));
 541:../Libraries/STM32F10x_StdPeriph_Driver/src/stm32f10x_adc.c ****   if (NewState != DISABLE)
 19409              		.loc 1 541 0
 19410 0000 19B1     		cbz	r1, .L35
 542:../Libraries/STM32F10x_StdPeriph_Driver/src/stm32f10x_adc.c ****   {
 543:../Libraries/STM32F10x_StdPeriph_Driver/src/stm32f10x_adc.c ****     /* Enable the selected ADC regular discontinuous mode */
 544:../Libraries/STM32F10x_StdPeriph_Driver/src/stm32f10x_adc.c ****     ADCx->CR1 |= CR1_DISCEN_Set;
 19411              		.loc 1 544 0
 19412 0002 4368     		ldr	r3, [r0, #4]
 19413 0004 43F40063 		orr	r3, r3, #2048
 19414 0008 02E0     		b	.L37
 19415              	.L35:
 545:../Libraries/STM32F10x_StdPeriph_Driver/src/stm32f10x_adc.c ****   }
 546:../Libraries/STM32F10x_StdPeriph_Driver/src/stm32f10x_adc.c ****   else
 547:../Libraries/STM32F10x_StdPeriph_Driver/src/stm32f10x_adc.c ****   {
 548:../Libraries/STM32F10x_StdPeriph_Driver/src/stm32f10x_adc.c ****     /* Disable the selected ADC regular discontinuous mode */
 549:../Libraries/STM32F10x_StdPeriph_Driver/src/stm32f10x_adc.c ****     ADCx->CR1 &= CR1_DISCEN_Reset;
 19416              		.loc 1 549 0
 19417 000a 4368     		ldr	r3, [r0, #4]
 19418 000c 23F40063 		bic	r3, r3, #2048
 19419              	.L37:
 19420 0010 4360     		str	r3, [r0, #4]
 19421 0012 7047     		bx	lr
 19422              		.cfi_endproc
 19423              	.LFE42:
 19425              		.section	.text.ADC_RegularChannelConfig,"ax",%progbits
 19426              		.align	1
 19427              		.global	ADC_RegularChannelConfig
 19428              		.thumb
 19429              		.thumb_func
 19431              	ADC_RegularChannelConfig:
 19432              	.LFB43:
 550:../Libraries/STM32F10x_StdPeriph_Driver/src/stm32f10x_adc.c ****   }
 551:../Libraries/STM32F10x_StdPeriph_Driver/src/stm32f10x_adc.c **** }
 552:../Libraries/STM32F10x_StdPeriph_Driver/src/stm32f10x_adc.c **** 
 553:../Libraries/STM32F10x_StdPeriph_Driver/src/stm32f10x_adc.c **** /**
 554:../Libraries/STM32F10x_StdPeriph_Driver/src/stm32f10x_adc.c ****   * @brief  Configures for the selected ADC regular channel its corresponding
 555:../Libraries/STM32F10x_StdPeriph_Driver/src/stm32f10x_adc.c ****   *         rank in the sequencer and its sample time.
 556:../Libraries/STM32F10x_StdPeriph_Driver/src/stm32f10x_adc.c ****   * @param  ADCx: where x can be 1, 2 or 3 to select the ADC peripheral.
 557:../Libraries/STM32F10x_StdPeriph_Driver/src/stm32f10x_adc.c ****   * @param  ADC_Channel: the ADC channel to configure. 
 558:../Libraries/STM32F10x_StdPeriph_Driver/src/stm32f10x_adc.c ****   *   This parameter can be one of the following values:
 559:../Libraries/STM32F10x_StdPeriph_Driver/src/stm32f10x_adc.c ****   *     @arg ADC_Channel_0: ADC Channel0 selected
 560:../Libraries/STM32F10x_StdPeriph_Driver/src/stm32f10x_adc.c ****   *     @arg ADC_Channel_1: ADC Channel1 selected
 561:../Libraries/STM32F10x_StdPeriph_Driver/src/stm32f10x_adc.c ****   *     @arg ADC_Channel_2: ADC Channel2 selected
 562:../Libraries/STM32F10x_StdPeriph_Driver/src/stm32f10x_adc.c ****   *     @arg ADC_Channel_3: ADC Channel3 selected
 563:../Libraries/STM32F10x_StdPeriph_Driver/src/stm32f10x_adc.c ****   *     @arg ADC_Channel_4: ADC Channel4 selected
 564:../Libraries/STM32F10x_StdPeriph_Driver/src/stm32f10x_adc.c ****   *     @arg ADC_Channel_5: ADC Channel5 selected
 565:../Libraries/STM32F10x_StdPeriph_Driver/src/stm32f10x_adc.c ****   *     @arg ADC_Channel_6: ADC Channel6 selected
 566:../Libraries/STM32F10x_StdPeriph_Driver/src/stm32f10x_adc.c ****   *     @arg ADC_Channel_7: ADC Channel7 selected
 567:../Libraries/STM32F10x_StdPeriph_Driver/src/stm32f10x_adc.c ****   *     @arg ADC_Channel_8: ADC Channel8 selected
 568:../Libraries/STM32F10x_StdPeriph_Driver/src/stm32f10x_adc.c ****   *     @arg ADC_Channel_9: ADC Channel9 selected
 569:../Libraries/STM32F10x_StdPeriph_Driver/src/stm32f10x_adc.c ****   *     @arg ADC_Channel_10: ADC Channel10 selected
 570:../Libraries/STM32F10x_StdPeriph_Driver/src/stm32f10x_adc.c ****   *     @arg ADC_Channel_11: ADC Channel11 selected
 571:../Libraries/STM32F10x_StdPeriph_Driver/src/stm32f10x_adc.c ****   *     @arg ADC_Channel_12: ADC Channel12 selected
 572:../Libraries/STM32F10x_StdPeriph_Driver/src/stm32f10x_adc.c ****   *     @arg ADC_Channel_13: ADC Channel13 selected
 573:../Libraries/STM32F10x_StdPeriph_Driver/src/stm32f10x_adc.c ****   *     @arg ADC_Channel_14: ADC Channel14 selected
 574:../Libraries/STM32F10x_StdPeriph_Driver/src/stm32f10x_adc.c ****   *     @arg ADC_Channel_15: ADC Channel15 selected
 575:../Libraries/STM32F10x_StdPeriph_Driver/src/stm32f10x_adc.c ****   *     @arg ADC_Channel_16: ADC Channel16 selected
 576:../Libraries/STM32F10x_StdPeriph_Driver/src/stm32f10x_adc.c ****   *     @arg ADC_Channel_17: ADC Channel17 selected
 577:../Libraries/STM32F10x_StdPeriph_Driver/src/stm32f10x_adc.c ****   * @param  Rank: The rank in the regular group sequencer. This parameter must be between 1 to 16.
 578:../Libraries/STM32F10x_StdPeriph_Driver/src/stm32f10x_adc.c ****   * @param  ADC_SampleTime: The sample time value to be set for the selected channel. 
 579:../Libraries/STM32F10x_StdPeriph_Driver/src/stm32f10x_adc.c ****   *   This parameter can be one of the following values:
 580:../Libraries/STM32F10x_StdPeriph_Driver/src/stm32f10x_adc.c ****   *     @arg ADC_SampleTime_1Cycles5: Sample time equal to 1.5 cycles
 581:../Libraries/STM32F10x_StdPeriph_Driver/src/stm32f10x_adc.c ****   *     @arg ADC_SampleTime_7Cycles5: Sample time equal to 7.5 cycles
 582:../Libraries/STM32F10x_StdPeriph_Driver/src/stm32f10x_adc.c ****   *     @arg ADC_SampleTime_13Cycles5: Sample time equal to 13.5 cycles
 583:../Libraries/STM32F10x_StdPeriph_Driver/src/stm32f10x_adc.c ****   *     @arg ADC_SampleTime_28Cycles5: Sample time equal to 28.5 cycles	
 584:../Libraries/STM32F10x_StdPeriph_Driver/src/stm32f10x_adc.c ****   *     @arg ADC_SampleTime_41Cycles5: Sample time equal to 41.5 cycles	
 585:../Libraries/STM32F10x_StdPeriph_Driver/src/stm32f10x_adc.c ****   *     @arg ADC_SampleTime_55Cycles5: Sample time equal to 55.5 cycles	
 586:../Libraries/STM32F10x_StdPeriph_Driver/src/stm32f10x_adc.c ****   *     @arg ADC_SampleTime_71Cycles5: Sample time equal to 71.5 cycles	
 587:../Libraries/STM32F10x_StdPeriph_Driver/src/stm32f10x_adc.c ****   *     @arg ADC_SampleTime_239Cycles5: Sample time equal to 239.5 cycles	
 588:../Libraries/STM32F10x_StdPeriph_Driver/src/stm32f10x_adc.c ****   * @retval None
 589:../Libraries/STM32F10x_StdPeriph_Driver/src/stm32f10x_adc.c ****   */
 590:../Libraries/STM32F10x_StdPeriph_Driver/src/stm32f10x_adc.c **** void ADC_RegularChannelConfig(ADC_TypeDef* ADCx, uint8_t ADC_Channel, uint8_t Rank, uint8_t ADC_Sam
 591:../Libraries/STM32F10x_StdPeriph_Driver/src/stm32f10x_adc.c **** {
 19433              		.loc 1 591 0
 19434              		.cfi_startproc
 19435              		@ args = 0, pretend = 0, frame = 0
 19436              		@ frame_needed = 0, uses_anonymous_args = 0
 19437              	.LVL44:
 592:../Libraries/STM32F10x_StdPeriph_Driver/src/stm32f10x_adc.c ****   uint32_t tmpreg1 = 0, tmpreg2 = 0;
 593:../Libraries/STM32F10x_StdPeriph_Driver/src/stm32f10x_adc.c ****   /* Check the parameters */
 594:../Libraries/STM32F10x_StdPeriph_Driver/src/stm32f10x_adc.c ****   assert_param(IS_ADC_ALL_PERIPH(ADCx));
 595:../Libraries/STM32F10x_StdPeriph_Driver/src/stm32f10x_adc.c ****   assert_param(IS_ADC_CHANNEL(ADC_Channel));
 596:../Libraries/STM32F10x_StdPeriph_Driver/src/stm32f10x_adc.c ****   assert_param(IS_ADC_REGULAR_RANK(Rank));
 597:../Libraries/STM32F10x_StdPeriph_Driver/src/stm32f10x_adc.c ****   assert_param(IS_ADC_SAMPLE_TIME(ADC_SampleTime));
 598:../Libraries/STM32F10x_StdPeriph_Driver/src/stm32f10x_adc.c ****   /* if ADC_Channel_10 ... ADC_Channel_17 is selected */
 599:../Libraries/STM32F10x_StdPeriph_Driver/src/stm32f10x_adc.c ****   if (ADC_Channel > ADC_Channel_9)
 19438              		.loc 1 599 0
 19439 0000 0929     		cmp	r1, #9
 591:../Libraries/STM32F10x_StdPeriph_Driver/src/stm32f10x_adc.c **** {
 19440              		.loc 1 591 0
 19441 0002 70B5     		push	{r4, r5, r6, lr}
 19442              	.LCFI2:
 19443              		.cfi_def_cfa_offset 16
 19444 0004 4FEA4104 		lsl	r4, r1, #1
 19445              		.cfi_offset 14, -4
 19446              		.cfi_offset 6, -8
 19447              		.cfi_offset 5, -12
 19448              		.cfi_offset 4, -16
 19449              		.loc 1 599 0
 19450 0008 0BD9     		bls	.L39
 600:../Libraries/STM32F10x_StdPeriph_Driver/src/stm32f10x_adc.c ****   {
 601:../Libraries/STM32F10x_StdPeriph_Driver/src/stm32f10x_adc.c ****     /* Get the old register value */
 602:../Libraries/STM32F10x_StdPeriph_Driver/src/stm32f10x_adc.c ****     tmpreg1 = ADCx->SMPR1;
 603:../Libraries/STM32F10x_StdPeriph_Driver/src/stm32f10x_adc.c ****     /* Calculate the mask to clear */
 604:../Libraries/STM32F10x_StdPeriph_Driver/src/stm32f10x_adc.c ****     tmpreg2 = SMPR1_SMP_Set << (3 * (ADC_Channel - 10));
 19451              		.loc 1 604 0
 19452 000a 6418     		adds	r4, r4, r1
 19453 000c 1E3C     		subs	r4, r4, #30
 19454 000e 0725     		movs	r5, #7
 19455 0010 A540     		lsls	r5, r5, r4
 605:../Libraries/STM32F10x_StdPeriph_Driver/src/stm32f10x_adc.c ****     /* Clear the old channel sample time */
 606:../Libraries/STM32F10x_StdPeriph_Driver/src/stm32f10x_adc.c ****     tmpreg1 &= ~tmpreg2;
 607:../Libraries/STM32F10x_StdPeriph_Driver/src/stm32f10x_adc.c ****     /* Calculate the mask to set */
 608:../Libraries/STM32F10x_StdPeriph_Driver/src/stm32f10x_adc.c ****     tmpreg2 = (uint32_t)ADC_SampleTime << (3 * (ADC_Channel - 10));
 19456              		.loc 1 608 0
 19457 0012 A340     		lsls	r3, r3, r4
 19458              	.LVL45:
 602:../Libraries/STM32F10x_StdPeriph_Driver/src/stm32f10x_adc.c ****     tmpreg1 = ADCx->SMPR1;
 19459              		.loc 1 602 0
 19460 0014 C668     		ldr	r6, [r0, #12]
 19461              	.LVL46:
 606:../Libraries/STM32F10x_StdPeriph_Driver/src/stm32f10x_adc.c ****     tmpreg1 &= ~tmpreg2;
 19462              		.loc 1 606 0
 19463 0016 26EA0505 		bic	r5, r6, r5
 19464              	.LVL47:
 609:../Libraries/STM32F10x_StdPeriph_Driver/src/stm32f10x_adc.c ****     /* Set the new channel sample time */
 610:../Libraries/STM32F10x_StdPeriph_Driver/src/stm32f10x_adc.c ****     tmpreg1 |= tmpreg2;
 19465              		.loc 1 610 0
 19466 001a 45EA0304 		orr	r4, r5, r3
 19467              	.LVL48:
 611:../Libraries/STM32F10x_StdPeriph_Driver/src/stm32f10x_adc.c ****     /* Store the new register value */
 612:../Libraries/STM32F10x_StdPeriph_Driver/src/stm32f10x_adc.c ****     ADCx->SMPR1 = tmpreg1;
 19468              		.loc 1 612 0
 19469 001e C460     		str	r4, [r0, #12]
 19470 0020 0AE0     		b	.L40
 19471              	.LVL49:
 19472              	.L39:
 613:../Libraries/STM32F10x_StdPeriph_Driver/src/stm32f10x_adc.c ****   }
 614:../Libraries/STM32F10x_StdPeriph_Driver/src/stm32f10x_adc.c ****   else /* ADC_Channel include in ADC_Channel_[0..9] */
 615:../Libraries/STM32F10x_StdPeriph_Driver/src/stm32f10x_adc.c ****   {
 616:../Libraries/STM32F10x_StdPeriph_Driver/src/stm32f10x_adc.c ****     /* Get the old register value */
 617:../Libraries/STM32F10x_StdPeriph_Driver/src/stm32f10x_adc.c ****     tmpreg1 = ADCx->SMPR2;
 618:../Libraries/STM32F10x_StdPeriph_Driver/src/stm32f10x_adc.c ****     /* Calculate the mask to clear */
 619:../Libraries/STM32F10x_StdPeriph_Driver/src/stm32f10x_adc.c ****     tmpreg2 = SMPR2_SMP_Set << (3 * ADC_Channel);
 19473              		.loc 1 619 0
 19474 0022 6418     		adds	r4, r4, r1
 19475 0024 0725     		movs	r5, #7
 19476 0026 A540     		lsls	r5, r5, r4
 620:../Libraries/STM32F10x_StdPeriph_Driver/src/stm32f10x_adc.c ****     /* Clear the old channel sample time */
 621:../Libraries/STM32F10x_StdPeriph_Driver/src/stm32f10x_adc.c ****     tmpreg1 &= ~tmpreg2;
 622:../Libraries/STM32F10x_StdPeriph_Driver/src/stm32f10x_adc.c ****     /* Calculate the mask to set */
 623:../Libraries/STM32F10x_StdPeriph_Driver/src/stm32f10x_adc.c ****     tmpreg2 = (uint32_t)ADC_SampleTime << (3 * ADC_Channel);
 19477              		.loc 1 623 0
 19478 0028 13FA04F4 		lsls	r4, r3, r4
 617:../Libraries/STM32F10x_StdPeriph_Driver/src/stm32f10x_adc.c ****     tmpreg1 = ADCx->SMPR2;
 19479              		.loc 1 617 0
 19480 002c 0669     		ldr	r6, [r0, #16]
 19481              	.LVL50:
 621:../Libraries/STM32F10x_StdPeriph_Driver/src/stm32f10x_adc.c ****     tmpreg1 &= ~tmpreg2;
 19482              		.loc 1 621 0
 19483 002e 26EA0505 		bic	r5, r6, r5
 19484              	.LVL51:
 624:../Libraries/STM32F10x_StdPeriph_Driver/src/stm32f10x_adc.c ****     /* Set the new channel sample time */
 625:../Libraries/STM32F10x_StdPeriph_Driver/src/stm32f10x_adc.c ****     tmpreg1 |= tmpreg2;
 19485              		.loc 1 625 0
 19486 0032 45EA0403 		orr	r3, r5, r4
 19487              	.LVL52:
 626:../Libraries/STM32F10x_StdPeriph_Driver/src/stm32f10x_adc.c ****     /* Store the new register value */
 627:../Libraries/STM32F10x_StdPeriph_Driver/src/stm32f10x_adc.c ****     ADCx->SMPR2 = tmpreg1;
 19488              		.loc 1 627 0
 19489 0036 0361     		str	r3, [r0, #16]
 19490              	.LVL53:
 19491              	.L40:
 628:../Libraries/STM32F10x_StdPeriph_Driver/src/stm32f10x_adc.c ****   }
 629:../Libraries/STM32F10x_StdPeriph_Driver/src/stm32f10x_adc.c ****   /* For Rank 1 to 6 */
 630:../Libraries/STM32F10x_StdPeriph_Driver/src/stm32f10x_adc.c ****   if (Rank < 7)
 19492              		.loc 1 630 0
 19493 0038 062A     		cmp	r2, #6
 19494 003a 0CD8     		bhi	.L41
 631:../Libraries/STM32F10x_StdPeriph_Driver/src/stm32f10x_adc.c ****   {
 632:../Libraries/STM32F10x_StdPeriph_Driver/src/stm32f10x_adc.c ****     /* Get the old register value */
 633:../Libraries/STM32F10x_StdPeriph_Driver/src/stm32f10x_adc.c ****     tmpreg1 = ADCx->SQR3;
 634:../Libraries/STM32F10x_StdPeriph_Driver/src/stm32f10x_adc.c ****     /* Calculate the mask to clear */
 635:../Libraries/STM32F10x_StdPeriph_Driver/src/stm32f10x_adc.c ****     tmpreg2 = SQR3_SQ_Set << (5 * (Rank - 1));
 19495              		.loc 1 635 0
 19496 003c 013A     		subs	r2, r2, #1
 19497              	.LVL54:
 19498 003e 02EB8202 		add	r2, r2, r2, lsl #2
 19499 0042 1F23     		movs	r3, #31
 19500 0044 9340     		lsls	r3, r3, r2
 636:../Libraries/STM32F10x_StdPeriph_Driver/src/stm32f10x_adc.c ****     /* Clear the old SQx bits for the selected rank */
 637:../Libraries/STM32F10x_StdPeriph_Driver/src/stm32f10x_adc.c ****     tmpreg1 &= ~tmpreg2;
 638:../Libraries/STM32F10x_StdPeriph_Driver/src/stm32f10x_adc.c ****     /* Calculate the mask to set */
 639:../Libraries/STM32F10x_StdPeriph_Driver/src/stm32f10x_adc.c ****     tmpreg2 = (uint32_t)ADC_Channel << (5 * (Rank - 1));
 19501              		.loc 1 639 0
 19502 0046 9140     		lsls	r1, r1, r2
 19503              	.LVL55:
 633:../Libraries/STM32F10x_StdPeriph_Driver/src/stm32f10x_adc.c ****     tmpreg1 = ADCx->SQR3;
 19504              		.loc 1 633 0
 19505 0048 446B     		ldr	r4, [r0, #52]
 19506              	.LVL56:
 637:../Libraries/STM32F10x_StdPeriph_Driver/src/stm32f10x_adc.c ****     tmpreg1 &= ~tmpreg2;
 19507              		.loc 1 637 0
 19508 004a 24EA0303 		bic	r3, r4, r3
 19509              	.LVL57:
 640:../Libraries/STM32F10x_StdPeriph_Driver/src/stm32f10x_adc.c ****     /* Set the SQx bits for the selected rank */
 641:../Libraries/STM32F10x_StdPeriph_Driver/src/stm32f10x_adc.c ****     tmpreg1 |= tmpreg2;
 19510              		.loc 1 641 0
 19511 004e 43EA0102 		orr	r2, r3, r1
 19512              	.LVL58:
 642:../Libraries/STM32F10x_StdPeriph_Driver/src/stm32f10x_adc.c ****     /* Store the new register value */
 643:../Libraries/STM32F10x_StdPeriph_Driver/src/stm32f10x_adc.c ****     ADCx->SQR3 = tmpreg1;
 19513              		.loc 1 643 0
 19514 0052 4263     		str	r2, [r0, #52]
 19515 0054 70BD     		pop	{r4, r5, r6, pc}
 19516              	.LVL59:
 19517              	.L41:
 644:../Libraries/STM32F10x_StdPeriph_Driver/src/stm32f10x_adc.c ****   }
 645:../Libraries/STM32F10x_StdPeriph_Driver/src/stm32f10x_adc.c ****   /* For Rank 7 to 12 */
 646:../Libraries/STM32F10x_StdPeriph_Driver/src/stm32f10x_adc.c ****   else if (Rank < 13)
 19518              		.loc 1 646 0
 19519 0056 0C2A     		cmp	r2, #12
 19520 0058 4FEA8203 		lsl	r3, r2, #2
 19521 005c 0BD8     		bhi	.L43
 647:../Libraries/STM32F10x_StdPeriph_Driver/src/stm32f10x_adc.c ****   {
 648:../Libraries/STM32F10x_StdPeriph_Driver/src/stm32f10x_adc.c ****     /* Get the old register value */
 649:../Libraries/STM32F10x_StdPeriph_Driver/src/stm32f10x_adc.c ****     tmpreg1 = ADCx->SQR2;
 650:../Libraries/STM32F10x_StdPeriph_Driver/src/stm32f10x_adc.c ****     /* Calculate the mask to clear */
 651:../Libraries/STM32F10x_StdPeriph_Driver/src/stm32f10x_adc.c ****     tmpreg2 = SQR2_SQ_Set << (5 * (Rank - 7));
 19522              		.loc 1 651 0
 19523 005e 9A18     		adds	r2, r3, r2
 19524              	.LVL60:
 19525 0060 233A     		subs	r2, r2, #35
 19526 0062 1F23     		movs	r3, #31
 19527 0064 9340     		lsls	r3, r3, r2
 652:../Libraries/STM32F10x_StdPeriph_Driver/src/stm32f10x_adc.c ****     /* Clear the old SQx bits for the selected rank */
 653:../Libraries/STM32F10x_StdPeriph_Driver/src/stm32f10x_adc.c ****     tmpreg1 &= ~tmpreg2;
 654:../Libraries/STM32F10x_StdPeriph_Driver/src/stm32f10x_adc.c ****     /* Calculate the mask to set */
 655:../Libraries/STM32F10x_StdPeriph_Driver/src/stm32f10x_adc.c ****     tmpreg2 = (uint32_t)ADC_Channel << (5 * (Rank - 7));
 19528              		.loc 1 655 0
 19529 0066 9140     		lsls	r1, r1, r2
 19530              	.LVL61:
 649:../Libraries/STM32F10x_StdPeriph_Driver/src/stm32f10x_adc.c ****     tmpreg1 = ADCx->SQR2;
 19531              		.loc 1 649 0
 19532 0068 046B     		ldr	r4, [r0, #48]
 19533              	.LVL62:
 653:../Libraries/STM32F10x_StdPeriph_Driver/src/stm32f10x_adc.c ****     tmpreg1 &= ~tmpreg2;
 19534              		.loc 1 653 0
 19535 006a 24EA0303 		bic	r3, r4, r3
 19536              	.LVL63:
 656:../Libraries/STM32F10x_StdPeriph_Driver/src/stm32f10x_adc.c ****     /* Set the SQx bits for the selected rank */
 657:../Libraries/STM32F10x_StdPeriph_Driver/src/stm32f10x_adc.c ****     tmpreg1 |= tmpreg2;
 19537              		.loc 1 657 0
 19538 006e 43EA0102 		orr	r2, r3, r1
 19539              	.LVL64:
 658:../Libraries/STM32F10x_StdPeriph_Driver/src/stm32f10x_adc.c ****     /* Store the new register value */
 659:../Libraries/STM32F10x_StdPeriph_Driver/src/stm32f10x_adc.c ****     ADCx->SQR2 = tmpreg1;
 19540              		.loc 1 659 0
 19541 0072 0263     		str	r2, [r0, #48]
 19542 0074 70BD     		pop	{r4, r5, r6, pc}
 19543              	.LVL65:
 19544              	.L43:
 660:../Libraries/STM32F10x_StdPeriph_Driver/src/stm32f10x_adc.c ****   }
 661:../Libraries/STM32F10x_StdPeriph_Driver/src/stm32f10x_adc.c ****   /* For Rank 13 to 16 */
 662:../Libraries/STM32F10x_StdPeriph_Driver/src/stm32f10x_adc.c ****   else
 663:../Libraries/STM32F10x_StdPeriph_Driver/src/stm32f10x_adc.c ****   {
 664:../Libraries/STM32F10x_StdPeriph_Driver/src/stm32f10x_adc.c ****     /* Get the old register value */
 665:../Libraries/STM32F10x_StdPeriph_Driver/src/stm32f10x_adc.c ****     tmpreg1 = ADCx->SQR1;
 666:../Libraries/STM32F10x_StdPeriph_Driver/src/stm32f10x_adc.c ****     /* Calculate the mask to clear */
 667:../Libraries/STM32F10x_StdPeriph_Driver/src/stm32f10x_adc.c ****     tmpreg2 = SQR1_SQ_Set << (5 * (Rank - 13));
 19545              		.loc 1 667 0
 19546 0076 9A18     		adds	r2, r3, r2
 19547              	.LVL66:
 19548 0078 413A     		subs	r2, r2, #65
 19549 007a 1F23     		movs	r3, #31
 19550 007c 9340     		lsls	r3, r3, r2
 668:../Libraries/STM32F10x_StdPeriph_Driver/src/stm32f10x_adc.c ****     /* Clear the old SQx bits for the selected rank */
 669:../Libraries/STM32F10x_StdPeriph_Driver/src/stm32f10x_adc.c ****     tmpreg1 &= ~tmpreg2;
 670:../Libraries/STM32F10x_StdPeriph_Driver/src/stm32f10x_adc.c ****     /* Calculate the mask to set */
 671:../Libraries/STM32F10x_StdPeriph_Driver/src/stm32f10x_adc.c ****     tmpreg2 = (uint32_t)ADC_Channel << (5 * (Rank - 13));
 19551              		.loc 1 671 0
 19552 007e 9140     		lsls	r1, r1, r2
 19553              	.LVL67:
 665:../Libraries/STM32F10x_StdPeriph_Driver/src/stm32f10x_adc.c ****     tmpreg1 = ADCx->SQR1;
 19554              		.loc 1 665 0
 19555 0080 C46A     		ldr	r4, [r0, #44]
 19556              	.LVL68:
 669:../Libraries/STM32F10x_StdPeriph_Driver/src/stm32f10x_adc.c ****     tmpreg1 &= ~tmpreg2;
 19557              		.loc 1 669 0
 19558 0082 24EA0303 		bic	r3, r4, r3
 19559              	.LVL69:
 672:../Libraries/STM32F10x_StdPeriph_Driver/src/stm32f10x_adc.c ****     /* Set the SQx bits for the selected rank */
 673:../Libraries/STM32F10x_StdPeriph_Driver/src/stm32f10x_adc.c ****     tmpreg1 |= tmpreg2;
 19560              		.loc 1 673 0
 19561 0086 43EA0102 		orr	r2, r3, r1
 19562              	.LVL70:
 674:../Libraries/STM32F10x_StdPeriph_Driver/src/stm32f10x_adc.c ****     /* Store the new register value */
 675:../Libraries/STM32F10x_StdPeriph_Driver/src/stm32f10x_adc.c ****     ADCx->SQR1 = tmpreg1;
 19563              		.loc 1 675 0
 19564 008a C262     		str	r2, [r0, #44]
 19565 008c 70BD     		pop	{r4, r5, r6, pc}
 19566              		.cfi_endproc
 19567              	.LFE43:
 19569              		.section	.text.ADC_ExternalTrigConvCmd,"ax",%progbits
 19570              		.align	1
 19571              		.global	ADC_ExternalTrigConvCmd
 19572              		.thumb
 19573              		.thumb_func
 19575              	ADC_ExternalTrigConvCmd:
 19576              	.LFB44:
 676:../Libraries/STM32F10x_StdPeriph_Driver/src/stm32f10x_adc.c ****   }
 677:../Libraries/STM32F10x_StdPeriph_Driver/src/stm32f10x_adc.c **** }
 678:../Libraries/STM32F10x_StdPeriph_Driver/src/stm32f10x_adc.c **** 
 679:../Libraries/STM32F10x_StdPeriph_Driver/src/stm32f10x_adc.c **** /**
 680:../Libraries/STM32F10x_StdPeriph_Driver/src/stm32f10x_adc.c ****   * @brief  Enables or disables the ADCx conversion through external trigger.
 681:../Libraries/STM32F10x_StdPeriph_Driver/src/stm32f10x_adc.c ****   * @param  ADCx: where x can be 1, 2 or 3 to select the ADC peripheral.
 682:../Libraries/STM32F10x_StdPeriph_Driver/src/stm32f10x_adc.c ****   * @param  NewState: new state of the selected ADC external trigger start of conversion.
 683:../Libraries/STM32F10x_StdPeriph_Driver/src/stm32f10x_adc.c ****   *   This parameter can be: ENABLE or DISABLE.
 684:../Libraries/STM32F10x_StdPeriph_Driver/src/stm32f10x_adc.c ****   * @retval None
 685:../Libraries/STM32F10x_StdPeriph_Driver/src/stm32f10x_adc.c ****   */
 686:../Libraries/STM32F10x_StdPeriph_Driver/src/stm32f10x_adc.c **** void ADC_ExternalTrigConvCmd(ADC_TypeDef* ADCx, FunctionalState NewState)
 687:../Libraries/STM32F10x_StdPeriph_Driver/src/stm32f10x_adc.c **** {
 19577              		.loc 1 687 0
 19578              		.cfi_startproc
 19579              		@ args = 0, pretend = 0, frame = 0
 19580              		@ frame_needed = 0, uses_anonymous_args = 0
 19581              		@ link register save eliminated.
 19582              	.LVL71:
 688:../Libraries/STM32F10x_StdPeriph_Driver/src/stm32f10x_adc.c ****   /* Check the parameters */
 689:../Libraries/STM32F10x_StdPeriph_Driver/src/stm32f10x_adc.c ****   assert_param(IS_ADC_ALL_PERIPH(ADCx));
 690:../Libraries/STM32F10x_StdPeriph_Driver/src/stm32f10x_adc.c ****   assert_param(IS_FUNCTIONAL_STATE(NewState));
 691:../Libraries/STM32F10x_StdPeriph_Driver/src/stm32f10x_adc.c ****   if (NewState != DISABLE)
 19583              		.loc 1 691 0
 19584 0000 19B1     		cbz	r1, .L45
 692:../Libraries/STM32F10x_StdPeriph_Driver/src/stm32f10x_adc.c ****   {
 693:../Libraries/STM32F10x_StdPeriph_Driver/src/stm32f10x_adc.c ****     /* Enable the selected ADC conversion on external event */
 694:../Libraries/STM32F10x_StdPeriph_Driver/src/stm32f10x_adc.c ****     ADCx->CR2 |= CR2_EXTTRIG_Set;
 19585              		.loc 1 694 0
 19586 0002 8368     		ldr	r3, [r0, #8]
 19587 0004 43F48013 		orr	r3, r3, #1048576
 19588 0008 02E0     		b	.L47
 19589              	.L45:
 695:../Libraries/STM32F10x_StdPeriph_Driver/src/stm32f10x_adc.c ****   }
 696:../Libraries/STM32F10x_StdPeriph_Driver/src/stm32f10x_adc.c ****   else
 697:../Libraries/STM32F10x_StdPeriph_Driver/src/stm32f10x_adc.c ****   {
 698:../Libraries/STM32F10x_StdPeriph_Driver/src/stm32f10x_adc.c ****     /* Disable the selected ADC conversion on external event */
 699:../Libraries/STM32F10x_StdPeriph_Driver/src/stm32f10x_adc.c ****     ADCx->CR2 &= CR2_EXTTRIG_Reset;
 19590              		.loc 1 699 0
 19591 000a 8368     		ldr	r3, [r0, #8]
 19592 000c 23F48013 		bic	r3, r3, #1048576
 19593              	.L47:
 19594 0010 8360     		str	r3, [r0, #8]
 19595 0012 7047     		bx	lr
 19596              		.cfi_endproc
 19597              	.LFE44:
 19599              		.section	.text.ADC_GetConversionValue,"ax",%progbits
 19600              		.align	1
 19601              		.global	ADC_GetConversionValue
 19602              		.thumb
 19603              		.thumb_func
 19605              	ADC_GetConversionValue:
 19606              	.LFB45:
 700:../Libraries/STM32F10x_StdPeriph_Driver/src/stm32f10x_adc.c ****   }
 701:../Libraries/STM32F10x_StdPeriph_Driver/src/stm32f10x_adc.c **** }
 702:../Libraries/STM32F10x_StdPeriph_Driver/src/stm32f10x_adc.c **** 
 703:../Libraries/STM32F10x_StdPeriph_Driver/src/stm32f10x_adc.c **** /**
 704:../Libraries/STM32F10x_StdPeriph_Driver/src/stm32f10x_adc.c ****   * @brief  Returns the last ADCx conversion result data for regular channel.
 705:../Libraries/STM32F10x_StdPeriph_Driver/src/stm32f10x_adc.c ****   * @param  ADCx: where x can be 1, 2 or 3 to select the ADC peripheral.
 706:../Libraries/STM32F10x_StdPeriph_Driver/src/stm32f10x_adc.c ****   * @retval The Data conversion value.
 707:../Libraries/STM32F10x_StdPeriph_Driver/src/stm32f10x_adc.c ****   */
 708:../Libraries/STM32F10x_StdPeriph_Driver/src/stm32f10x_adc.c **** uint16_t ADC_GetConversionValue(ADC_TypeDef* ADCx)
 709:../Libraries/STM32F10x_StdPeriph_Driver/src/stm32f10x_adc.c **** {
 19607              		.loc 1 709 0
 19608              		.cfi_startproc
 19609              		@ args = 0, pretend = 0, frame = 0
 19610              		@ frame_needed = 0, uses_anonymous_args = 0
 19611              		@ link register save eliminated.
 19612              	.LVL72:
 710:../Libraries/STM32F10x_StdPeriph_Driver/src/stm32f10x_adc.c ****   /* Check the parameters */
 711:../Libraries/STM32F10x_StdPeriph_Driver/src/stm32f10x_adc.c ****   assert_param(IS_ADC_ALL_PERIPH(ADCx));
 712:../Libraries/STM32F10x_StdPeriph_Driver/src/stm32f10x_adc.c ****   /* Return the selected ADC conversion value */
 713:../Libraries/STM32F10x_StdPeriph_Driver/src/stm32f10x_adc.c ****   return (uint16_t) ADCx->DR;
 19613              		.loc 1 713 0
 19614 0000 C06C     		ldr	r0, [r0, #76]
 19615              	.LVL73:
 714:../Libraries/STM32F10x_StdPeriph_Driver/src/stm32f10x_adc.c **** }
 19616              		.loc 1 714 0
 19617 0002 80B2     		uxth	r0, r0
 19618 0004 7047     		bx	lr
 19619              		.cfi_endproc
 19620              	.LFE45:
 19622              		.section	.text.ADC_GetDualModeConversionValue,"ax",%progbits
 19623              		.align	1
 19624              		.global	ADC_GetDualModeConversionValue
 19625              		.thumb
 19626              		.thumb_func
 19628              	ADC_GetDualModeConversionValue:
 19629              	.LFB46:
 715:../Libraries/STM32F10x_StdPeriph_Driver/src/stm32f10x_adc.c **** 
 716:../Libraries/STM32F10x_StdPeriph_Driver/src/stm32f10x_adc.c **** /**
 717:../Libraries/STM32F10x_StdPeriph_Driver/src/stm32f10x_adc.c ****   * @brief  Returns the last ADC1 and ADC2 conversion result data in dual mode.
 718:../Libraries/STM32F10x_StdPeriph_Driver/src/stm32f10x_adc.c ****   * @retval The Data conversion value.
 719:../Libraries/STM32F10x_StdPeriph_Driver/src/stm32f10x_adc.c ****   */
 720:../Libraries/STM32F10x_StdPeriph_Driver/src/stm32f10x_adc.c **** uint32_t ADC_GetDualModeConversionValue(void)
 721:../Libraries/STM32F10x_StdPeriph_Driver/src/stm32f10x_adc.c **** {
 19630              		.loc 1 721 0
 19631              		.cfi_startproc
 19632              		@ args = 0, pretend = 0, frame = 0
 19633              		@ frame_needed = 0, uses_anonymous_args = 0
 19634              		@ link register save eliminated.
 722:../Libraries/STM32F10x_StdPeriph_Driver/src/stm32f10x_adc.c ****   /* Return the dual mode conversion value */
 723:../Libraries/STM32F10x_StdPeriph_Driver/src/stm32f10x_adc.c ****   return (*(__IO uint32_t *) DR_ADDRESS);
 19635              		.loc 1 723 0
 19636 0000 014B     		ldr	r3, .L50
 19637 0002 1868     		ldr	r0, [r3, #0]
 724:../Libraries/STM32F10x_StdPeriph_Driver/src/stm32f10x_adc.c **** }
 19638              		.loc 1 724 0
 19639 0004 7047     		bx	lr
 19640              	.L51:
 19641 0006 00BF     		.align	2
 19642              	.L50:
 19643 0008 4C240140 		.word	1073816652
 19644              		.cfi_endproc
 19645              	.LFE46:
 19647              		.section	.text.ADC_AutoInjectedConvCmd,"ax",%progbits
 19648              		.align	1
 19649              		.global	ADC_AutoInjectedConvCmd
 19650              		.thumb
 19651              		.thumb_func
 19653              	ADC_AutoInjectedConvCmd:
 19654              	.LFB47:
 725:../Libraries/STM32F10x_StdPeriph_Driver/src/stm32f10x_adc.c **** 
 726:../Libraries/STM32F10x_StdPeriph_Driver/src/stm32f10x_adc.c **** /**
 727:../Libraries/STM32F10x_StdPeriph_Driver/src/stm32f10x_adc.c ****   * @brief  Enables or disables the selected ADC automatic injected group
 728:../Libraries/STM32F10x_StdPeriph_Driver/src/stm32f10x_adc.c ****   *         conversion after regular one.
 729:../Libraries/STM32F10x_StdPeriph_Driver/src/stm32f10x_adc.c ****   * @param  ADCx: where x can be 1, 2 or 3 to select the ADC peripheral.
 730:../Libraries/STM32F10x_StdPeriph_Driver/src/stm32f10x_adc.c ****   * @param  NewState: new state of the selected ADC auto injected conversion
 731:../Libraries/STM32F10x_StdPeriph_Driver/src/stm32f10x_adc.c ****   *   This parameter can be: ENABLE or DISABLE.
 732:../Libraries/STM32F10x_StdPeriph_Driver/src/stm32f10x_adc.c ****   * @retval None
 733:../Libraries/STM32F10x_StdPeriph_Driver/src/stm32f10x_adc.c ****   */
 734:../Libraries/STM32F10x_StdPeriph_Driver/src/stm32f10x_adc.c **** void ADC_AutoInjectedConvCmd(ADC_TypeDef* ADCx, FunctionalState NewState)
 735:../Libraries/STM32F10x_StdPeriph_Driver/src/stm32f10x_adc.c **** {
 19655              		.loc 1 735 0
 19656              		.cfi_startproc
 19657              		@ args = 0, pretend = 0, frame = 0
 19658              		@ frame_needed = 0, uses_anonymous_args = 0
 19659              		@ link register save eliminated.
 19660              	.LVL74:
 736:../Libraries/STM32F10x_StdPeriph_Driver/src/stm32f10x_adc.c ****   /* Check the parameters */
 737:../Libraries/STM32F10x_StdPeriph_Driver/src/stm32f10x_adc.c ****   assert_param(IS_ADC_ALL_PERIPH(ADCx));
 738:../Libraries/STM32F10x_StdPeriph_Driver/src/stm32f10x_adc.c ****   assert_param(IS_FUNCTIONAL_STATE(NewState));
 739:../Libraries/STM32F10x_StdPeriph_Driver/src/stm32f10x_adc.c ****   if (NewState != DISABLE)
 19661              		.loc 1 739 0
 19662 0000 19B1     		cbz	r1, .L53
 740:../Libraries/STM32F10x_StdPeriph_Driver/src/stm32f10x_adc.c ****   {
 741:../Libraries/STM32F10x_StdPeriph_Driver/src/stm32f10x_adc.c ****     /* Enable the selected ADC automatic injected group conversion */
 742:../Libraries/STM32F10x_StdPeriph_Driver/src/stm32f10x_adc.c ****     ADCx->CR1 |= CR1_JAUTO_Set;
 19663              		.loc 1 742 0
 19664 0002 4368     		ldr	r3, [r0, #4]
 19665 0004 43F48063 		orr	r3, r3, #1024
 19666 0008 02E0     		b	.L55
 19667              	.L53:
 743:../Libraries/STM32F10x_StdPeriph_Driver/src/stm32f10x_adc.c ****   }
 744:../Libraries/STM32F10x_StdPeriph_Driver/src/stm32f10x_adc.c ****   else
 745:../Libraries/STM32F10x_StdPeriph_Driver/src/stm32f10x_adc.c ****   {
 746:../Libraries/STM32F10x_StdPeriph_Driver/src/stm32f10x_adc.c ****     /* Disable the selected ADC automatic injected group conversion */
 747:../Libraries/STM32F10x_StdPeriph_Driver/src/stm32f10x_adc.c ****     ADCx->CR1 &= CR1_JAUTO_Reset;
 19668              		.loc 1 747 0
 19669 000a 4368     		ldr	r3, [r0, #4]
 19670 000c 23F48063 		bic	r3, r3, #1024
 19671              	.L55:
 19672 0010 4360     		str	r3, [r0, #4]
 19673 0012 7047     		bx	lr
 19674              		.cfi_endproc
 19675              	.LFE47:
 19677              		.section	.text.ADC_InjectedDiscModeCmd,"ax",%progbits
 19678              		.align	1
 19679              		.global	ADC_InjectedDiscModeCmd
 19680              		.thumb
 19681              		.thumb_func
 19683              	ADC_InjectedDiscModeCmd:
 19684              	.LFB48:
 748:../Libraries/STM32F10x_StdPeriph_Driver/src/stm32f10x_adc.c ****   }
 749:../Libraries/STM32F10x_StdPeriph_Driver/src/stm32f10x_adc.c **** }
 750:../Libraries/STM32F10x_StdPeriph_Driver/src/stm32f10x_adc.c **** 
 751:../Libraries/STM32F10x_StdPeriph_Driver/src/stm32f10x_adc.c **** /**
 752:../Libraries/STM32F10x_StdPeriph_Driver/src/stm32f10x_adc.c ****   * @brief  Enables or disables the discontinuous mode for injected group
 753:../Libraries/STM32F10x_StdPeriph_Driver/src/stm32f10x_adc.c ****   *         channel for the specified ADC
 754:../Libraries/STM32F10x_StdPeriph_Driver/src/stm32f10x_adc.c ****   * @param  ADCx: where x can be 1, 2 or 3 to select the ADC peripheral.
 755:../Libraries/STM32F10x_StdPeriph_Driver/src/stm32f10x_adc.c ****   * @param  NewState: new state of the selected ADC discontinuous mode
 756:../Libraries/STM32F10x_StdPeriph_Driver/src/stm32f10x_adc.c ****   *         on injected group channel.
 757:../Libraries/STM32F10x_StdPeriph_Driver/src/stm32f10x_adc.c ****   *   This parameter can be: ENABLE or DISABLE.
 758:../Libraries/STM32F10x_StdPeriph_Driver/src/stm32f10x_adc.c ****   * @retval None
 759:../Libraries/STM32F10x_StdPeriph_Driver/src/stm32f10x_adc.c ****   */
 760:../Libraries/STM32F10x_StdPeriph_Driver/src/stm32f10x_adc.c **** void ADC_InjectedDiscModeCmd(ADC_TypeDef* ADCx, FunctionalState NewState)
 761:../Libraries/STM32F10x_StdPeriph_Driver/src/stm32f10x_adc.c **** {
 19685              		.loc 1 761 0
 19686              		.cfi_startproc
 19687              		@ args = 0, pretend = 0, frame = 0
 19688              		@ frame_needed = 0, uses_anonymous_args = 0
 19689              		@ link register save eliminated.
 19690              	.LVL75:
 762:../Libraries/STM32F10x_StdPeriph_Driver/src/stm32f10x_adc.c ****   /* Check the parameters */
 763:../Libraries/STM32F10x_StdPeriph_Driver/src/stm32f10x_adc.c ****   assert_param(IS_ADC_ALL_PERIPH(ADCx));
 764:../Libraries/STM32F10x_StdPeriph_Driver/src/stm32f10x_adc.c ****   assert_param(IS_FUNCTIONAL_STATE(NewState));
 765:../Libraries/STM32F10x_StdPeriph_Driver/src/stm32f10x_adc.c ****   if (NewState != DISABLE)
 19691              		.loc 1 765 0
 19692 0000 19B1     		cbz	r1, .L57
 766:../Libraries/STM32F10x_StdPeriph_Driver/src/stm32f10x_adc.c ****   {
 767:../Libraries/STM32F10x_StdPeriph_Driver/src/stm32f10x_adc.c ****     /* Enable the selected ADC injected discontinuous mode */
 768:../Libraries/STM32F10x_StdPeriph_Driver/src/stm32f10x_adc.c ****     ADCx->CR1 |= CR1_JDISCEN_Set;
 19693              		.loc 1 768 0
 19694 0002 4368     		ldr	r3, [r0, #4]
 19695 0004 43F48053 		orr	r3, r3, #4096
 19696 0008 02E0     		b	.L59
 19697              	.L57:
 769:../Libraries/STM32F10x_StdPeriph_Driver/src/stm32f10x_adc.c ****   }
 770:../Libraries/STM32F10x_StdPeriph_Driver/src/stm32f10x_adc.c ****   else
 771:../Libraries/STM32F10x_StdPeriph_Driver/src/stm32f10x_adc.c ****   {
 772:../Libraries/STM32F10x_StdPeriph_Driver/src/stm32f10x_adc.c ****     /* Disable the selected ADC injected discontinuous mode */
 773:../Libraries/STM32F10x_StdPeriph_Driver/src/stm32f10x_adc.c ****     ADCx->CR1 &= CR1_JDISCEN_Reset;
 19698              		.loc 1 773 0
 19699 000a 4368     		ldr	r3, [r0, #4]
 19700 000c 23F48053 		bic	r3, r3, #4096
 19701              	.L59:
 19702 0010 4360     		str	r3, [r0, #4]
 19703 0012 7047     		bx	lr
 19704              		.cfi_endproc
 19705              	.LFE48:
 19707              		.section	.text.ADC_ExternalTrigInjectedConvConfig,"ax",%progbits
 19708              		.align	1
 19709              		.global	ADC_ExternalTrigInjectedConvConfig
 19710              		.thumb
 19711              		.thumb_func
 19713              	ADC_ExternalTrigInjectedConvConfig:
 19714              	.LFB49:
 774:../Libraries/STM32F10x_StdPeriph_Driver/src/stm32f10x_adc.c ****   }
 775:../Libraries/STM32F10x_StdPeriph_Driver/src/stm32f10x_adc.c **** }
 776:../Libraries/STM32F10x_StdPeriph_Driver/src/stm32f10x_adc.c **** 
 777:../Libraries/STM32F10x_StdPeriph_Driver/src/stm32f10x_adc.c **** /**
 778:../Libraries/STM32F10x_StdPeriph_Driver/src/stm32f10x_adc.c ****   * @brief  Configures the ADCx external trigger for injected channels conversion.
 779:../Libraries/STM32F10x_StdPeriph_Driver/src/stm32f10x_adc.c ****   * @param  ADCx: where x can be 1, 2 or 3 to select the ADC peripheral.
 780:../Libraries/STM32F10x_StdPeriph_Driver/src/stm32f10x_adc.c ****   * @param  ADC_ExternalTrigInjecConv: specifies the ADC trigger to start injected conversion. 
 781:../Libraries/STM32F10x_StdPeriph_Driver/src/stm32f10x_adc.c ****   *   This parameter can be one of the following values:
 782:../Libraries/STM32F10x_StdPeriph_Driver/src/stm32f10x_adc.c ****   *     @arg ADC_ExternalTrigInjecConv_T1_TRGO: Timer1 TRGO event selected (for ADC1, ADC2 and ADC3
 783:../Libraries/STM32F10x_StdPeriph_Driver/src/stm32f10x_adc.c ****   *     @arg ADC_ExternalTrigInjecConv_T1_CC4: Timer1 capture compare4 selected (for ADC1, ADC2 and
 784:../Libraries/STM32F10x_StdPeriph_Driver/src/stm32f10x_adc.c ****   *     @arg ADC_ExternalTrigInjecConv_T2_TRGO: Timer2 TRGO event selected (for ADC1 and ADC2)
 785:../Libraries/STM32F10x_StdPeriph_Driver/src/stm32f10x_adc.c ****   *     @arg ADC_ExternalTrigInjecConv_T2_CC1: Timer2 capture compare1 selected (for ADC1 and ADC2)
 786:../Libraries/STM32F10x_StdPeriph_Driver/src/stm32f10x_adc.c ****   *     @arg ADC_ExternalTrigInjecConv_T3_CC4: Timer3 capture compare4 selected (for ADC1 and ADC2)
 787:../Libraries/STM32F10x_StdPeriph_Driver/src/stm32f10x_adc.c ****   *     @arg ADC_ExternalTrigInjecConv_T4_TRGO: Timer4 TRGO event selected (for ADC1 and ADC2)
 788:../Libraries/STM32F10x_StdPeriph_Driver/src/stm32f10x_adc.c ****   *     @arg ADC_ExternalTrigInjecConv_Ext_IT15_TIM8_CC4: External interrupt line 15 or Timer8
 789:../Libraries/STM32F10x_StdPeriph_Driver/src/stm32f10x_adc.c ****   *                                                       capture compare4 event selected (for ADC1
 790:../Libraries/STM32F10x_StdPeriph_Driver/src/stm32f10x_adc.c ****   *     @arg ADC_ExternalTrigInjecConv_T4_CC3: Timer4 capture compare3 selected (for ADC3 only)
 791:../Libraries/STM32F10x_StdPeriph_Driver/src/stm32f10x_adc.c ****   *     @arg ADC_ExternalTrigInjecConv_T8_CC2: Timer8 capture compare2 selected (for ADC3 only)    
 792:../Libraries/STM32F10x_StdPeriph_Driver/src/stm32f10x_adc.c ****   *     @arg ADC_ExternalTrigInjecConv_T8_CC4: Timer8 capture compare4 selected (for ADC3 only)
 793:../Libraries/STM32F10x_StdPeriph_Driver/src/stm32f10x_adc.c ****   *     @arg ADC_ExternalTrigInjecConv_T5_TRGO: Timer5 TRGO event selected (for ADC3 only)         
 794:../Libraries/STM32F10x_StdPeriph_Driver/src/stm32f10x_adc.c ****   *     @arg ADC_ExternalTrigInjecConv_T5_CC4: Timer5 capture compare4 selected (for ADC3 only)    
 795:../Libraries/STM32F10x_StdPeriph_Driver/src/stm32f10x_adc.c ****   *     @arg ADC_ExternalTrigInjecConv_None: Injected conversion started by software and not
 796:../Libraries/STM32F10x_StdPeriph_Driver/src/stm32f10x_adc.c ****   *                                          by external trigger (for ADC1, ADC2 and ADC3)
 797:../Libraries/STM32F10x_StdPeriph_Driver/src/stm32f10x_adc.c ****   * @retval None
 798:../Libraries/STM32F10x_StdPeriph_Driver/src/stm32f10x_adc.c ****   */
 799:../Libraries/STM32F10x_StdPeriph_Driver/src/stm32f10x_adc.c **** void ADC_ExternalTrigInjectedConvConfig(ADC_TypeDef* ADCx, uint32_t ADC_ExternalTrigInjecConv)
 800:../Libraries/STM32F10x_StdPeriph_Driver/src/stm32f10x_adc.c **** {
 19715              		.loc 1 800 0
 19716              		.cfi_startproc
 19717              		@ args = 0, pretend = 0, frame = 0
 19718              		@ frame_needed = 0, uses_anonymous_args = 0
 19719              		@ link register save eliminated.
 19720              	.LVL76:
 801:../Libraries/STM32F10x_StdPeriph_Driver/src/stm32f10x_adc.c ****   uint32_t tmpreg = 0;
 802:../Libraries/STM32F10x_StdPeriph_Driver/src/stm32f10x_adc.c ****   /* Check the parameters */
 803:../Libraries/STM32F10x_StdPeriph_Driver/src/stm32f10x_adc.c ****   assert_param(IS_ADC_ALL_PERIPH(ADCx));
 804:../Libraries/STM32F10x_StdPeriph_Driver/src/stm32f10x_adc.c ****   assert_param(IS_ADC_EXT_INJEC_TRIG(ADC_ExternalTrigInjecConv));
 805:../Libraries/STM32F10x_StdPeriph_Driver/src/stm32f10x_adc.c ****   /* Get the old register value */
 806:../Libraries/STM32F10x_StdPeriph_Driver/src/stm32f10x_adc.c ****   tmpreg = ADCx->CR2;
 19721              		.loc 1 806 0
 19722 0000 8368     		ldr	r3, [r0, #8]
 19723              	.LVL77:
 807:../Libraries/STM32F10x_StdPeriph_Driver/src/stm32f10x_adc.c ****   /* Clear the old external event selection for injected group */
 808:../Libraries/STM32F10x_StdPeriph_Driver/src/stm32f10x_adc.c ****   tmpreg &= CR2_JEXTSEL_Reset;
 19724              		.loc 1 808 0
 19725 0002 23F4E043 		bic	r3, r3, #28672
 19726              	.LVL78:
 809:../Libraries/STM32F10x_StdPeriph_Driver/src/stm32f10x_adc.c ****   /* Set the external event selection for injected group */
 810:../Libraries/STM32F10x_StdPeriph_Driver/src/stm32f10x_adc.c ****   tmpreg |= ADC_ExternalTrigInjecConv;
 19727              		.loc 1 810 0
 19728 0006 41EA0303 		orr	r3, r1, r3
 19729              	.LVL79:
 811:../Libraries/STM32F10x_StdPeriph_Driver/src/stm32f10x_adc.c ****   /* Store the new register value */
 812:../Libraries/STM32F10x_StdPeriph_Driver/src/stm32f10x_adc.c ****   ADCx->CR2 = tmpreg;
 19730              		.loc 1 812 0
 19731 000a 8360     		str	r3, [r0, #8]
 813:../Libraries/STM32F10x_StdPeriph_Driver/src/stm32f10x_adc.c **** }
 19732              		.loc 1 813 0
 19733 000c 7047     		bx	lr
 19734              		.cfi_endproc
 19735              	.LFE49:
 19737              		.section	.text.ADC_ExternalTrigInjectedConvCmd,"ax",%progbits
 19738              		.align	1
 19739              		.global	ADC_ExternalTrigInjectedConvCmd
 19740              		.thumb
 19741              		.thumb_func
 19743              	ADC_ExternalTrigInjectedConvCmd:
 19744              	.LFB50:
 814:../Libraries/STM32F10x_StdPeriph_Driver/src/stm32f10x_adc.c **** 
 815:../Libraries/STM32F10x_StdPeriph_Driver/src/stm32f10x_adc.c **** /**
 816:../Libraries/STM32F10x_StdPeriph_Driver/src/stm32f10x_adc.c ****   * @brief  Enables or disables the ADCx injected channels conversion through
 817:../Libraries/STM32F10x_StdPeriph_Driver/src/stm32f10x_adc.c ****   *         external trigger
 818:../Libraries/STM32F10x_StdPeriph_Driver/src/stm32f10x_adc.c ****   * @param  ADCx: where x can be 1, 2 or 3 to select the ADC peripheral.
 819:../Libraries/STM32F10x_StdPeriph_Driver/src/stm32f10x_adc.c ****   * @param  NewState: new state of the selected ADC external trigger start of
 820:../Libraries/STM32F10x_StdPeriph_Driver/src/stm32f10x_adc.c ****   *         injected conversion.
 821:../Libraries/STM32F10x_StdPeriph_Driver/src/stm32f10x_adc.c ****   *   This parameter can be: ENABLE or DISABLE.
 822:../Libraries/STM32F10x_StdPeriph_Driver/src/stm32f10x_adc.c ****   * @retval None
 823:../Libraries/STM32F10x_StdPeriph_Driver/src/stm32f10x_adc.c ****   */
 824:../Libraries/STM32F10x_StdPeriph_Driver/src/stm32f10x_adc.c **** void ADC_ExternalTrigInjectedConvCmd(ADC_TypeDef* ADCx, FunctionalState NewState)
 825:../Libraries/STM32F10x_StdPeriph_Driver/src/stm32f10x_adc.c **** {
 19745              		.loc 1 825 0
 19746              		.cfi_startproc
 19747              		@ args = 0, pretend = 0, frame = 0
 19748              		@ frame_needed = 0, uses_anonymous_args = 0
 19749              		@ link register save eliminated.
 19750              	.LVL80:
 826:../Libraries/STM32F10x_StdPeriph_Driver/src/stm32f10x_adc.c ****   /* Check the parameters */
 827:../Libraries/STM32F10x_StdPeriph_Driver/src/stm32f10x_adc.c ****   assert_param(IS_ADC_ALL_PERIPH(ADCx));
 828:../Libraries/STM32F10x_StdPeriph_Driver/src/stm32f10x_adc.c ****   assert_param(IS_FUNCTIONAL_STATE(NewState));
 829:../Libraries/STM32F10x_StdPeriph_Driver/src/stm32f10x_adc.c ****   if (NewState != DISABLE)
 19751              		.loc 1 829 0
 19752 0000 19B1     		cbz	r1, .L62
 830:../Libraries/STM32F10x_StdPeriph_Driver/src/stm32f10x_adc.c ****   {
 831:../Libraries/STM32F10x_StdPeriph_Driver/src/stm32f10x_adc.c ****     /* Enable the selected ADC external event selection for injected group */
 832:../Libraries/STM32F10x_StdPeriph_Driver/src/stm32f10x_adc.c ****     ADCx->CR2 |= CR2_JEXTTRIG_Set;
 19753              		.loc 1 832 0
 19754 0002 8368     		ldr	r3, [r0, #8]
 19755 0004 43F40043 		orr	r3, r3, #32768
 19756 0008 02E0     		b	.L64
 19757              	.L62:
 833:../Libraries/STM32F10x_StdPeriph_Driver/src/stm32f10x_adc.c ****   }
 834:../Libraries/STM32F10x_StdPeriph_Driver/src/stm32f10x_adc.c ****   else
 835:../Libraries/STM32F10x_StdPeriph_Driver/src/stm32f10x_adc.c ****   {
 836:../Libraries/STM32F10x_StdPeriph_Driver/src/stm32f10x_adc.c ****     /* Disable the selected ADC external event selection for injected group */
 837:../Libraries/STM32F10x_StdPeriph_Driver/src/stm32f10x_adc.c ****     ADCx->CR2 &= CR2_JEXTTRIG_Reset;
 19758              		.loc 1 837 0
 19759 000a 8368     		ldr	r3, [r0, #8]
 19760 000c 23F40043 		bic	r3, r3, #32768
 19761              	.L64:
 19762 0010 8360     		str	r3, [r0, #8]
 19763 0012 7047     		bx	lr
 19764              		.cfi_endproc
 19765              	.LFE50:
 19767              		.section	.text.ADC_SoftwareStartInjectedConvCmd,"ax",%progbits
 19768              		.align	1
 19769              		.global	ADC_SoftwareStartInjectedConvCmd
 19770              		.thumb
 19771              		.thumb_func
 19773              	ADC_SoftwareStartInjectedConvCmd:
 19774              	.LFB51:
 838:../Libraries/STM32F10x_StdPeriph_Driver/src/stm32f10x_adc.c ****   }
 839:../Libraries/STM32F10x_StdPeriph_Driver/src/stm32f10x_adc.c **** }
 840:../Libraries/STM32F10x_StdPeriph_Driver/src/stm32f10x_adc.c **** 
 841:../Libraries/STM32F10x_StdPeriph_Driver/src/stm32f10x_adc.c **** /**
 842:../Libraries/STM32F10x_StdPeriph_Driver/src/stm32f10x_adc.c ****   * @brief  Enables or disables the selected ADC start of the injected 
 843:../Libraries/STM32F10x_StdPeriph_Driver/src/stm32f10x_adc.c ****   *         channels conversion.
 844:../Libraries/STM32F10x_StdPeriph_Driver/src/stm32f10x_adc.c ****   * @param  ADCx: where x can be 1, 2 or 3 to select the ADC peripheral.
 845:../Libraries/STM32F10x_StdPeriph_Driver/src/stm32f10x_adc.c ****   * @param  NewState: new state of the selected ADC software start injected conversion.
 846:../Libraries/STM32F10x_StdPeriph_Driver/src/stm32f10x_adc.c ****   *   This parameter can be: ENABLE or DISABLE.
 847:../Libraries/STM32F10x_StdPeriph_Driver/src/stm32f10x_adc.c ****   * @retval None
 848:../Libraries/STM32F10x_StdPeriph_Driver/src/stm32f10x_adc.c ****   */
 849:../Libraries/STM32F10x_StdPeriph_Driver/src/stm32f10x_adc.c **** void ADC_SoftwareStartInjectedConvCmd(ADC_TypeDef* ADCx, FunctionalState NewState)
 850:../Libraries/STM32F10x_StdPeriph_Driver/src/stm32f10x_adc.c **** {
 19775              		.loc 1 850 0
 19776              		.cfi_startproc
 19777              		@ args = 0, pretend = 0, frame = 0
 19778              		@ frame_needed = 0, uses_anonymous_args = 0
 19779              		@ link register save eliminated.
 19780              	.LVL81:
 851:../Libraries/STM32F10x_StdPeriph_Driver/src/stm32f10x_adc.c ****   /* Check the parameters */
 852:../Libraries/STM32F10x_StdPeriph_Driver/src/stm32f10x_adc.c ****   assert_param(IS_ADC_ALL_PERIPH(ADCx));
 853:../Libraries/STM32F10x_StdPeriph_Driver/src/stm32f10x_adc.c ****   assert_param(IS_FUNCTIONAL_STATE(NewState));
 854:../Libraries/STM32F10x_StdPeriph_Driver/src/stm32f10x_adc.c ****   if (NewState != DISABLE)
 19781              		.loc 1 854 0
 19782 0000 19B1     		cbz	r1, .L66
 855:../Libraries/STM32F10x_StdPeriph_Driver/src/stm32f10x_adc.c ****   {
 856:../Libraries/STM32F10x_StdPeriph_Driver/src/stm32f10x_adc.c ****     /* Enable the selected ADC conversion for injected group on external event and start the select
 857:../Libraries/STM32F10x_StdPeriph_Driver/src/stm32f10x_adc.c ****        ADC injected conversion */
 858:../Libraries/STM32F10x_StdPeriph_Driver/src/stm32f10x_adc.c ****     ADCx->CR2 |= CR2_JEXTTRIG_JSWSTART_Set;
 19783              		.loc 1 858 0
 19784 0002 8368     		ldr	r3, [r0, #8]
 19785 0004 43F40213 		orr	r3, r3, #2129920
 19786 0008 02E0     		b	.L68
 19787              	.L66:
 859:../Libraries/STM32F10x_StdPeriph_Driver/src/stm32f10x_adc.c ****   }
 860:../Libraries/STM32F10x_StdPeriph_Driver/src/stm32f10x_adc.c ****   else
 861:../Libraries/STM32F10x_StdPeriph_Driver/src/stm32f10x_adc.c ****   {
 862:../Libraries/STM32F10x_StdPeriph_Driver/src/stm32f10x_adc.c ****     /* Disable the selected ADC conversion on external event for injected group and stop the select
 863:../Libraries/STM32F10x_StdPeriph_Driver/src/stm32f10x_adc.c ****        ADC injected conversion */
 864:../Libraries/STM32F10x_StdPeriph_Driver/src/stm32f10x_adc.c ****     ADCx->CR2 &= CR2_JEXTTRIG_JSWSTART_Reset;
 19788              		.loc 1 864 0
 19789 000a 8368     		ldr	r3, [r0, #8]
 19790 000c 23F40213 		bic	r3, r3, #2129920
 19791              	.L68:
 19792 0010 8360     		str	r3, [r0, #8]
 19793 0012 7047     		bx	lr
 19794              		.cfi_endproc
 19795              	.LFE51:
 19797              		.section	.text.ADC_GetSoftwareStartInjectedConvCmdStatus,"ax",%progbits
 19798              		.align	1
 19799              		.global	ADC_GetSoftwareStartInjectedConvCmdStatus
 19800              		.thumb
 19801              		.thumb_func
 19803              	ADC_GetSoftwareStartInjectedConvCmdStatus:
 19804              	.LFB52:
 865:../Libraries/STM32F10x_StdPeriph_Driver/src/stm32f10x_adc.c ****   }
 866:../Libraries/STM32F10x_StdPeriph_Driver/src/stm32f10x_adc.c **** }
 867:../Libraries/STM32F10x_StdPeriph_Driver/src/stm32f10x_adc.c **** 
 868:../Libraries/STM32F10x_StdPeriph_Driver/src/stm32f10x_adc.c **** /**
 869:../Libraries/STM32F10x_StdPeriph_Driver/src/stm32f10x_adc.c ****   * @brief  Gets the selected ADC Software start injected conversion Status.
 870:../Libraries/STM32F10x_StdPeriph_Driver/src/stm32f10x_adc.c ****   * @param  ADCx: where x can be 1, 2 or 3 to select the ADC peripheral.
 871:../Libraries/STM32F10x_StdPeriph_Driver/src/stm32f10x_adc.c ****   * @retval The new state of ADC software start injected conversion (SET or RESET).
 872:../Libraries/STM32F10x_StdPeriph_Driver/src/stm32f10x_adc.c ****   */
 873:../Libraries/STM32F10x_StdPeriph_Driver/src/stm32f10x_adc.c **** FlagStatus ADC_GetSoftwareStartInjectedConvCmdStatus(ADC_TypeDef* ADCx)
 874:../Libraries/STM32F10x_StdPeriph_Driver/src/stm32f10x_adc.c **** {
 19805              		.loc 1 874 0
 19806              		.cfi_startproc
 19807              		@ args = 0, pretend = 0, frame = 0
 19808              		@ frame_needed = 0, uses_anonymous_args = 0
 19809              		@ link register save eliminated.
 19810              	.LVL82:
 875:../Libraries/STM32F10x_StdPeriph_Driver/src/stm32f10x_adc.c ****   FlagStatus bitstatus = RESET;
 876:../Libraries/STM32F10x_StdPeriph_Driver/src/stm32f10x_adc.c ****   /* Check the parameters */
 877:../Libraries/STM32F10x_StdPeriph_Driver/src/stm32f10x_adc.c ****   assert_param(IS_ADC_ALL_PERIPH(ADCx));
 878:../Libraries/STM32F10x_StdPeriph_Driver/src/stm32f10x_adc.c ****   /* Check the status of JSWSTART bit */
 879:../Libraries/STM32F10x_StdPeriph_Driver/src/stm32f10x_adc.c ****   if ((ADCx->CR2 & CR2_JSWSTART_Set) != (uint32_t)RESET)
 19811              		.loc 1 879 0
 19812 0000 8068     		ldr	r0, [r0, #8]
 19813              	.LVL83:
 880:../Libraries/STM32F10x_StdPeriph_Driver/src/stm32f10x_adc.c ****   {
 881:../Libraries/STM32F10x_StdPeriph_Driver/src/stm32f10x_adc.c ****     /* JSWSTART bit is set */
 882:../Libraries/STM32F10x_StdPeriph_Driver/src/stm32f10x_adc.c ****     bitstatus = SET;
 883:../Libraries/STM32F10x_StdPeriph_Driver/src/stm32f10x_adc.c ****   }
 884:../Libraries/STM32F10x_StdPeriph_Driver/src/stm32f10x_adc.c ****   else
 885:../Libraries/STM32F10x_StdPeriph_Driver/src/stm32f10x_adc.c ****   {
 886:../Libraries/STM32F10x_StdPeriph_Driver/src/stm32f10x_adc.c ****     /* JSWSTART bit is reset */
 887:../Libraries/STM32F10x_StdPeriph_Driver/src/stm32f10x_adc.c ****     bitstatus = RESET;
 888:../Libraries/STM32F10x_StdPeriph_Driver/src/stm32f10x_adc.c ****   }
 889:../Libraries/STM32F10x_StdPeriph_Driver/src/stm32f10x_adc.c ****   /* Return the JSWSTART bit status */
 890:../Libraries/STM32F10x_StdPeriph_Driver/src/stm32f10x_adc.c ****   return  bitstatus;
 891:../Libraries/STM32F10x_StdPeriph_Driver/src/stm32f10x_adc.c **** }
 19814              		.loc 1 891 0
 19815 0002 C0F34050 		ubfx	r0, r0, #21, #1
 19816              	.LVL84:
 19817 0006 7047     		bx	lr
 19818              		.cfi_endproc
 19819              	.LFE52:
 19821              		.section	.text.ADC_InjectedChannelConfig,"ax",%progbits
 19822              		.align	1
 19823              		.global	ADC_InjectedChannelConfig
 19824              		.thumb
 19825              		.thumb_func
 19827              	ADC_InjectedChannelConfig:
 19828              	.LFB53:
 892:../Libraries/STM32F10x_StdPeriph_Driver/src/stm32f10x_adc.c **** 
 893:../Libraries/STM32F10x_StdPeriph_Driver/src/stm32f10x_adc.c **** /**
 894:../Libraries/STM32F10x_StdPeriph_Driver/src/stm32f10x_adc.c ****   * @brief  Configures for the selected ADC injected channel its corresponding
 895:../Libraries/STM32F10x_StdPeriph_Driver/src/stm32f10x_adc.c ****   *         rank in the sequencer and its sample time.
 896:../Libraries/STM32F10x_StdPeriph_Driver/src/stm32f10x_adc.c ****   * @param  ADCx: where x can be 1, 2 or 3 to select the ADC peripheral.
 897:../Libraries/STM32F10x_StdPeriph_Driver/src/stm32f10x_adc.c ****   * @param  ADC_Channel: the ADC channel to configure. 
 898:../Libraries/STM32F10x_StdPeriph_Driver/src/stm32f10x_adc.c ****   *   This parameter can be one of the following values:
 899:../Libraries/STM32F10x_StdPeriph_Driver/src/stm32f10x_adc.c ****   *     @arg ADC_Channel_0: ADC Channel0 selected
 900:../Libraries/STM32F10x_StdPeriph_Driver/src/stm32f10x_adc.c ****   *     @arg ADC_Channel_1: ADC Channel1 selected
 901:../Libraries/STM32F10x_StdPeriph_Driver/src/stm32f10x_adc.c ****   *     @arg ADC_Channel_2: ADC Channel2 selected
 902:../Libraries/STM32F10x_StdPeriph_Driver/src/stm32f10x_adc.c ****   *     @arg ADC_Channel_3: ADC Channel3 selected
 903:../Libraries/STM32F10x_StdPeriph_Driver/src/stm32f10x_adc.c ****   *     @arg ADC_Channel_4: ADC Channel4 selected
 904:../Libraries/STM32F10x_StdPeriph_Driver/src/stm32f10x_adc.c ****   *     @arg ADC_Channel_5: ADC Channel5 selected
 905:../Libraries/STM32F10x_StdPeriph_Driver/src/stm32f10x_adc.c ****   *     @arg ADC_Channel_6: ADC Channel6 selected
 906:../Libraries/STM32F10x_StdPeriph_Driver/src/stm32f10x_adc.c ****   *     @arg ADC_Channel_7: ADC Channel7 selected
 907:../Libraries/STM32F10x_StdPeriph_Driver/src/stm32f10x_adc.c ****   *     @arg ADC_Channel_8: ADC Channel8 selected
 908:../Libraries/STM32F10x_StdPeriph_Driver/src/stm32f10x_adc.c ****   *     @arg ADC_Channel_9: ADC Channel9 selected
 909:../Libraries/STM32F10x_StdPeriph_Driver/src/stm32f10x_adc.c ****   *     @arg ADC_Channel_10: ADC Channel10 selected
 910:../Libraries/STM32F10x_StdPeriph_Driver/src/stm32f10x_adc.c ****   *     @arg ADC_Channel_11: ADC Channel11 selected
 911:../Libraries/STM32F10x_StdPeriph_Driver/src/stm32f10x_adc.c ****   *     @arg ADC_Channel_12: ADC Channel12 selected
 912:../Libraries/STM32F10x_StdPeriph_Driver/src/stm32f10x_adc.c ****   *     @arg ADC_Channel_13: ADC Channel13 selected
 913:../Libraries/STM32F10x_StdPeriph_Driver/src/stm32f10x_adc.c ****   *     @arg ADC_Channel_14: ADC Channel14 selected
 914:../Libraries/STM32F10x_StdPeriph_Driver/src/stm32f10x_adc.c ****   *     @arg ADC_Channel_15: ADC Channel15 selected
 915:../Libraries/STM32F10x_StdPeriph_Driver/src/stm32f10x_adc.c ****   *     @arg ADC_Channel_16: ADC Channel16 selected
 916:../Libraries/STM32F10x_StdPeriph_Driver/src/stm32f10x_adc.c ****   *     @arg ADC_Channel_17: ADC Channel17 selected
 917:../Libraries/STM32F10x_StdPeriph_Driver/src/stm32f10x_adc.c ****   * @param  Rank: The rank in the injected group sequencer. This parameter must be between 1 and 4.
 918:../Libraries/STM32F10x_StdPeriph_Driver/src/stm32f10x_adc.c ****   * @param  ADC_SampleTime: The sample time value to be set for the selected channel. 
 919:../Libraries/STM32F10x_StdPeriph_Driver/src/stm32f10x_adc.c ****   *   This parameter can be one of the following values:
 920:../Libraries/STM32F10x_StdPeriph_Driver/src/stm32f10x_adc.c ****   *     @arg ADC_SampleTime_1Cycles5: Sample time equal to 1.5 cycles
 921:../Libraries/STM32F10x_StdPeriph_Driver/src/stm32f10x_adc.c ****   *     @arg ADC_SampleTime_7Cycles5: Sample time equal to 7.5 cycles
 922:../Libraries/STM32F10x_StdPeriph_Driver/src/stm32f10x_adc.c ****   *     @arg ADC_SampleTime_13Cycles5: Sample time equal to 13.5 cycles
 923:../Libraries/STM32F10x_StdPeriph_Driver/src/stm32f10x_adc.c ****   *     @arg ADC_SampleTime_28Cycles5: Sample time equal to 28.5 cycles	
 924:../Libraries/STM32F10x_StdPeriph_Driver/src/stm32f10x_adc.c ****   *     @arg ADC_SampleTime_41Cycles5: Sample time equal to 41.5 cycles	
 925:../Libraries/STM32F10x_StdPeriph_Driver/src/stm32f10x_adc.c ****   *     @arg ADC_SampleTime_55Cycles5: Sample time equal to 55.5 cycles	
 926:../Libraries/STM32F10x_StdPeriph_Driver/src/stm32f10x_adc.c ****   *     @arg ADC_SampleTime_71Cycles5: Sample time equal to 71.5 cycles	
 927:../Libraries/STM32F10x_StdPeriph_Driver/src/stm32f10x_adc.c ****   *     @arg ADC_SampleTime_239Cycles5: Sample time equal to 239.5 cycles	
 928:../Libraries/STM32F10x_StdPeriph_Driver/src/stm32f10x_adc.c ****   * @retval None
 929:../Libraries/STM32F10x_StdPeriph_Driver/src/stm32f10x_adc.c ****   */
 930:../Libraries/STM32F10x_StdPeriph_Driver/src/stm32f10x_adc.c **** void ADC_InjectedChannelConfig(ADC_TypeDef* ADCx, uint8_t ADC_Channel, uint8_t Rank, uint8_t ADC_Sa
 931:../Libraries/STM32F10x_StdPeriph_Driver/src/stm32f10x_adc.c **** {
 19829              		.loc 1 931 0
 19830              		.cfi_startproc
 19831              		@ args = 0, pretend = 0, frame = 0
 19832              		@ frame_needed = 0, uses_anonymous_args = 0
 19833              	.LVL85:
 932:../Libraries/STM32F10x_StdPeriph_Driver/src/stm32f10x_adc.c ****   uint32_t tmpreg1 = 0, tmpreg2 = 0, tmpreg3 = 0;
 933:../Libraries/STM32F10x_StdPeriph_Driver/src/stm32f10x_adc.c ****   /* Check the parameters */
 934:../Libraries/STM32F10x_StdPeriph_Driver/src/stm32f10x_adc.c ****   assert_param(IS_ADC_ALL_PERIPH(ADCx));
 935:../Libraries/STM32F10x_StdPeriph_Driver/src/stm32f10x_adc.c ****   assert_param(IS_ADC_CHANNEL(ADC_Channel));
 936:../Libraries/STM32F10x_StdPeriph_Driver/src/stm32f10x_adc.c ****   assert_param(IS_ADC_INJECTED_RANK(Rank));
 937:../Libraries/STM32F10x_StdPeriph_Driver/src/stm32f10x_adc.c ****   assert_param(IS_ADC_SAMPLE_TIME(ADC_SampleTime));
 938:../Libraries/STM32F10x_StdPeriph_Driver/src/stm32f10x_adc.c ****   /* if ADC_Channel_10 ... ADC_Channel_17 is selected */
 939:../Libraries/STM32F10x_StdPeriph_Driver/src/stm32f10x_adc.c ****   if (ADC_Channel > ADC_Channel_9)
 19834              		.loc 1 939 0
 19835 0000 0929     		cmp	r1, #9
 931:../Libraries/STM32F10x_StdPeriph_Driver/src/stm32f10x_adc.c **** {
 19836              		.loc 1 931 0
 19837 0002 70B5     		push	{r4, r5, r6, lr}
 19838              	.LCFI3:
 19839              		.cfi_def_cfa_offset 16
 19840 0004 4FEA4104 		lsl	r4, r1, #1
 19841              		.cfi_offset 14, -4
 19842              		.cfi_offset 6, -8
 19843              		.cfi_offset 5, -12
 19844              		.cfi_offset 4, -16
 19845              		.loc 1 939 0
 19846 0008 0BD9     		bls	.L71
 940:../Libraries/STM32F10x_StdPeriph_Driver/src/stm32f10x_adc.c ****   {
 941:../Libraries/STM32F10x_StdPeriph_Driver/src/stm32f10x_adc.c ****     /* Get the old register value */
 942:../Libraries/STM32F10x_StdPeriph_Driver/src/stm32f10x_adc.c ****     tmpreg1 = ADCx->SMPR1;
 943:../Libraries/STM32F10x_StdPeriph_Driver/src/stm32f10x_adc.c ****     /* Calculate the mask to clear */
 944:../Libraries/STM32F10x_StdPeriph_Driver/src/stm32f10x_adc.c ****     tmpreg2 = SMPR1_SMP_Set << (3*(ADC_Channel - 10));
 19847              		.loc 1 944 0
 19848 000a 6418     		adds	r4, r4, r1
 19849 000c 1E3C     		subs	r4, r4, #30
 19850 000e 0725     		movs	r5, #7
 19851 0010 A540     		lsls	r5, r5, r4
 945:../Libraries/STM32F10x_StdPeriph_Driver/src/stm32f10x_adc.c ****     /* Clear the old channel sample time */
 946:../Libraries/STM32F10x_StdPeriph_Driver/src/stm32f10x_adc.c ****     tmpreg1 &= ~tmpreg2;
 947:../Libraries/STM32F10x_StdPeriph_Driver/src/stm32f10x_adc.c ****     /* Calculate the mask to set */
 948:../Libraries/STM32F10x_StdPeriph_Driver/src/stm32f10x_adc.c ****     tmpreg2 = (uint32_t)ADC_SampleTime << (3*(ADC_Channel - 10));
 19852              		.loc 1 948 0
 19853 0012 A340     		lsls	r3, r3, r4
 19854              	.LVL86:
 942:../Libraries/STM32F10x_StdPeriph_Driver/src/stm32f10x_adc.c ****     tmpreg1 = ADCx->SMPR1;
 19855              		.loc 1 942 0
 19856 0014 C668     		ldr	r6, [r0, #12]
 19857              	.LVL87:
 946:../Libraries/STM32F10x_StdPeriph_Driver/src/stm32f10x_adc.c ****     tmpreg1 &= ~tmpreg2;
 19858              		.loc 1 946 0
 19859 0016 26EA0505 		bic	r5, r6, r5
 19860              	.LVL88:
 949:../Libraries/STM32F10x_StdPeriph_Driver/src/stm32f10x_adc.c ****     /* Set the new channel sample time */
 950:../Libraries/STM32F10x_StdPeriph_Driver/src/stm32f10x_adc.c ****     tmpreg1 |= tmpreg2;
 19861              		.loc 1 950 0
 19862 001a 45EA0304 		orr	r4, r5, r3
 19863              	.LVL89:
 951:../Libraries/STM32F10x_StdPeriph_Driver/src/stm32f10x_adc.c ****     /* Store the new register value */
 952:../Libraries/STM32F10x_StdPeriph_Driver/src/stm32f10x_adc.c ****     ADCx->SMPR1 = tmpreg1;
 19864              		.loc 1 952 0
 19865 001e C460     		str	r4, [r0, #12]
 19866 0020 0AE0     		b	.L72
 19867              	.LVL90:
 19868              	.L71:
 953:../Libraries/STM32F10x_StdPeriph_Driver/src/stm32f10x_adc.c ****   }
 954:../Libraries/STM32F10x_StdPeriph_Driver/src/stm32f10x_adc.c ****   else /* ADC_Channel include in ADC_Channel_[0..9] */
 955:../Libraries/STM32F10x_StdPeriph_Driver/src/stm32f10x_adc.c ****   {
 956:../Libraries/STM32F10x_StdPeriph_Driver/src/stm32f10x_adc.c ****     /* Get the old register value */
 957:../Libraries/STM32F10x_StdPeriph_Driver/src/stm32f10x_adc.c ****     tmpreg1 = ADCx->SMPR2;
 958:../Libraries/STM32F10x_StdPeriph_Driver/src/stm32f10x_adc.c ****     /* Calculate the mask to clear */
 959:../Libraries/STM32F10x_StdPeriph_Driver/src/stm32f10x_adc.c ****     tmpreg2 = SMPR2_SMP_Set << (3 * ADC_Channel);
 19869              		.loc 1 959 0
 19870 0022 6418     		adds	r4, r4, r1
 19871 0024 0725     		movs	r5, #7
 19872 0026 A540     		lsls	r5, r5, r4
 960:../Libraries/STM32F10x_StdPeriph_Driver/src/stm32f10x_adc.c ****     /* Clear the old channel sample time */
 961:../Libraries/STM32F10x_StdPeriph_Driver/src/stm32f10x_adc.c ****     tmpreg1 &= ~tmpreg2;
 962:../Libraries/STM32F10x_StdPeriph_Driver/src/stm32f10x_adc.c ****     /* Calculate the mask to set */
 963:../Libraries/STM32F10x_StdPeriph_Driver/src/stm32f10x_adc.c ****     tmpreg2 = (uint32_t)ADC_SampleTime << (3 * ADC_Channel);
 19873              		.loc 1 963 0
 19874 0028 13FA04F4 		lsls	r4, r3, r4
 957:../Libraries/STM32F10x_StdPeriph_Driver/src/stm32f10x_adc.c ****     tmpreg1 = ADCx->SMPR2;
 19875              		.loc 1 957 0
 19876 002c 0669     		ldr	r6, [r0, #16]
 19877              	.LVL91:
 961:../Libraries/STM32F10x_StdPeriph_Driver/src/stm32f10x_adc.c ****     tmpreg1 &= ~tmpreg2;
 19878              		.loc 1 961 0
 19879 002e 26EA0505 		bic	r5, r6, r5
 19880              	.LVL92:
 964:../Libraries/STM32F10x_StdPeriph_Driver/src/stm32f10x_adc.c ****     /* Set the new channel sample time */
 965:../Libraries/STM32F10x_StdPeriph_Driver/src/stm32f10x_adc.c ****     tmpreg1 |= tmpreg2;
 19881              		.loc 1 965 0
 19882 0032 45EA0403 		orr	r3, r5, r4
 19883              	.LVL93:
 966:../Libraries/STM32F10x_StdPeriph_Driver/src/stm32f10x_adc.c ****     /* Store the new register value */
 967:../Libraries/STM32F10x_StdPeriph_Driver/src/stm32f10x_adc.c ****     ADCx->SMPR2 = tmpreg1;
 19884              		.loc 1 967 0
 19885 0036 0361     		str	r3, [r0, #16]
 19886              	.LVL94:
 19887              	.L72:
 968:../Libraries/STM32F10x_StdPeriph_Driver/src/stm32f10x_adc.c ****   }
 969:../Libraries/STM32F10x_StdPeriph_Driver/src/stm32f10x_adc.c ****   /* Rank configuration */
 970:../Libraries/STM32F10x_StdPeriph_Driver/src/stm32f10x_adc.c ****   /* Get the old register value */
 971:../Libraries/STM32F10x_StdPeriph_Driver/src/stm32f10x_adc.c ****   tmpreg1 = ADCx->JSQR;
 19888              		.loc 1 971 0
 19889 0038 836B     		ldr	r3, [r0, #56]
 19890              	.LVL95:
 972:../Libraries/STM32F10x_StdPeriph_Driver/src/stm32f10x_adc.c ****   /* Get JL value: Number = JL+1 */
 973:../Libraries/STM32F10x_StdPeriph_Driver/src/stm32f10x_adc.c ****   tmpreg3 =  (tmpreg1 & JSQR_JL_Set)>> 20;
 19891              		.loc 1 973 0
 19892 003a 03F44014 		and	r4, r3, #3145728
 974:../Libraries/STM32F10x_StdPeriph_Driver/src/stm32f10x_adc.c ****   /* Calculate the mask to clear: ((Rank-1)+(4-JL-1)) */
 975:../Libraries/STM32F10x_StdPeriph_Driver/src/stm32f10x_adc.c ****   tmpreg2 = JSQR_JSQ_Set << (5 * (uint8_t)((Rank + 3) - (tmpreg3 + 1)));
 19893              		.loc 1 975 0
 19894 003e 6FEA1454 		mvn	r4, r4, lsr #20
 19895 0042 1219     		adds	r2, r2, r4
 19896              	.LVL96:
 19897 0044 0332     		adds	r2, r2, #3
 19898 0046 D2B2     		uxtb	r2, r2
 19899 0048 02EB8202 		add	r2, r2, r2, lsl #2
 19900              	.LVL97:
 19901 004c 1F24     		movs	r4, #31
 19902 004e 9440     		lsls	r4, r4, r2
 976:../Libraries/STM32F10x_StdPeriph_Driver/src/stm32f10x_adc.c ****   /* Clear the old JSQx bits for the selected rank */
 977:../Libraries/STM32F10x_StdPeriph_Driver/src/stm32f10x_adc.c ****   tmpreg1 &= ~tmpreg2;
 978:../Libraries/STM32F10x_StdPeriph_Driver/src/stm32f10x_adc.c ****   /* Calculate the mask to set: ((Rank-1)+(4-JL-1)) */
 979:../Libraries/STM32F10x_StdPeriph_Driver/src/stm32f10x_adc.c ****   tmpreg2 = (uint32_t)ADC_Channel << (5 * (uint8_t)((Rank + 3) - (tmpreg3 + 1)));
 19903              		.loc 1 979 0
 19904 0050 9140     		lsls	r1, r1, r2
 19905              	.LVL98:
 977:../Libraries/STM32F10x_StdPeriph_Driver/src/stm32f10x_adc.c ****   tmpreg1 &= ~tmpreg2;
 19906              		.loc 1 977 0
 19907 0052 23EA0403 		bic	r3, r3, r4
 19908              	.LVL99:
 980:../Libraries/STM32F10x_StdPeriph_Driver/src/stm32f10x_adc.c ****   /* Set the JSQx bits for the selected rank */
 981:../Libraries/STM32F10x_StdPeriph_Driver/src/stm32f10x_adc.c ****   tmpreg1 |= tmpreg2;
 19909              		.loc 1 981 0
 19910 0056 0B43     		orrs	r3, r3, r1
 19911              	.LVL100:
 982:../Libraries/STM32F10x_StdPeriph_Driver/src/stm32f10x_adc.c ****   /* Store the new register value */
 983:../Libraries/STM32F10x_StdPeriph_Driver/src/stm32f10x_adc.c ****   ADCx->JSQR = tmpreg1;
 19912              		.loc 1 983 0
 19913 0058 8363     		str	r3, [r0, #56]
 984:../Libraries/STM32F10x_StdPeriph_Driver/src/stm32f10x_adc.c **** }
 19914              		.loc 1 984 0
 19915 005a 70BD     		pop	{r4, r5, r6, pc}
 19916              		.cfi_endproc
 19917              	.LFE53:
 19919              		.section	.text.ADC_InjectedSequencerLengthConfig,"ax",%progbits
 19920              		.align	1
 19921              		.global	ADC_InjectedSequencerLengthConfig
 19922              		.thumb
 19923              		.thumb_func
 19925              	ADC_InjectedSequencerLengthConfig:
 19926              	.LFB54:
 985:../Libraries/STM32F10x_StdPeriph_Driver/src/stm32f10x_adc.c **** 
 986:../Libraries/STM32F10x_StdPeriph_Driver/src/stm32f10x_adc.c **** /**
 987:../Libraries/STM32F10x_StdPeriph_Driver/src/stm32f10x_adc.c ****   * @brief  Configures the sequencer length for injected channels
 988:../Libraries/STM32F10x_StdPeriph_Driver/src/stm32f10x_adc.c ****   * @param  ADCx: where x can be 1, 2 or 3 to select the ADC peripheral.
 989:../Libraries/STM32F10x_StdPeriph_Driver/src/stm32f10x_adc.c ****   * @param  Length: The sequencer length. 
 990:../Libraries/STM32F10x_StdPeriph_Driver/src/stm32f10x_adc.c ****   *   This parameter must be a number between 1 to 4.
 991:../Libraries/STM32F10x_StdPeriph_Driver/src/stm32f10x_adc.c ****   * @retval None
 992:../Libraries/STM32F10x_StdPeriph_Driver/src/stm32f10x_adc.c ****   */
 993:../Libraries/STM32F10x_StdPeriph_Driver/src/stm32f10x_adc.c **** void ADC_InjectedSequencerLengthConfig(ADC_TypeDef* ADCx, uint8_t Length)
 994:../Libraries/STM32F10x_StdPeriph_Driver/src/stm32f10x_adc.c **** {
 19927              		.loc 1 994 0
 19928              		.cfi_startproc
 19929              		@ args = 0, pretend = 0, frame = 0
 19930              		@ frame_needed = 0, uses_anonymous_args = 0
 19931              		@ link register save eliminated.
 19932              	.LVL101:
 995:../Libraries/STM32F10x_StdPeriph_Driver/src/stm32f10x_adc.c ****   uint32_t tmpreg1 = 0;
 996:../Libraries/STM32F10x_StdPeriph_Driver/src/stm32f10x_adc.c ****   uint32_t tmpreg2 = 0;
 997:../Libraries/STM32F10x_StdPeriph_Driver/src/stm32f10x_adc.c ****   /* Check the parameters */
 998:../Libraries/STM32F10x_StdPeriph_Driver/src/stm32f10x_adc.c ****   assert_param(IS_ADC_ALL_PERIPH(ADCx));
 999:../Libraries/STM32F10x_StdPeriph_Driver/src/stm32f10x_adc.c ****   assert_param(IS_ADC_INJECTED_LENGTH(Length));
1000:../Libraries/STM32F10x_StdPeriph_Driver/src/stm32f10x_adc.c ****   
1001:../Libraries/STM32F10x_StdPeriph_Driver/src/stm32f10x_adc.c ****   /* Get the old register value */
1002:../Libraries/STM32F10x_StdPeriph_Driver/src/stm32f10x_adc.c ****   tmpreg1 = ADCx->JSQR;
 19933              		.loc 1 1002 0
 19934 0000 836B     		ldr	r3, [r0, #56]
 19935              	.LVL102:
1003:../Libraries/STM32F10x_StdPeriph_Driver/src/stm32f10x_adc.c ****   /* Clear the old injected sequnence lenght JL bits */
1004:../Libraries/STM32F10x_StdPeriph_Driver/src/stm32f10x_adc.c ****   tmpreg1 &= JSQR_JL_Reset;
1005:../Libraries/STM32F10x_StdPeriph_Driver/src/stm32f10x_adc.c ****   /* Set the injected sequnence lenght JL bits */
1006:../Libraries/STM32F10x_StdPeriph_Driver/src/stm32f10x_adc.c ****   tmpreg2 = Length - 1; 
 19936              		.loc 1 1006 0
 19937 0002 0139     		subs	r1, r1, #1
 19938              	.LVL103:
1004:../Libraries/STM32F10x_StdPeriph_Driver/src/stm32f10x_adc.c ****   tmpreg1 &= JSQR_JL_Reset;
 19939              		.loc 1 1004 0
 19940 0004 23F44013 		bic	r3, r3, #3145728
 19941              	.LVL104:
1007:../Libraries/STM32F10x_StdPeriph_Driver/src/stm32f10x_adc.c ****   tmpreg1 |= tmpreg2 << 20;
 19942              		.loc 1 1007 0
 19943 0008 43EA0153 		orr	r3, r3, r1, lsl #20
 19944              	.LVL105:
1008:../Libraries/STM32F10x_StdPeriph_Driver/src/stm32f10x_adc.c ****   /* Store the new register value */
1009:../Libraries/STM32F10x_StdPeriph_Driver/src/stm32f10x_adc.c ****   ADCx->JSQR = tmpreg1;
 19945              		.loc 1 1009 0
 19946 000c 8363     		str	r3, [r0, #56]
1010:../Libraries/STM32F10x_StdPeriph_Driver/src/stm32f10x_adc.c **** }
 19947              		.loc 1 1010 0
 19948 000e 7047     		bx	lr
 19949              		.cfi_endproc
 19950              	.LFE54:
 19952              		.section	.text.ADC_SetInjectedOffset,"ax",%progbits
 19953              		.align	1
 19954              		.global	ADC_SetInjectedOffset
 19955              		.thumb
 19956              		.thumb_func
 19958              	ADC_SetInjectedOffset:
 19959              	.LFB55:
1011:../Libraries/STM32F10x_StdPeriph_Driver/src/stm32f10x_adc.c **** 
1012:../Libraries/STM32F10x_StdPeriph_Driver/src/stm32f10x_adc.c **** /**
1013:../Libraries/STM32F10x_StdPeriph_Driver/src/stm32f10x_adc.c ****   * @brief  Set the injected channels conversion value offset
1014:../Libraries/STM32F10x_StdPeriph_Driver/src/stm32f10x_adc.c ****   * @param  ADCx: where x can be 1, 2 or 3 to select the ADC peripheral.
1015:../Libraries/STM32F10x_StdPeriph_Driver/src/stm32f10x_adc.c ****   * @param  ADC_InjectedChannel: the ADC injected channel to set its offset. 
1016:../Libraries/STM32F10x_StdPeriph_Driver/src/stm32f10x_adc.c ****   *   This parameter can be one of the following values:
1017:../Libraries/STM32F10x_StdPeriph_Driver/src/stm32f10x_adc.c ****   *     @arg ADC_InjectedChannel_1: Injected Channel1 selected
1018:../Libraries/STM32F10x_StdPeriph_Driver/src/stm32f10x_adc.c ****   *     @arg ADC_InjectedChannel_2: Injected Channel2 selected
1019:../Libraries/STM32F10x_StdPeriph_Driver/src/stm32f10x_adc.c ****   *     @arg ADC_InjectedChannel_3: Injected Channel3 selected
1020:../Libraries/STM32F10x_StdPeriph_Driver/src/stm32f10x_adc.c ****   *     @arg ADC_InjectedChannel_4: Injected Channel4 selected
1021:../Libraries/STM32F10x_StdPeriph_Driver/src/stm32f10x_adc.c ****   * @param  Offset: the offset value for the selected ADC injected channel
1022:../Libraries/STM32F10x_StdPeriph_Driver/src/stm32f10x_adc.c ****   *   This parameter must be a 12bit value.
1023:../Libraries/STM32F10x_StdPeriph_Driver/src/stm32f10x_adc.c ****   * @retval None
1024:../Libraries/STM32F10x_StdPeriph_Driver/src/stm32f10x_adc.c ****   */
1025:../Libraries/STM32F10x_StdPeriph_Driver/src/stm32f10x_adc.c **** void ADC_SetInjectedOffset(ADC_TypeDef* ADCx, uint8_t ADC_InjectedChannel, uint16_t Offset)
1026:../Libraries/STM32F10x_StdPeriph_Driver/src/stm32f10x_adc.c **** {
 19960              		.loc 1 1026 0
 19961              		.cfi_startproc
 19962              		@ args = 0, pretend = 0, frame = 8
 19963              		@ frame_needed = 0, uses_anonymous_args = 0
 19964              		@ link register save eliminated.
 19965              	.LVL106:
 19966 0000 82B0     		sub	sp, sp, #8
 19967              	.LCFI4:
 19968              		.cfi_def_cfa_offset 8
1027:../Libraries/STM32F10x_StdPeriph_Driver/src/stm32f10x_adc.c ****   __IO uint32_t tmp = 0;
 19969              		.loc 1 1027 0
 19970 0002 0023     		movs	r3, #0
 19971 0004 0193     		str	r3, [sp, #4]
 19972              	.LVL107:
1028:../Libraries/STM32F10x_StdPeriph_Driver/src/stm32f10x_adc.c ****   
1029:../Libraries/STM32F10x_StdPeriph_Driver/src/stm32f10x_adc.c ****   /* Check the parameters */
1030:../Libraries/STM32F10x_StdPeriph_Driver/src/stm32f10x_adc.c ****   assert_param(IS_ADC_ALL_PERIPH(ADCx));
1031:../Libraries/STM32F10x_StdPeriph_Driver/src/stm32f10x_adc.c ****   assert_param(IS_ADC_INJECTED_CHANNEL(ADC_InjectedChannel));
1032:../Libraries/STM32F10x_StdPeriph_Driver/src/stm32f10x_adc.c ****   assert_param(IS_ADC_OFFSET(Offset));  
1033:../Libraries/STM32F10x_StdPeriph_Driver/src/stm32f10x_adc.c ****   
1034:../Libraries/STM32F10x_StdPeriph_Driver/src/stm32f10x_adc.c ****   tmp = (uint32_t)ADCx;
 19973              		.loc 1 1034 0
 19974 0006 0190     		str	r0, [sp, #4]
1035:../Libraries/STM32F10x_StdPeriph_Driver/src/stm32f10x_adc.c ****   tmp += ADC_InjectedChannel;
 19975              		.loc 1 1035 0
 19976 0008 019B     		ldr	r3, [sp, #4]
 19977 000a CB18     		adds	r3, r1, r3
 19978              	.LVL108:
 19979 000c 0193     		str	r3, [sp, #4]
 19980              	.LVL109:
1036:../Libraries/STM32F10x_StdPeriph_Driver/src/stm32f10x_adc.c ****   
1037:../Libraries/STM32F10x_StdPeriph_Driver/src/stm32f10x_adc.c ****   /* Set the selected injected channel data offset */
1038:../Libraries/STM32F10x_StdPeriph_Driver/src/stm32f10x_adc.c ****   *(__IO uint32_t *) tmp = (uint32_t)Offset;
 19981              		.loc 1 1038 0
 19982 000e 019B     		ldr	r3, [sp, #4]
 19983              	.LVL110:
 19984 0010 1A60     		str	r2, [r3, #0]
1039:../Libraries/STM32F10x_StdPeriph_Driver/src/stm32f10x_adc.c **** }
 19985              		.loc 1 1039 0
 19986 0012 02B0     		add	sp, sp, #8
 19987 0014 7047     		bx	lr
 19988              		.cfi_endproc
 19989              	.LFE55:
 19991              		.section	.text.ADC_GetInjectedConversionValue,"ax",%progbits
 19992              		.align	1
 19993              		.global	ADC_GetInjectedConversionValue
 19994              		.thumb
 19995              		.thumb_func
 19997              	ADC_GetInjectedConversionValue:
 19998              	.LFB56:
1040:../Libraries/STM32F10x_StdPeriph_Driver/src/stm32f10x_adc.c **** 
1041:../Libraries/STM32F10x_StdPeriph_Driver/src/stm32f10x_adc.c **** /**
1042:../Libraries/STM32F10x_StdPeriph_Driver/src/stm32f10x_adc.c ****   * @brief  Returns the ADC injected channel conversion result
1043:../Libraries/STM32F10x_StdPeriph_Driver/src/stm32f10x_adc.c ****   * @param  ADCx: where x can be 1, 2 or 3 to select the ADC peripheral.
1044:../Libraries/STM32F10x_StdPeriph_Driver/src/stm32f10x_adc.c ****   * @param  ADC_InjectedChannel: the converted ADC injected channel.
1045:../Libraries/STM32F10x_StdPeriph_Driver/src/stm32f10x_adc.c ****   *   This parameter can be one of the following values:
1046:../Libraries/STM32F10x_StdPeriph_Driver/src/stm32f10x_adc.c ****   *     @arg ADC_InjectedChannel_1: Injected Channel1 selected
1047:../Libraries/STM32F10x_StdPeriph_Driver/src/stm32f10x_adc.c ****   *     @arg ADC_InjectedChannel_2: Injected Channel2 selected
1048:../Libraries/STM32F10x_StdPeriph_Driver/src/stm32f10x_adc.c ****   *     @arg ADC_InjectedChannel_3: Injected Channel3 selected
1049:../Libraries/STM32F10x_StdPeriph_Driver/src/stm32f10x_adc.c ****   *     @arg ADC_InjectedChannel_4: Injected Channel4 selected
1050:../Libraries/STM32F10x_StdPeriph_Driver/src/stm32f10x_adc.c ****   * @retval The Data conversion value.
1051:../Libraries/STM32F10x_StdPeriph_Driver/src/stm32f10x_adc.c ****   */
1052:../Libraries/STM32F10x_StdPeriph_Driver/src/stm32f10x_adc.c **** uint16_t ADC_GetInjectedConversionValue(ADC_TypeDef* ADCx, uint8_t ADC_InjectedChannel)
1053:../Libraries/STM32F10x_StdPeriph_Driver/src/stm32f10x_adc.c **** {
 19999              		.loc 1 1053 0
 20000              		.cfi_startproc
 20001              		@ args = 0, pretend = 0, frame = 8
 20002              		@ frame_needed = 0, uses_anonymous_args = 0
 20003              		@ link register save eliminated.
 20004              	.LVL111:
 20005 0000 82B0     		sub	sp, sp, #8
 20006              	.LCFI5:
 20007              		.cfi_def_cfa_offset 8
1054:../Libraries/STM32F10x_StdPeriph_Driver/src/stm32f10x_adc.c ****   __IO uint32_t tmp = 0;
 20008              		.loc 1 1054 0
 20009 0002 0023     		movs	r3, #0
 20010 0004 0193     		str	r3, [sp, #4]
 20011              	.LVL112:
1055:../Libraries/STM32F10x_StdPeriph_Driver/src/stm32f10x_adc.c ****   
1056:../Libraries/STM32F10x_StdPeriph_Driver/src/stm32f10x_adc.c ****   /* Check the parameters */
1057:../Libraries/STM32F10x_StdPeriph_Driver/src/stm32f10x_adc.c ****   assert_param(IS_ADC_ALL_PERIPH(ADCx));
1058:../Libraries/STM32F10x_StdPeriph_Driver/src/stm32f10x_adc.c ****   assert_param(IS_ADC_INJECTED_CHANNEL(ADC_InjectedChannel));
1059:../Libraries/STM32F10x_StdPeriph_Driver/src/stm32f10x_adc.c **** 
1060:../Libraries/STM32F10x_StdPeriph_Driver/src/stm32f10x_adc.c ****   tmp = (uint32_t)ADCx;
 20012              		.loc 1 1060 0
 20013 0006 0190     		str	r0, [sp, #4]
1061:../Libraries/STM32F10x_StdPeriph_Driver/src/stm32f10x_adc.c ****   tmp += ADC_InjectedChannel + JDR_Offset;
 20014              		.loc 1 1061 0
 20015 0008 019B     		ldr	r3, [sp, #4]
 20016 000a 2833     		adds	r3, r3, #40
 20017 000c 5B18     		adds	r3, r3, r1
 20018              	.LVL113:
 20019 000e 0193     		str	r3, [sp, #4]
 20020              	.LVL114:
1062:../Libraries/STM32F10x_StdPeriph_Driver/src/stm32f10x_adc.c ****   
1063:../Libraries/STM32F10x_StdPeriph_Driver/src/stm32f10x_adc.c ****   /* Returns the selected injected channel conversion data value */
1064:../Libraries/STM32F10x_StdPeriph_Driver/src/stm32f10x_adc.c ****   return (uint16_t) (*(__IO uint32_t*)  tmp);   
 20021              		.loc 1 1064 0
 20022 0010 019B     		ldr	r3, [sp, #4]
 20023              	.LVL115:
 20024 0012 1868     		ldr	r0, [r3, #0]
 20025              	.LVL116:
1065:../Libraries/STM32F10x_StdPeriph_Driver/src/stm32f10x_adc.c **** }
 20026              		.loc 1 1065 0
 20027 0014 80B2     		uxth	r0, r0
 20028 0016 02B0     		add	sp, sp, #8
 20029 0018 7047     		bx	lr
 20030              		.cfi_endproc
 20031              	.LFE56:
 20033              		.section	.text.ADC_AnalogWatchdogCmd,"ax",%progbits
 20034              		.align	1
 20035              		.global	ADC_AnalogWatchdogCmd
 20036              		.thumb
 20037              		.thumb_func
 20039              	ADC_AnalogWatchdogCmd:
 20040              	.LFB57:
1066:../Libraries/STM32F10x_StdPeriph_Driver/src/stm32f10x_adc.c **** 
1067:../Libraries/STM32F10x_StdPeriph_Driver/src/stm32f10x_adc.c **** /**
1068:../Libraries/STM32F10x_StdPeriph_Driver/src/stm32f10x_adc.c ****   * @brief  Enables or disables the analog watchdog on single/all regular
1069:../Libraries/STM32F10x_StdPeriph_Driver/src/stm32f10x_adc.c ****   *         or injected channels
1070:../Libraries/STM32F10x_StdPeriph_Driver/src/stm32f10x_adc.c ****   * @param  ADCx: where x can be 1, 2 or 3 to select the ADC peripheral.
1071:../Libraries/STM32F10x_StdPeriph_Driver/src/stm32f10x_adc.c ****   * @param  ADC_AnalogWatchdog: the ADC analog watchdog configuration.
1072:../Libraries/STM32F10x_StdPeriph_Driver/src/stm32f10x_adc.c ****   *   This parameter can be one of the following values:
1073:../Libraries/STM32F10x_StdPeriph_Driver/src/stm32f10x_adc.c ****   *     @arg ADC_AnalogWatchdog_SingleRegEnable: Analog watchdog on a single regular channel
1074:../Libraries/STM32F10x_StdPeriph_Driver/src/stm32f10x_adc.c ****   *     @arg ADC_AnalogWatchdog_SingleInjecEnable: Analog watchdog on a single injected channel
1075:../Libraries/STM32F10x_StdPeriph_Driver/src/stm32f10x_adc.c ****   *     @arg ADC_AnalogWatchdog_SingleRegOrInjecEnable: Analog watchdog on a single regular or inje
1076:../Libraries/STM32F10x_StdPeriph_Driver/src/stm32f10x_adc.c ****   *     @arg ADC_AnalogWatchdog_AllRegEnable: Analog watchdog on  all regular channel
1077:../Libraries/STM32F10x_StdPeriph_Driver/src/stm32f10x_adc.c ****   *     @arg ADC_AnalogWatchdog_AllInjecEnable: Analog watchdog on  all injected channel
1078:../Libraries/STM32F10x_StdPeriph_Driver/src/stm32f10x_adc.c ****   *     @arg ADC_AnalogWatchdog_AllRegAllInjecEnable: Analog watchdog on all regular and injected c
1079:../Libraries/STM32F10x_StdPeriph_Driver/src/stm32f10x_adc.c ****   *     @arg ADC_AnalogWatchdog_None: No channel guarded by the analog watchdog
1080:../Libraries/STM32F10x_StdPeriph_Driver/src/stm32f10x_adc.c ****   * @retval None	  
1081:../Libraries/STM32F10x_StdPeriph_Driver/src/stm32f10x_adc.c ****   */
1082:../Libraries/STM32F10x_StdPeriph_Driver/src/stm32f10x_adc.c **** void ADC_AnalogWatchdogCmd(ADC_TypeDef* ADCx, uint32_t ADC_AnalogWatchdog)
1083:../Libraries/STM32F10x_StdPeriph_Driver/src/stm32f10x_adc.c **** {
 20041              		.loc 1 1083 0
 20042              		.cfi_startproc
 20043              		@ args = 0, pretend = 0, frame = 0
 20044              		@ frame_needed = 0, uses_anonymous_args = 0
 20045              		@ link register save eliminated.
 20046              	.LVL117:
1084:../Libraries/STM32F10x_StdPeriph_Driver/src/stm32f10x_adc.c ****   uint32_t tmpreg = 0;
1085:../Libraries/STM32F10x_StdPeriph_Driver/src/stm32f10x_adc.c ****   /* Check the parameters */
1086:../Libraries/STM32F10x_StdPeriph_Driver/src/stm32f10x_adc.c ****   assert_param(IS_ADC_ALL_PERIPH(ADCx));
1087:../Libraries/STM32F10x_StdPeriph_Driver/src/stm32f10x_adc.c ****   assert_param(IS_ADC_ANALOG_WATCHDOG(ADC_AnalogWatchdog));
1088:../Libraries/STM32F10x_StdPeriph_Driver/src/stm32f10x_adc.c ****   /* Get the old register value */
1089:../Libraries/STM32F10x_StdPeriph_Driver/src/stm32f10x_adc.c ****   tmpreg = ADCx->CR1;
 20047              		.loc 1 1089 0
 20048 0000 4368     		ldr	r3, [r0, #4]
 20049              	.LVL118:
1090:../Libraries/STM32F10x_StdPeriph_Driver/src/stm32f10x_adc.c ****   /* Clear AWDEN, AWDENJ and AWDSGL bits */
1091:../Libraries/STM32F10x_StdPeriph_Driver/src/stm32f10x_adc.c ****   tmpreg &= CR1_AWDMode_Reset;
 20050              		.loc 1 1091 0
 20051 0002 23F44003 		bic	r3, r3, #12582912
 20052              	.LVL119:
 20053 0006 23F40073 		bic	r3, r3, #512
 20054              	.LVL120:
1092:../Libraries/STM32F10x_StdPeriph_Driver/src/stm32f10x_adc.c ****   /* Set the analog watchdog enable mode */
1093:../Libraries/STM32F10x_StdPeriph_Driver/src/stm32f10x_adc.c ****   tmpreg |= ADC_AnalogWatchdog;
 20055              		.loc 1 1093 0
 20056 000a 41EA0303 		orr	r3, r1, r3
 20057              	.LVL121:
1094:../Libraries/STM32F10x_StdPeriph_Driver/src/stm32f10x_adc.c ****   /* Store the new register value */
1095:../Libraries/STM32F10x_StdPeriph_Driver/src/stm32f10x_adc.c ****   ADCx->CR1 = tmpreg;
 20058              		.loc 1 1095 0
 20059 000e 4360     		str	r3, [r0, #4]
1096:../Libraries/STM32F10x_StdPeriph_Driver/src/stm32f10x_adc.c **** }
 20060              		.loc 1 1096 0
 20061 0010 7047     		bx	lr
 20062              		.cfi_endproc
 20063              	.LFE57:
 20065              		.section	.text.ADC_AnalogWatchdogThresholdsConfig,"ax",%progbits
 20066              		.align	1
 20067              		.global	ADC_AnalogWatchdogThresholdsConfig
 20068              		.thumb
 20069              		.thumb_func
 20071              	ADC_AnalogWatchdogThresholdsConfig:
 20072              	.LFB58:
1097:../Libraries/STM32F10x_StdPeriph_Driver/src/stm32f10x_adc.c **** 
1098:../Libraries/STM32F10x_StdPeriph_Driver/src/stm32f10x_adc.c **** /**
1099:../Libraries/STM32F10x_StdPeriph_Driver/src/stm32f10x_adc.c ****   * @brief  Configures the high and low thresholds of the analog watchdog.
1100:../Libraries/STM32F10x_StdPeriph_Driver/src/stm32f10x_adc.c ****   * @param  ADCx: where x can be 1, 2 or 3 to select the ADC peripheral.
1101:../Libraries/STM32F10x_StdPeriph_Driver/src/stm32f10x_adc.c ****   * @param  HighThreshold: the ADC analog watchdog High threshold value.
1102:../Libraries/STM32F10x_StdPeriph_Driver/src/stm32f10x_adc.c ****   *   This parameter must be a 12bit value.
1103:../Libraries/STM32F10x_StdPeriph_Driver/src/stm32f10x_adc.c ****   * @param  LowThreshold: the ADC analog watchdog Low threshold value.
1104:../Libraries/STM32F10x_StdPeriph_Driver/src/stm32f10x_adc.c ****   *   This parameter must be a 12bit value.
1105:../Libraries/STM32F10x_StdPeriph_Driver/src/stm32f10x_adc.c ****   * @retval None
1106:../Libraries/STM32F10x_StdPeriph_Driver/src/stm32f10x_adc.c ****   */
1107:../Libraries/STM32F10x_StdPeriph_Driver/src/stm32f10x_adc.c **** void ADC_AnalogWatchdogThresholdsConfig(ADC_TypeDef* ADCx, uint16_t HighThreshold,
1108:../Libraries/STM32F10x_StdPeriph_Driver/src/stm32f10x_adc.c ****                                         uint16_t LowThreshold)
1109:../Libraries/STM32F10x_StdPeriph_Driver/src/stm32f10x_adc.c **** {
 20073              		.loc 1 1109 0
 20074              		.cfi_startproc
 20075              		@ args = 0, pretend = 0, frame = 0
 20076              		@ frame_needed = 0, uses_anonymous_args = 0
 20077              		@ link register save eliminated.
 20078              	.LVL122:
1110:../Libraries/STM32F10x_StdPeriph_Driver/src/stm32f10x_adc.c ****   /* Check the parameters */
1111:../Libraries/STM32F10x_StdPeriph_Driver/src/stm32f10x_adc.c ****   assert_param(IS_ADC_ALL_PERIPH(ADCx));
1112:../Libraries/STM32F10x_StdPeriph_Driver/src/stm32f10x_adc.c ****   assert_param(IS_ADC_THRESHOLD(HighThreshold));
1113:../Libraries/STM32F10x_StdPeriph_Driver/src/stm32f10x_adc.c ****   assert_param(IS_ADC_THRESHOLD(LowThreshold));
1114:../Libraries/STM32F10x_StdPeriph_Driver/src/stm32f10x_adc.c ****   /* Set the ADCx high threshold */
1115:../Libraries/STM32F10x_StdPeriph_Driver/src/stm32f10x_adc.c ****   ADCx->HTR = HighThreshold;
 20079              		.loc 1 1115 0
 20080 0000 4162     		str	r1, [r0, #36]
1116:../Libraries/STM32F10x_StdPeriph_Driver/src/stm32f10x_adc.c ****   /* Set the ADCx low threshold */
1117:../Libraries/STM32F10x_StdPeriph_Driver/src/stm32f10x_adc.c ****   ADCx->LTR = LowThreshold;
 20081              		.loc 1 1117 0
 20082 0002 8262     		str	r2, [r0, #40]
1118:../Libraries/STM32F10x_StdPeriph_Driver/src/stm32f10x_adc.c **** }
 20083              		.loc 1 1118 0
 20084 0004 7047     		bx	lr
 20085              		.cfi_endproc
 20086              	.LFE58:
 20088              		.section	.text.ADC_AnalogWatchdogSingleChannelConfig,"ax",%progbits
 20089              		.align	1
 20090              		.global	ADC_AnalogWatchdogSingleChannelConfig
 20091              		.thumb
 20092              		.thumb_func
 20094              	ADC_AnalogWatchdogSingleChannelConfig:
 20095              	.LFB59:
1119:../Libraries/STM32F10x_StdPeriph_Driver/src/stm32f10x_adc.c **** 
1120:../Libraries/STM32F10x_StdPeriph_Driver/src/stm32f10x_adc.c **** /**
1121:../Libraries/STM32F10x_StdPeriph_Driver/src/stm32f10x_adc.c ****   * @brief  Configures the analog watchdog guarded single channel
1122:../Libraries/STM32F10x_StdPeriph_Driver/src/stm32f10x_adc.c ****   * @param  ADCx: where x can be 1, 2 or 3 to select the ADC peripheral.
1123:../Libraries/STM32F10x_StdPeriph_Driver/src/stm32f10x_adc.c ****   * @param  ADC_Channel: the ADC channel to configure for the analog watchdog. 
1124:../Libraries/STM32F10x_StdPeriph_Driver/src/stm32f10x_adc.c ****   *   This parameter can be one of the following values:
1125:../Libraries/STM32F10x_StdPeriph_Driver/src/stm32f10x_adc.c ****   *     @arg ADC_Channel_0: ADC Channel0 selected
1126:../Libraries/STM32F10x_StdPeriph_Driver/src/stm32f10x_adc.c ****   *     @arg ADC_Channel_1: ADC Channel1 selected
1127:../Libraries/STM32F10x_StdPeriph_Driver/src/stm32f10x_adc.c ****   *     @arg ADC_Channel_2: ADC Channel2 selected
1128:../Libraries/STM32F10x_StdPeriph_Driver/src/stm32f10x_adc.c ****   *     @arg ADC_Channel_3: ADC Channel3 selected
1129:../Libraries/STM32F10x_StdPeriph_Driver/src/stm32f10x_adc.c ****   *     @arg ADC_Channel_4: ADC Channel4 selected
1130:../Libraries/STM32F10x_StdPeriph_Driver/src/stm32f10x_adc.c ****   *     @arg ADC_Channel_5: ADC Channel5 selected
1131:../Libraries/STM32F10x_StdPeriph_Driver/src/stm32f10x_adc.c ****   *     @arg ADC_Channel_6: ADC Channel6 selected
1132:../Libraries/STM32F10x_StdPeriph_Driver/src/stm32f10x_adc.c ****   *     @arg ADC_Channel_7: ADC Channel7 selected
1133:../Libraries/STM32F10x_StdPeriph_Driver/src/stm32f10x_adc.c ****   *     @arg ADC_Channel_8: ADC Channel8 selected
1134:../Libraries/STM32F10x_StdPeriph_Driver/src/stm32f10x_adc.c ****   *     @arg ADC_Channel_9: ADC Channel9 selected
1135:../Libraries/STM32F10x_StdPeriph_Driver/src/stm32f10x_adc.c ****   *     @arg ADC_Channel_10: ADC Channel10 selected
1136:../Libraries/STM32F10x_StdPeriph_Driver/src/stm32f10x_adc.c ****   *     @arg ADC_Channel_11: ADC Channel11 selected
1137:../Libraries/STM32F10x_StdPeriph_Driver/src/stm32f10x_adc.c ****   *     @arg ADC_Channel_12: ADC Channel12 selected
1138:../Libraries/STM32F10x_StdPeriph_Driver/src/stm32f10x_adc.c ****   *     @arg ADC_Channel_13: ADC Channel13 selected
1139:../Libraries/STM32F10x_StdPeriph_Driver/src/stm32f10x_adc.c ****   *     @arg ADC_Channel_14: ADC Channel14 selected
1140:../Libraries/STM32F10x_StdPeriph_Driver/src/stm32f10x_adc.c ****   *     @arg ADC_Channel_15: ADC Channel15 selected
1141:../Libraries/STM32F10x_StdPeriph_Driver/src/stm32f10x_adc.c ****   *     @arg ADC_Channel_16: ADC Channel16 selected
1142:../Libraries/STM32F10x_StdPeriph_Driver/src/stm32f10x_adc.c ****   *     @arg ADC_Channel_17: ADC Channel17 selected
1143:../Libraries/STM32F10x_StdPeriph_Driver/src/stm32f10x_adc.c ****   * @retval None
1144:../Libraries/STM32F10x_StdPeriph_Driver/src/stm32f10x_adc.c ****   */
1145:../Libraries/STM32F10x_StdPeriph_Driver/src/stm32f10x_adc.c **** void ADC_AnalogWatchdogSingleChannelConfig(ADC_TypeDef* ADCx, uint8_t ADC_Channel)
1146:../Libraries/STM32F10x_StdPeriph_Driver/src/stm32f10x_adc.c **** {
 20096              		.loc 1 1146 0
 20097              		.cfi_startproc
 20098              		@ args = 0, pretend = 0, frame = 0
 20099              		@ frame_needed = 0, uses_anonymous_args = 0
 20100              		@ link register save eliminated.
 20101              	.LVL123:
1147:../Libraries/STM32F10x_StdPeriph_Driver/src/stm32f10x_adc.c ****   uint32_t tmpreg = 0;
1148:../Libraries/STM32F10x_StdPeriph_Driver/src/stm32f10x_adc.c ****   /* Check the parameters */
1149:../Libraries/STM32F10x_StdPeriph_Driver/src/stm32f10x_adc.c ****   assert_param(IS_ADC_ALL_PERIPH(ADCx));
1150:../Libraries/STM32F10x_StdPeriph_Driver/src/stm32f10x_adc.c ****   assert_param(IS_ADC_CHANNEL(ADC_Channel));
1151:../Libraries/STM32F10x_StdPeriph_Driver/src/stm32f10x_adc.c ****   /* Get the old register value */
1152:../Libraries/STM32F10x_StdPeriph_Driver/src/stm32f10x_adc.c ****   tmpreg = ADCx->CR1;
 20102              		.loc 1 1152 0
 20103 0000 4368     		ldr	r3, [r0, #4]
 20104              	.LVL124:
1153:../Libraries/STM32F10x_StdPeriph_Driver/src/stm32f10x_adc.c ****   /* Clear the Analog watchdog channel select bits */
1154:../Libraries/STM32F10x_StdPeriph_Driver/src/stm32f10x_adc.c ****   tmpreg &= CR1_AWDCH_Reset;
 20105              		.loc 1 1154 0
 20106 0002 23F01F03 		bic	r3, r3, #31
 20107              	.LVL125:
1155:../Libraries/STM32F10x_StdPeriph_Driver/src/stm32f10x_adc.c ****   /* Set the Analog watchdog channel */
1156:../Libraries/STM32F10x_StdPeriph_Driver/src/stm32f10x_adc.c ****   tmpreg |= ADC_Channel;
 20108              		.loc 1 1156 0
 20109 0006 41EA0303 		orr	r3, r1, r3
 20110              	.LVL126:
1157:../Libraries/STM32F10x_StdPeriph_Driver/src/stm32f10x_adc.c ****   /* Store the new register value */
1158:../Libraries/STM32F10x_StdPeriph_Driver/src/stm32f10x_adc.c ****   ADCx->CR1 = tmpreg;
 20111              		.loc 1 1158 0
 20112 000a 4360     		str	r3, [r0, #4]
1159:../Libraries/STM32F10x_StdPeriph_Driver/src/stm32f10x_adc.c **** }
 20113              		.loc 1 1159 0
 20114 000c 7047     		bx	lr
 20115              		.cfi_endproc
 20116              	.LFE59:
 20118              		.section	.text.ADC_TempSensorVrefintCmd,"ax",%progbits
 20119              		.align	1
 20120              		.global	ADC_TempSensorVrefintCmd
 20121              		.thumb
 20122              		.thumb_func
 20124              	ADC_TempSensorVrefintCmd:
 20125              	.LFB60:
1160:../Libraries/STM32F10x_StdPeriph_Driver/src/stm32f10x_adc.c **** 
1161:../Libraries/STM32F10x_StdPeriph_Driver/src/stm32f10x_adc.c **** /**
1162:../Libraries/STM32F10x_StdPeriph_Driver/src/stm32f10x_adc.c ****   * @brief  Enables or disables the temperature sensor and Vrefint channel.
1163:../Libraries/STM32F10x_StdPeriph_Driver/src/stm32f10x_adc.c ****   * @param  NewState: new state of the temperature sensor.
1164:../Libraries/STM32F10x_StdPeriph_Driver/src/stm32f10x_adc.c ****   *   This parameter can be: ENABLE or DISABLE.
1165:../Libraries/STM32F10x_StdPeriph_Driver/src/stm32f10x_adc.c ****   * @retval None
1166:../Libraries/STM32F10x_StdPeriph_Driver/src/stm32f10x_adc.c ****   */
1167:../Libraries/STM32F10x_StdPeriph_Driver/src/stm32f10x_adc.c **** void ADC_TempSensorVrefintCmd(FunctionalState NewState)
1168:../Libraries/STM32F10x_StdPeriph_Driver/src/stm32f10x_adc.c **** {
 20126              		.loc 1 1168 0
 20127              		.cfi_startproc
 20128              		@ args = 0, pretend = 0, frame = 0
 20129              		@ frame_needed = 0, uses_anonymous_args = 0
 20130              		@ link register save eliminated.
 20131              	.LVL127:
 20132 0000 054B     		ldr	r3, .L83
1169:../Libraries/STM32F10x_StdPeriph_Driver/src/stm32f10x_adc.c ****   /* Check the parameters */
1170:../Libraries/STM32F10x_StdPeriph_Driver/src/stm32f10x_adc.c ****   assert_param(IS_FUNCTIONAL_STATE(NewState));
1171:../Libraries/STM32F10x_StdPeriph_Driver/src/stm32f10x_adc.c ****   if (NewState != DISABLE)
 20133              		.loc 1 1171 0
 20134 0002 18B1     		cbz	r0, .L80
1172:../Libraries/STM32F10x_StdPeriph_Driver/src/stm32f10x_adc.c ****   {
1173:../Libraries/STM32F10x_StdPeriph_Driver/src/stm32f10x_adc.c ****     /* Enable the temperature sensor and Vrefint channel*/
1174:../Libraries/STM32F10x_StdPeriph_Driver/src/stm32f10x_adc.c ****     ADC1->CR2 |= CR2_TSVREFE_Set;
 20135              		.loc 1 1174 0
 20136 0004 9A68     		ldr	r2, [r3, #8]
 20137 0006 42F40002 		orr	r2, r2, #8388608
 20138 000a 02E0     		b	.L82
 20139              	.L80:
1175:../Libraries/STM32F10x_StdPeriph_Driver/src/stm32f10x_adc.c ****   }
1176:../Libraries/STM32F10x_StdPeriph_Driver/src/stm32f10x_adc.c ****   else
1177:../Libraries/STM32F10x_StdPeriph_Driver/src/stm32f10x_adc.c ****   {
1178:../Libraries/STM32F10x_StdPeriph_Driver/src/stm32f10x_adc.c ****     /* Disable the temperature sensor and Vrefint channel*/
1179:../Libraries/STM32F10x_StdPeriph_Driver/src/stm32f10x_adc.c ****     ADC1->CR2 &= CR2_TSVREFE_Reset;
 20140              		.loc 1 1179 0
 20141 000c 9A68     		ldr	r2, [r3, #8]
 20142 000e 22F40002 		bic	r2, r2, #8388608
 20143              	.L82:
 20144 0012 9A60     		str	r2, [r3, #8]
 20145 0014 7047     		bx	lr
 20146              	.L84:
 20147 0016 00BF     		.align	2
 20148              	.L83:
 20149 0018 00240140 		.word	1073816576
 20150              		.cfi_endproc
 20151              	.LFE60:
 20153              		.section	.text.ADC_GetFlagStatus,"ax",%progbits
 20154              		.align	1
 20155              		.global	ADC_GetFlagStatus
 20156              		.thumb
 20157              		.thumb_func
 20159              	ADC_GetFlagStatus:
 20160              	.LFB61:
1180:../Libraries/STM32F10x_StdPeriph_Driver/src/stm32f10x_adc.c ****   }
1181:../Libraries/STM32F10x_StdPeriph_Driver/src/stm32f10x_adc.c **** }
1182:../Libraries/STM32F10x_StdPeriph_Driver/src/stm32f10x_adc.c **** 
1183:../Libraries/STM32F10x_StdPeriph_Driver/src/stm32f10x_adc.c **** /**
1184:../Libraries/STM32F10x_StdPeriph_Driver/src/stm32f10x_adc.c ****   * @brief  Checks whether the specified ADC flag is set or not.
1185:../Libraries/STM32F10x_StdPeriph_Driver/src/stm32f10x_adc.c ****   * @param  ADCx: where x can be 1, 2 or 3 to select the ADC peripheral.
1186:../Libraries/STM32F10x_StdPeriph_Driver/src/stm32f10x_adc.c ****   * @param  ADC_FLAG: specifies the flag to check. 
1187:../Libraries/STM32F10x_StdPeriph_Driver/src/stm32f10x_adc.c ****   *   This parameter can be one of the following values:
1188:../Libraries/STM32F10x_StdPeriph_Driver/src/stm32f10x_adc.c ****   *     @arg ADC_FLAG_AWD: Analog watchdog flag
1189:../Libraries/STM32F10x_StdPeriph_Driver/src/stm32f10x_adc.c ****   *     @arg ADC_FLAG_EOC: End of conversion flag
1190:../Libraries/STM32F10x_StdPeriph_Driver/src/stm32f10x_adc.c ****   *     @arg ADC_FLAG_JEOC: End of injected group conversion flag
1191:../Libraries/STM32F10x_StdPeriph_Driver/src/stm32f10x_adc.c ****   *     @arg ADC_FLAG_JSTRT: Start of injected group conversion flag
1192:../Libraries/STM32F10x_StdPeriph_Driver/src/stm32f10x_adc.c ****   *     @arg ADC_FLAG_STRT: Start of regular group conversion flag
1193:../Libraries/STM32F10x_StdPeriph_Driver/src/stm32f10x_adc.c ****   * @retval The new state of ADC_FLAG (SET or RESET).
1194:../Libraries/STM32F10x_StdPeriph_Driver/src/stm32f10x_adc.c ****   */
1195:../Libraries/STM32F10x_StdPeriph_Driver/src/stm32f10x_adc.c **** FlagStatus ADC_GetFlagStatus(ADC_TypeDef* ADCx, uint8_t ADC_FLAG)
1196:../Libraries/STM32F10x_StdPeriph_Driver/src/stm32f10x_adc.c **** {
 20161              		.loc 1 1196 0
 20162              		.cfi_startproc
 20163              		@ args = 0, pretend = 0, frame = 0
 20164              		@ frame_needed = 0, uses_anonymous_args = 0
 20165              		@ link register save eliminated.
 20166              	.LVL128:
1197:../Libraries/STM32F10x_StdPeriph_Driver/src/stm32f10x_adc.c ****   FlagStatus bitstatus = RESET;
1198:../Libraries/STM32F10x_StdPeriph_Driver/src/stm32f10x_adc.c ****   /* Check the parameters */
1199:../Libraries/STM32F10x_StdPeriph_Driver/src/stm32f10x_adc.c ****   assert_param(IS_ADC_ALL_PERIPH(ADCx));
1200:../Libraries/STM32F10x_StdPeriph_Driver/src/stm32f10x_adc.c ****   assert_param(IS_ADC_GET_FLAG(ADC_FLAG));
1201:../Libraries/STM32F10x_StdPeriph_Driver/src/stm32f10x_adc.c ****   /* Check the status of the specified ADC flag */
1202:../Libraries/STM32F10x_StdPeriph_Driver/src/stm32f10x_adc.c ****   if ((ADCx->SR & ADC_FLAG) != (uint8_t)RESET)
 20167              		.loc 1 1202 0
 20168 0000 0368     		ldr	r3, [r0, #0]
 20169              	.LVL129:
1203:../Libraries/STM32F10x_StdPeriph_Driver/src/stm32f10x_adc.c ****   {
1204:../Libraries/STM32F10x_StdPeriph_Driver/src/stm32f10x_adc.c ****     /* ADC_FLAG is set */
1205:../Libraries/STM32F10x_StdPeriph_Driver/src/stm32f10x_adc.c ****     bitstatus = SET;
 20170              		.loc 1 1205 0
 20171 0002 1942     		tst	r1, r3
1206:../Libraries/STM32F10x_StdPeriph_Driver/src/stm32f10x_adc.c ****   }
1207:../Libraries/STM32F10x_StdPeriph_Driver/src/stm32f10x_adc.c ****   else
1208:../Libraries/STM32F10x_StdPeriph_Driver/src/stm32f10x_adc.c ****   {
1209:../Libraries/STM32F10x_StdPeriph_Driver/src/stm32f10x_adc.c ****     /* ADC_FLAG is reset */
1210:../Libraries/STM32F10x_StdPeriph_Driver/src/stm32f10x_adc.c ****     bitstatus = RESET;
1211:../Libraries/STM32F10x_StdPeriph_Driver/src/stm32f10x_adc.c ****   }
1212:../Libraries/STM32F10x_StdPeriph_Driver/src/stm32f10x_adc.c ****   /* Return the ADC_FLAG status */
1213:../Libraries/STM32F10x_StdPeriph_Driver/src/stm32f10x_adc.c ****   return  bitstatus;
1214:../Libraries/STM32F10x_StdPeriph_Driver/src/stm32f10x_adc.c **** }
 20172              		.loc 1 1214 0
 20173 0004 0CBF     		ite	eq
 20174 0006 0020     		moveq	r0, #0
 20175 0008 0120     		movne	r0, #1
 20176              	.LVL130:
 20177 000a 7047     		bx	lr
 20178              		.cfi_endproc
 20179              	.LFE61:
 20181              		.section	.text.ADC_ClearFlag,"ax",%progbits
 20182              		.align	1
 20183              		.global	ADC_ClearFlag
 20184              		.thumb
 20185              		.thumb_func
 20187              	ADC_ClearFlag:
 20188              	.LFB62:
1215:../Libraries/STM32F10x_StdPeriph_Driver/src/stm32f10x_adc.c **** 
1216:../Libraries/STM32F10x_StdPeriph_Driver/src/stm32f10x_adc.c **** /**
1217:../Libraries/STM32F10x_StdPeriph_Driver/src/stm32f10x_adc.c ****   * @brief  Clears the ADCx's pending flags.
1218:../Libraries/STM32F10x_StdPeriph_Driver/src/stm32f10x_adc.c ****   * @param  ADCx: where x can be 1, 2 or 3 to select the ADC peripheral.
1219:../Libraries/STM32F10x_StdPeriph_Driver/src/stm32f10x_adc.c ****   * @param  ADC_FLAG: specifies the flag to clear. 
1220:../Libraries/STM32F10x_StdPeriph_Driver/src/stm32f10x_adc.c ****   *   This parameter can be any combination of the following values:
1221:../Libraries/STM32F10x_StdPeriph_Driver/src/stm32f10x_adc.c ****   *     @arg ADC_FLAG_AWD: Analog watchdog flag
1222:../Libraries/STM32F10x_StdPeriph_Driver/src/stm32f10x_adc.c ****   *     @arg ADC_FLAG_EOC: End of conversion flag
1223:../Libraries/STM32F10x_StdPeriph_Driver/src/stm32f10x_adc.c ****   *     @arg ADC_FLAG_JEOC: End of injected group conversion flag
1224:../Libraries/STM32F10x_StdPeriph_Driver/src/stm32f10x_adc.c ****   *     @arg ADC_FLAG_JSTRT: Start of injected group conversion flag
1225:../Libraries/STM32F10x_StdPeriph_Driver/src/stm32f10x_adc.c ****   *     @arg ADC_FLAG_STRT: Start of regular group conversion flag
1226:../Libraries/STM32F10x_StdPeriph_Driver/src/stm32f10x_adc.c ****   * @retval None
1227:../Libraries/STM32F10x_StdPeriph_Driver/src/stm32f10x_adc.c ****   */
1228:../Libraries/STM32F10x_StdPeriph_Driver/src/stm32f10x_adc.c **** void ADC_ClearFlag(ADC_TypeDef* ADCx, uint8_t ADC_FLAG)
1229:../Libraries/STM32F10x_StdPeriph_Driver/src/stm32f10x_adc.c **** {
 20189              		.loc 1 1229 0
 20190              		.cfi_startproc
 20191              		@ args = 0, pretend = 0, frame = 0
 20192              		@ frame_needed = 0, uses_anonymous_args = 0
 20193              		@ link register save eliminated.
 20194              	.LVL131:
1230:../Libraries/STM32F10x_StdPeriph_Driver/src/stm32f10x_adc.c ****   /* Check the parameters */
1231:../Libraries/STM32F10x_StdPeriph_Driver/src/stm32f10x_adc.c ****   assert_param(IS_ADC_ALL_PERIPH(ADCx));
1232:../Libraries/STM32F10x_StdPeriph_Driver/src/stm32f10x_adc.c ****   assert_param(IS_ADC_CLEAR_FLAG(ADC_FLAG));
1233:../Libraries/STM32F10x_StdPeriph_Driver/src/stm32f10x_adc.c ****   /* Clear the selected ADC flags */
1234:../Libraries/STM32F10x_StdPeriph_Driver/src/stm32f10x_adc.c ****   ADCx->SR = ~(uint32_t)ADC_FLAG;
 20195              		.loc 1 1234 0
 20196 0000 C943     		mvns	r1, r1
 20197              	.LVL132:
 20198 0002 0160     		str	r1, [r0, #0]
1235:../Libraries/STM32F10x_StdPeriph_Driver/src/stm32f10x_adc.c **** }
 20199              		.loc 1 1235 0
 20200 0004 7047     		bx	lr
 20201              		.cfi_endproc
 20202              	.LFE62:
 20204              		.section	.text.ADC_GetITStatus,"ax",%progbits
 20205              		.align	1
 20206              		.global	ADC_GetITStatus
 20207              		.thumb
 20208              		.thumb_func
 20210              	ADC_GetITStatus:
 20211              	.LFB63:
1236:../Libraries/STM32F10x_StdPeriph_Driver/src/stm32f10x_adc.c **** 
1237:../Libraries/STM32F10x_StdPeriph_Driver/src/stm32f10x_adc.c **** /**
1238:../Libraries/STM32F10x_StdPeriph_Driver/src/stm32f10x_adc.c ****   * @brief  Checks whether the specified ADC interrupt has occurred or not.
1239:../Libraries/STM32F10x_StdPeriph_Driver/src/stm32f10x_adc.c ****   * @param  ADCx: where x can be 1, 2 or 3 to select the ADC peripheral.
1240:../Libraries/STM32F10x_StdPeriph_Driver/src/stm32f10x_adc.c ****   * @param  ADC_IT: specifies the ADC interrupt source to check. 
1241:../Libraries/STM32F10x_StdPeriph_Driver/src/stm32f10x_adc.c ****   *   This parameter can be one of the following values:
1242:../Libraries/STM32F10x_StdPeriph_Driver/src/stm32f10x_adc.c ****   *     @arg ADC_IT_EOC: End of conversion interrupt mask
1243:../Libraries/STM32F10x_StdPeriph_Driver/src/stm32f10x_adc.c ****   *     @arg ADC_IT_AWD: Analog watchdog interrupt mask
1244:../Libraries/STM32F10x_StdPeriph_Driver/src/stm32f10x_adc.c ****   *     @arg ADC_IT_JEOC: End of injected conversion interrupt mask
1245:../Libraries/STM32F10x_StdPeriph_Driver/src/stm32f10x_adc.c ****   * @retval The new state of ADC_IT (SET or RESET).
1246:../Libraries/STM32F10x_StdPeriph_Driver/src/stm32f10x_adc.c ****   */
1247:../Libraries/STM32F10x_StdPeriph_Driver/src/stm32f10x_adc.c **** ITStatus ADC_GetITStatus(ADC_TypeDef* ADCx, uint16_t ADC_IT)
1248:../Libraries/STM32F10x_StdPeriph_Driver/src/stm32f10x_adc.c **** {
 20212              		.loc 1 1248 0
 20213              		.cfi_startproc
 20214              		@ args = 0, pretend = 0, frame = 0
 20215              		@ frame_needed = 0, uses_anonymous_args = 0
 20216              		@ link register save eliminated.
 20217              	.LVL133:
1249:../Libraries/STM32F10x_StdPeriph_Driver/src/stm32f10x_adc.c ****   ITStatus bitstatus = RESET;
1250:../Libraries/STM32F10x_StdPeriph_Driver/src/stm32f10x_adc.c ****   uint32_t itmask = 0, enablestatus = 0;
1251:../Libraries/STM32F10x_StdPeriph_Driver/src/stm32f10x_adc.c ****   /* Check the parameters */
1252:../Libraries/STM32F10x_StdPeriph_Driver/src/stm32f10x_adc.c ****   assert_param(IS_ADC_ALL_PERIPH(ADCx));
1253:../Libraries/STM32F10x_StdPeriph_Driver/src/stm32f10x_adc.c ****   assert_param(IS_ADC_GET_IT(ADC_IT));
1254:../Libraries/STM32F10x_StdPeriph_Driver/src/stm32f10x_adc.c ****   /* Get the ADC IT index */
1255:../Libraries/STM32F10x_StdPeriph_Driver/src/stm32f10x_adc.c ****   itmask = ADC_IT >> 8;
1256:../Libraries/STM32F10x_StdPeriph_Driver/src/stm32f10x_adc.c ****   /* Get the ADC_IT enable bit status */
1257:../Libraries/STM32F10x_StdPeriph_Driver/src/stm32f10x_adc.c ****   enablestatus = (ADCx->CR1 & (uint8_t)ADC_IT) ;
 20218              		.loc 1 1257 0
 20219 0000 4368     		ldr	r3, [r0, #4]
 20220              	.LVL134:
1258:../Libraries/STM32F10x_StdPeriph_Driver/src/stm32f10x_adc.c ****   /* Check the status of the specified ADC interrupt */
1259:../Libraries/STM32F10x_StdPeriph_Driver/src/stm32f10x_adc.c ****   if (((ADCx->SR & itmask) != (uint32_t)RESET) && enablestatus)
 20221              		.loc 1 1259 0
 20222 0002 0068     		ldr	r0, [r0, #0]
 20223              	.LVL135:
 20224 0004 10EA1120 		ands	r0, r0, r1, lsr #8
 20225 0008 04D0     		beq	.L88
1257:../Libraries/STM32F10x_StdPeriph_Driver/src/stm32f10x_adc.c ****   enablestatus = (ADCx->CR1 & (uint8_t)ADC_IT) ;
 20226              		.loc 1 1257 0 discriminator 1
 20227 000a C9B2     		uxtb	r1, r1
 20228              	.LVL136:
1260:../Libraries/STM32F10x_StdPeriph_Driver/src/stm32f10x_adc.c ****   {
1261:../Libraries/STM32F10x_StdPeriph_Driver/src/stm32f10x_adc.c ****     /* ADC_IT is set */
1262:../Libraries/STM32F10x_StdPeriph_Driver/src/stm32f10x_adc.c ****     bitstatus = SET;
 20229              		.loc 1 1262 0 discriminator 1
 20230 000c 1942     		tst	r1, r3
 20231 000e 0CBF     		ite	eq
 20232 0010 0020     		moveq	r0, #0
 20233 0012 0120     		movne	r0, #1
 20234              	.L88:
 20235              	.LVL137:
1263:../Libraries/STM32F10x_StdPeriph_Driver/src/stm32f10x_adc.c ****   }
1264:../Libraries/STM32F10x_StdPeriph_Driver/src/stm32f10x_adc.c ****   else
1265:../Libraries/STM32F10x_StdPeriph_Driver/src/stm32f10x_adc.c ****   {
1266:../Libraries/STM32F10x_StdPeriph_Driver/src/stm32f10x_adc.c ****     /* ADC_IT is reset */
1267:../Libraries/STM32F10x_StdPeriph_Driver/src/stm32f10x_adc.c ****     bitstatus = RESET;
1268:../Libraries/STM32F10x_StdPeriph_Driver/src/stm32f10x_adc.c ****   }
1269:../Libraries/STM32F10x_StdPeriph_Driver/src/stm32f10x_adc.c ****   /* Return the ADC_IT status */
1270:../Libraries/STM32F10x_StdPeriph_Driver/src/stm32f10x_adc.c ****   return  bitstatus;
1271:../Libraries/STM32F10x_StdPeriph_Driver/src/stm32f10x_adc.c **** }
 20236              		.loc 1 1271 0
 20237 0014 7047     		bx	lr
 20238              		.cfi_endproc
 20239              	.LFE63:
 20241              		.section	.text.ADC_ClearITPendingBit,"ax",%progbits
 20242              		.align	1
 20243              		.global	ADC_ClearITPendingBit
 20244              		.thumb
 20245              		.thumb_func
 20247              	ADC_ClearITPendingBit:
 20248              	.LFB64:
1272:../Libraries/STM32F10x_StdPeriph_Driver/src/stm32f10x_adc.c **** 
1273:../Libraries/STM32F10x_StdPeriph_Driver/src/stm32f10x_adc.c **** /**
1274:../Libraries/STM32F10x_StdPeriph_Driver/src/stm32f10x_adc.c ****   * @brief  Clears the ADCx's interrupt pending bits.
1275:../Libraries/STM32F10x_StdPeriph_Driver/src/stm32f10x_adc.c ****   * @param  ADCx: where x can be 1, 2 or 3 to select the ADC peripheral.
1276:../Libraries/STM32F10x_StdPeriph_Driver/src/stm32f10x_adc.c ****   * @param  ADC_IT: specifies the ADC interrupt pending bit to clear.
1277:../Libraries/STM32F10x_StdPeriph_Driver/src/stm32f10x_adc.c ****   *   This parameter can be any combination of the following values:
1278:../Libraries/STM32F10x_StdPeriph_Driver/src/stm32f10x_adc.c ****   *     @arg ADC_IT_EOC: End of conversion interrupt mask
1279:../Libraries/STM32F10x_StdPeriph_Driver/src/stm32f10x_adc.c ****   *     @arg ADC_IT_AWD: Analog watchdog interrupt mask
1280:../Libraries/STM32F10x_StdPeriph_Driver/src/stm32f10x_adc.c ****   *     @arg ADC_IT_JEOC: End of injected conversion interrupt mask
1281:../Libraries/STM32F10x_StdPeriph_Driver/src/stm32f10x_adc.c ****   * @retval None
1282:../Libraries/STM32F10x_StdPeriph_Driver/src/stm32f10x_adc.c ****   */
1283:../Libraries/STM32F10x_StdPeriph_Driver/src/stm32f10x_adc.c **** void ADC_ClearITPendingBit(ADC_TypeDef* ADCx, uint16_t ADC_IT)
1284:../Libraries/STM32F10x_StdPeriph_Driver/src/stm32f10x_adc.c **** {
 20249              		.loc 1 1284 0
 20250              		.cfi_startproc
 20251              		@ args = 0, pretend = 0, frame = 0
 20252              		@ frame_needed = 0, uses_anonymous_args = 0
 20253              		@ link register save eliminated.
 20254              	.LVL138:
1285:../Libraries/STM32F10x_StdPeriph_Driver/src/stm32f10x_adc.c ****   uint8_t itmask = 0;
1286:../Libraries/STM32F10x_StdPeriph_Driver/src/stm32f10x_adc.c ****   /* Check the parameters */
1287:../Libraries/STM32F10x_StdPeriph_Driver/src/stm32f10x_adc.c ****   assert_param(IS_ADC_ALL_PERIPH(ADCx));
1288:../Libraries/STM32F10x_StdPeriph_Driver/src/stm32f10x_adc.c ****   assert_param(IS_ADC_IT(ADC_IT));
1289:../Libraries/STM32F10x_StdPeriph_Driver/src/stm32f10x_adc.c ****   /* Get the ADC IT index */
1290:../Libraries/STM32F10x_StdPeriph_Driver/src/stm32f10x_adc.c ****   itmask = (uint8_t)(ADC_IT >> 8);
1291:../Libraries/STM32F10x_StdPeriph_Driver/src/stm32f10x_adc.c ****   /* Clear the selected ADC interrupt pending bits */
1292:../Libraries/STM32F10x_StdPeriph_Driver/src/stm32f10x_adc.c ****   ADCx->SR = ~(uint32_t)itmask;
 20255              		.loc 1 1292 0
 20256 0000 6FEA1121 		mvn	r1, r1, lsr #8
 20257              	.LVL139:
 20258 0004 0160     		str	r1, [r0, #0]
1293:../Libraries/STM32F10x_StdPeriph_Driver/src/stm32f10x_adc.c **** }
 20259              		.loc 1 1293 0
 20260 0006 7047     		bx	lr
 20261              		.cfi_endproc
 20262              	.LFE64:
 20264              		.text
 20265              	.Letext0: