   1              		.syntax unified
   2              		.cpu cortex-m3
   3              		.fpu softvfp
   4              		.eabi_attribute 20, 1
   5              		.eabi_attribute 21, 1
   6              		.eabi_attribute 23, 3
   7              		.eabi_attribute 24, 1
   8              		.eabi_attribute 25, 1
   9              		.eabi_attribute 26, 1
  10              		.eabi_attribute 30, 4
  11              		.eabi_attribute 18, 4
  12              		.thumb
  13              		.file	"main.cpp"
  23              	.Ltext0:
  24              		.file 1 "../src/main.cpp"
 16364              		.align	1
 16365              		.weak	_ZN20CPeripheralInterfaceIiED2Ev
 16366              		.thumb
 16367              		.thumb_func
 16369              	_ZN20CPeripheralInterfaceIiED2Ev:
 16370              	.LFB80:
   1:/home/artur/eclipseProjects/cyclingEfficiency/inc/CPeripheralInterface.hpp **** /*
   2:/home/artur/eclipseProjects/cyclingEfficiency/inc/CPeripheralInterface.hpp ****  * CPeripheralInterface.hpp
   3:/home/artur/eclipseProjects/cyclingEfficiency/inc/CPeripheralInterface.hpp ****  *
   4:/home/artur/eclipseProjects/cyclingEfficiency/inc/CPeripheralInterface.hpp ****  *  Created on: Jan 21, 2012
   5:/home/artur/eclipseProjects/cyclingEfficiency/inc/CPeripheralInterface.hpp ****  *      Author: artur
   6:/home/artur/eclipseProjects/cyclingEfficiency/inc/CPeripheralInterface.hpp ****  */
   7:/home/artur/eclipseProjects/cyclingEfficiency/inc/CPeripheralInterface.hpp **** 
   8:/home/artur/eclipseProjects/cyclingEfficiency/inc/CPeripheralInterface.hpp **** #ifndef CPERIPHERALINTERFACE_HPP_
   9:/home/artur/eclipseProjects/cyclingEfficiency/inc/CPeripheralInterface.hpp **** #define CPERIPHERALINTERFACE_HPP_
  10:/home/artur/eclipseProjects/cyclingEfficiency/inc/CPeripheralInterface.hpp **** 
  11:/home/artur/eclipseProjects/cyclingEfficiency/inc/CPeripheralInterface.hpp **** // ST headers
  12:/home/artur/eclipseProjects/cyclingEfficiency/inc/CPeripheralInterface.hpp **** #include <misc.h>
  13:/home/artur/eclipseProjects/cyclingEfficiency/inc/CPeripheralInterface.hpp **** 
  14:/home/artur/eclipseProjects/cyclingEfficiency/inc/CPeripheralInterface.hpp **** // our headers
  15:/home/artur/eclipseProjects/cyclingEfficiency/inc/CPeripheralInterface.hpp **** #include <SPeriphConfig.h>
  16:/home/artur/eclipseProjects/cyclingEfficiency/inc/CPeripheralInterface.hpp **** 
  17:/home/artur/eclipseProjects/cyclingEfficiency/inc/CPeripheralInterface.hpp **** /*
  18:/home/artur/eclipseProjects/cyclingEfficiency/inc/CPeripheralInterface.hpp ****  * base class for peripherals. Specifies interface for the peripherals.
  19:/home/artur/eclipseProjects/cyclingEfficiency/inc/CPeripheralInterface.hpp ****  * Purely virtual.
  20:/home/artur/eclipseProjects/cyclingEfficiency/inc/CPeripheralInterface.hpp ****  */
  21:/home/artur/eclipseProjects/cyclingEfficiency/inc/CPeripheralInterface.hpp **** template < typename T >
  22:/home/artur/eclipseProjects/cyclingEfficiency/inc/CPeripheralInterface.hpp **** class CPeripheralInterface
  23:/home/artur/eclipseProjects/cyclingEfficiency/inc/CPeripheralInterface.hpp **** {
  24:/home/artur/eclipseProjects/cyclingEfficiency/inc/CPeripheralInterface.hpp **** public:
  25:/home/artur/eclipseProjects/cyclingEfficiency/inc/CPeripheralInterface.hpp **** 
  26:/home/artur/eclipseProjects/cyclingEfficiency/inc/CPeripheralInterface.hpp **** 	CPeripheralInterface() {}
  27:/home/artur/eclipseProjects/cyclingEfficiency/inc/CPeripheralInterface.hpp **** 
  28:/home/artur/eclipseProjects/cyclingEfficiency/inc/CPeripheralInterface.hpp **** 	/* creates the object
  29:/home/artur/eclipseProjects/cyclingEfficiency/inc/CPeripheralInterface.hpp **** 	 *
  30:/home/artur/eclipseProjects/cyclingEfficiency/inc/CPeripheralInterface.hpp **** 	 * @param[in]	apb2PeriphClock	specifies which APB2 peripheral to refer to
  31:/home/artur/eclipseProjects/cyclingEfficiency/inc/CPeripheralInterface.hpp **** 	 *
  32:/home/artur/eclipseProjects/cyclingEfficiency/inc/CPeripheralInterface.hpp **** 	 */
  33:/home/artur/eclipseProjects/cyclingEfficiency/inc/CPeripheralInterface.hpp **** 	CPeripheralInterface( u32 apb2PeriphClock ) {}
  34:/home/artur/eclipseProjects/cyclingEfficiency/inc/CPeripheralInterface.hpp **** 
  35:/home/artur/eclipseProjects/cyclingEfficiency/inc/CPeripheralInterface.hpp **** 	/*
  36:/home/artur/eclipseProjects/cyclingEfficiency/inc/CPeripheralInterface.hpp **** 	 * initialises peripheral:
  37:/home/artur/eclipseProjects/cyclingEfficiency/inc/CPeripheralInterface.hpp **** 	 * - initialises its APB2 clock
  38:/home/artur/eclipseProjects/cyclingEfficiency/inc/CPeripheralInterface.hpp **** 	 * - sets a peripheral's configuration structure
  39:/home/artur/eclipseProjects/cyclingEfficiency/inc/CPeripheralInterface.hpp **** 	 * - initialises the peripheral with its configuration structure
  40:/home/artur/eclipseProjects/cyclingEfficiency/inc/CPeripheralInterface.hpp **** 	 *
  41:/home/artur/eclipseProjects/cyclingEfficiency/inc/CPeripheralInterface.hpp **** 	 * @param[in]	SPeriphConfig*	pointer to the configuration structure of
  42:/home/artur/eclipseProjects/cyclingEfficiency/inc/CPeripheralInterface.hpp **** 	 * 								a peripheral
  43:/home/artur/eclipseProjects/cyclingEfficiency/inc/CPeripheralInterface.hpp **** 	 *
  44:/home/artur/eclipseProjects/cyclingEfficiency/inc/CPeripheralInterface.hpp **** 	 * @param[out]	bool			True if configuration was successful, False otherwise
  45:/home/artur/eclipseProjects/cyclingEfficiency/inc/CPeripheralInterface.hpp **** 	 */
  46:/home/artur/eclipseProjects/cyclingEfficiency/inc/CPeripheralInterface.hpp **** 	virtual bool init( SPeriphConfig* ) {}
  47:/home/artur/eclipseProjects/cyclingEfficiency/inc/CPeripheralInterface.hpp **** 
  48:/home/artur/eclipseProjects/cyclingEfficiency/inc/CPeripheralInterface.hpp **** 	/*
  49:/home/artur/eclipseProjects/cyclingEfficiency/inc/CPeripheralInterface.hpp **** 	 * configure a peripheral's interrupts
  50:/home/artur/eclipseProjects/cyclingEfficiency/inc/CPeripheralInterface.hpp **** 	 */
  51:/home/artur/eclipseProjects/cyclingEfficiency/inc/CPeripheralInterface.hpp **** 	virtual bool configInterrupts( NVIC_InitTypeDef* ) {}
  52:/home/artur/eclipseProjects/cyclingEfficiency/inc/CPeripheralInterface.hpp **** 
  53:/home/artur/eclipseProjects/cyclingEfficiency/inc/CPeripheralInterface.hpp **** 	/*
  54:/home/artur/eclipseProjects/cyclingEfficiency/inc/CPeripheralInterface.hpp **** 	 * read data from a peripheral's global input buffer to the class' input buffer
  55:/home/artur/eclipseProjects/cyclingEfficiency/inc/CPeripheralInterface.hpp **** 	 */
  56:/home/artur/eclipseProjects/cyclingEfficiency/inc/CPeripheralInterface.hpp **** 	virtual bool read() {}
  57:/home/artur/eclipseProjects/cyclingEfficiency/inc/CPeripheralInterface.hpp **** 
  58:/home/artur/eclipseProjects/cyclingEfficiency/inc/CPeripheralInterface.hpp **** 	/*
  59:/home/artur/eclipseProjects/cyclingEfficiency/inc/CPeripheralInterface.hpp **** 	 * write data from the class' output buffer to a peripheral's global output buffer
  60:/home/artur/eclipseProjects/cyclingEfficiency/inc/CPeripheralInterface.hpp **** 	 */
  61:/home/artur/eclipseProjects/cyclingEfficiency/inc/CPeripheralInterface.hpp **** 	virtual bool write() {}
  62:/home/artur/eclipseProjects/cyclingEfficiency/inc/CPeripheralInterface.hpp **** 
  63:/home/artur/eclipseProjects/cyclingEfficiency/inc/CPeripheralInterface.hpp **** 	/*
  64:/home/artur/eclipseProjects/cyclingEfficiency/inc/CPeripheralInterface.hpp **** 	 * copy data from input buffer
  65:/home/artur/eclipseProjects/cyclingEfficiency/inc/CPeripheralInterface.hpp **** 	 */
  66:/home/artur/eclipseProjects/cyclingEfficiency/inc/CPeripheralInterface.hpp **** 	void getInputBufferData( T* ) {}
  67:/home/artur/eclipseProjects/cyclingEfficiency/inc/CPeripheralInterface.hpp **** 
  68:/home/artur/eclipseProjects/cyclingEfficiency/inc/CPeripheralInterface.hpp **** 	/*
  69:/home/artur/eclipseProjects/cyclingEfficiency/inc/CPeripheralInterface.hpp **** 	 * copy data to output buffer
  70:/home/artur/eclipseProjects/cyclingEfficiency/inc/CPeripheralInterface.hpp **** 	 */
  71:/home/artur/eclipseProjects/cyclingEfficiency/inc/CPeripheralInterface.hpp **** 	void setOutputBufferData( T* ){}
  72:/home/artur/eclipseProjects/cyclingEfficiency/inc/CPeripheralInterface.hpp **** 
  73:/home/artur/eclipseProjects/cyclingEfficiency/inc/CPeripheralInterface.hpp **** 	virtual ~CPeripheralInterface()
 16371              		.loc 11 73 0
 16372              		.cfi_startproc
 16373              		@ args = 0, pretend = 0, frame = 0
 16374              		@ frame_needed = 0, uses_anonymous_args = 0
 16375              		@ link register save eliminated.
 16376              	.LVL0:
 16377              	.LBB2:
  74:/home/artur/eclipseProjects/cyclingEfficiency/inc/CPeripheralInterface.hpp **** 	{
  75:/home/artur/eclipseProjects/cyclingEfficiency/inc/CPeripheralInterface.hpp **** 
  76:/home/artur/eclipseProjects/cyclingEfficiency/inc/CPeripheralInterface.hpp **** 	}
 16378              		.loc 11 76 0
 16379 0000 014B     		ldr	r3, .L3
 16380 0002 0360     		str	r3, [r0, #0]
 16381              	.LBE2:
 16382 0004 7047     		bx	lr
 16383              	.L4:
 16384 0006 00BF     		.align	2
 16385              	.L3:
 16386 0008 08000000 		.word	_ZTV20CPeripheralInterfaceIiE+8
 16387              		.cfi_endproc
 16388              	.LFE80:
 16390              		.weak	_ZN20CPeripheralInterfaceIiED1Ev
 16391              		.thumb_set _ZN20CPeripheralInterfaceIiED1Ev,_ZN20CPeripheralInterfaceIiED2Ev
 16392              		.section	.text._ZN4CDmaIiED2Ev,"axG",%progbits,_ZN4CDmaIiED5Ev,comdat
 16393              		.align	1
 16394              		.weak	_ZN4CDmaIiED2Ev
 16395              		.thumb
 16396              		.thumb_func
 16398              	_ZN4CDmaIiED2Ev:
 16399              	.LFB62:
   1:/home/artur/eclipseProjects/cyclingEfficiency/inc/CDma.hpp **** /*
   2:/home/artur/eclipseProjects/cyclingEfficiency/inc/CDma.hpp ****  * CDma.hpp
   3:/home/artur/eclipseProjects/cyclingEfficiency/inc/CDma.hpp ****  *
   4:/home/artur/eclipseProjects/cyclingEfficiency/inc/CDma.hpp ****  *  Created on: Jan 21, 2012
   5:/home/artur/eclipseProjects/cyclingEfficiency/inc/CDma.hpp ****  *      Author: artur
   6:/home/artur/eclipseProjects/cyclingEfficiency/inc/CDma.hpp ****  */
   7:/home/artur/eclipseProjects/cyclingEfficiency/inc/CDma.hpp **** 
   8:/home/artur/eclipseProjects/cyclingEfficiency/inc/CDma.hpp **** #ifndef CDMA_HPP_
   9:/home/artur/eclipseProjects/cyclingEfficiency/inc/CDma.hpp **** #define CDMA_HPP_
  10:/home/artur/eclipseProjects/cyclingEfficiency/inc/CDma.hpp **** 
  11:/home/artur/eclipseProjects/cyclingEfficiency/inc/CDma.hpp **** #include <CPeripheralInterface.hpp>
  12:/home/artur/eclipseProjects/cyclingEfficiency/inc/CDma.hpp **** 
  13:/home/artur/eclipseProjects/cyclingEfficiency/inc/CDma.hpp **** template < typename T >
  14:/home/artur/eclipseProjects/cyclingEfficiency/inc/CDma.hpp **** class CDma : public CPeripheralInterface< T > {
  15:/home/artur/eclipseProjects/cyclingEfficiency/inc/CDma.hpp **** public:
  16:/home/artur/eclipseProjects/cyclingEfficiency/inc/CDma.hpp **** 	CDma()
  17:/home/artur/eclipseProjects/cyclingEfficiency/inc/CDma.hpp **** 	{
  18:/home/artur/eclipseProjects/cyclingEfficiency/inc/CDma.hpp **** 	}
  19:/home/artur/eclipseProjects/cyclingEfficiency/inc/CDma.hpp **** 
  20:/home/artur/eclipseProjects/cyclingEfficiency/inc/CDma.hpp **** 	T test( T a )
  21:/home/artur/eclipseProjects/cyclingEfficiency/inc/CDma.hpp **** 	{
  22:/home/artur/eclipseProjects/cyclingEfficiency/inc/CDma.hpp **** 		const T b = 10;
  23:/home/artur/eclipseProjects/cyclingEfficiency/inc/CDma.hpp **** 
  24:/home/artur/eclipseProjects/cyclingEfficiency/inc/CDma.hpp **** 		if ( a>b )
  25:/home/artur/eclipseProjects/cyclingEfficiency/inc/CDma.hpp **** 			return 1;
  26:/home/artur/eclipseProjects/cyclingEfficiency/inc/CDma.hpp **** 		else
  27:/home/artur/eclipseProjects/cyclingEfficiency/inc/CDma.hpp **** 			return 0;
  28:/home/artur/eclipseProjects/cyclingEfficiency/inc/CDma.hpp **** 	}
  29:/home/artur/eclipseProjects/cyclingEfficiency/inc/CDma.hpp **** 
  30:/home/artur/eclipseProjects/cyclingEfficiency/inc/CDma.hpp **** 	/*
  31:/home/artur/eclipseProjects/cyclingEfficiency/inc/CDma.hpp **** 	 * copy data from input buffer
  32:/home/artur/eclipseProjects/cyclingEfficiency/inc/CDma.hpp **** 	 */
  33:/home/artur/eclipseProjects/cyclingEfficiency/inc/CDma.hpp **** 	void getInputBufferData( T* ) {}
  34:/home/artur/eclipseProjects/cyclingEfficiency/inc/CDma.hpp **** 
  35:/home/artur/eclipseProjects/cyclingEfficiency/inc/CDma.hpp **** 	/*
  36:/home/artur/eclipseProjects/cyclingEfficiency/inc/CDma.hpp **** 	 * copy data to output buffer
  37:/home/artur/eclipseProjects/cyclingEfficiency/inc/CDma.hpp **** 	 */
  38:/home/artur/eclipseProjects/cyclingEfficiency/inc/CDma.hpp **** 	void setOutputBufferData( T* ) {}
  39:/home/artur/eclipseProjects/cyclingEfficiency/inc/CDma.hpp **** 
  40:/home/artur/eclipseProjects/cyclingEfficiency/inc/CDma.hpp **** 	~CDma() {}
 16400              		.loc 10 40 0
 16401              		.cfi_startproc
 16402              		@ args = 0, pretend = 0, frame = 0
 16403              		@ frame_needed = 0, uses_anonymous_args = 0
 16404              	.LVL1:
 16405              	.LBB3:
 16406 0000 034B     		ldr	r3, .L7
 16407              	.LBE3:
 16408 0002 10B5     		push	{r4, lr}
 16409              	.LCFI0:
 16410              		.cfi_def_cfa_offset 8
 16411              		.loc 10 40 0
 16412 0004 0446     		mov	r4, r0
 16413              		.cfi_offset 14, -4
 16414              		.cfi_offset 4, -8
 16415              	.LBB4:
 16416 0006 0360     		str	r3, [r0, #0]
 16417 0008 FFF7FEFF 		bl	_ZN20CPeripheralInterfaceIiED2Ev
 16418              	.LVL2:
 16419              	.LBE4:
 16420 000c 2046     		mov	r0, r4
 16421 000e 10BD     		pop	{r4, pc}
 16422              	.L8:
 16423              		.align	2
 16424              	.L7:
 16425 0010 08000000 		.word	_ZTV4CDmaIiE+8
 16426              		.cfi_endproc
 16427              	.LFE62:
 16429              		.weak	_ZN4CDmaIiED1Ev
 16430              		.thumb_set _ZN4CDmaIiED1Ev,_ZN4CDmaIiED2Ev
 16431              		.section	.text._ZN20CPeripheralInterfaceIfED2Ev,"axG",%progbits,_ZN20CPeripheralInterfaceIfED5Ev,c
 16432              		.align	1
 16433              		.weak	_ZN20CPeripheralInterfaceIfED2Ev
 16434              		.thumb
 16435              		.thumb_func
 16437              	_ZN20CPeripheralInterfaceIfED2Ev:
 16438              	.LFB87:
  73:/home/artur/eclipseProjects/cyclingEfficiency/inc/CPeripheralInterface.hpp **** 	virtual ~CPeripheralInterface()
 16439              		.loc 11 73 0
 16440              		.cfi_startproc
 16441              		@ args = 0, pretend = 0, frame = 0
 16442              		@ frame_needed = 0, uses_anonymous_args = 0
 16443              		@ link register save eliminated.
 16444              	.LVL3:
 16445              	.LBB5:
 16446              		.loc 11 76 0
 16447 0000 014B     		ldr	r3, .L11
 16448 0002 0360     		str	r3, [r0, #0]
 16449              	.LBE5:
 16450 0004 7047     		bx	lr
 16451              	.L12:
 16452 0006 00BF     		.align	2
 16453              	.L11:
 16454 0008 08000000 		.word	_ZTV20CPeripheralInterfaceIfE+8
 16455              		.cfi_endproc
 16456              	.LFE87:
 16458              		.weak	_ZN20CPeripheralInterfaceIfED1Ev
 16459              		.thumb_set _ZN20CPeripheralInterfaceIfED1Ev,_ZN20CPeripheralInterfaceIfED2Ev
 16460              		.section	.text._ZN4CDmaIfED2Ev,"axG",%progbits,_ZN4CDmaIfED5Ev,comdat
 16461              		.align	1
 16462              		.weak	_ZN4CDmaIfED2Ev
 16463              		.thumb
 16464              		.thumb_func
 16466              	_ZN4CDmaIfED2Ev:
 16467              	.LFB92:
 16468              		.loc 10 40 0
 16469              		.cfi_startproc
 16470              		@ args = 0, pretend = 0, frame = 0
 16471              		@ frame_needed = 0, uses_anonymous_args = 0
 16472              	.LVL4:
 16473              	.LBB6:
 16474 0000 034B     		ldr	r3, .L15
 16475              	.LBE6:
 16476 0002 10B5     		push	{r4, lr}
 16477              	.LCFI1:
 16478              		.cfi_def_cfa_offset 8
 16479              		.loc 10 40 0
 16480 0004 0446     		mov	r4, r0
 16481              		.cfi_offset 14, -4
 16482              		.cfi_offset 4, -8
 16483              	.LBB7:
 16484 0006 0360     		str	r3, [r0, #0]
 16485 0008 FFF7FEFF 		bl	_ZN20CPeripheralInterfaceIfED2Ev
 16486              	.LVL5:
 16487              	.LBE7:
 16488 000c 2046     		mov	r0, r4
 16489 000e 10BD     		pop	{r4, pc}
 16490              	.L16:
 16491              		.align	2
 16492              	.L15:
 16493 0010 08000000 		.word	_ZTV4CDmaIfE+8
 16494              		.cfi_endproc
 16495              	.LFE92:
 16497              		.weak	_ZN4CDmaIfED1Ev
 16498              		.thumb_set _ZN4CDmaIfED1Ev,_ZN4CDmaIfED2Ev
 16499              		.section	.text._ZN4CDmaIfE4initEP13SPeriphConfig,"axG",%progbits,_ZN4CDmaIfE4initEP13SPeriphConfig
 16500              		.align	1
 16501              		.weak	_ZN4CDmaIfE4initEP13SPeriphConfig
 16502              		.thumb
 16503              		.thumb_func
 16505              	_ZN4CDmaIfE4initEP13SPeriphConfig:
 16506              	.LFB95:
  41:/home/artur/eclipseProjects/cyclingEfficiency/inc/CDma.hpp **** 
  42:/home/artur/eclipseProjects/cyclingEfficiency/inc/CDma.hpp **** private:
  43:/home/artur/eclipseProjects/cyclingEfficiency/inc/CDma.hpp **** 	/*
  44:/home/artur/eclipseProjects/cyclingEfficiency/inc/CDma.hpp **** 	 * initialises peripheral:
  45:/home/artur/eclipseProjects/cyclingEfficiency/inc/CDma.hpp **** 	 * - initialises its APB2 clock
  46:/home/artur/eclipseProjects/cyclingEfficiency/inc/CDma.hpp **** 	 * - sets a peripheral's configuration structure
  47:/home/artur/eclipseProjects/cyclingEfficiency/inc/CDma.hpp **** 	 * - initialises the peripheral with its configuration structure
  48:/home/artur/eclipseProjects/cyclingEfficiency/inc/CDma.hpp **** 	 *
  49:/home/artur/eclipseProjects/cyclingEfficiency/inc/CDma.hpp **** 	 * @param[in]	SPeriphConfig*	pointer to the configuration structure of
  50:/home/artur/eclipseProjects/cyclingEfficiency/inc/CDma.hpp **** 	 * 								a peripheral
  51:/home/artur/eclipseProjects/cyclingEfficiency/inc/CDma.hpp **** 	 *
  52:/home/artur/eclipseProjects/cyclingEfficiency/inc/CDma.hpp **** 	 * @param[out]	bool			True if configuration was successful, False otherwise
  53:/home/artur/eclipseProjects/cyclingEfficiency/inc/CDma.hpp **** 	 */
  54:/home/artur/eclipseProjects/cyclingEfficiency/inc/CDma.hpp **** 	bool init( SPeriphConfig* ) {}
 16507              		.loc 10 54 0
 16508              		.cfi_startproc
 16509              		@ args = 0, pretend = 0, frame = 0
 16510              		@ frame_needed = 0, uses_anonymous_args = 0
 16511              		@ link register save eliminated.
 16512              	.LVL6:
 16513              	.LVL7:
 16514              		.loc 10 54 0
 16515 0000 7047     		bx	lr
 16516              		.cfi_endproc
 16517              	.LFE95:
 16519              		.section	.text._ZN4CDmaIfE16configInterruptsEP16NVIC_InitTypeDef,"axG",%progbits,_ZN4CDmaIfE16conf
 16520              		.align	1
 16521              		.weak	_ZN4CDmaIfE16configInterruptsEP16NVIC_InitTypeDef
 16522              		.thumb
 16523              		.thumb_func
 16525              	_ZN4CDmaIfE16configInterruptsEP16NVIC_InitTypeDef:
 16526              	.LFB96:
  55:/home/artur/eclipseProjects/cyclingEfficiency/inc/CDma.hpp **** 
  56:/home/artur/eclipseProjects/cyclingEfficiency/inc/CDma.hpp **** 	/*
  57:/home/artur/eclipseProjects/cyclingEfficiency/inc/CDma.hpp **** 	 * read data from a peripheral's global input buffer to the class' input buffer
  58:/home/artur/eclipseProjects/cyclingEfficiency/inc/CDma.hpp **** 	 */
  59:/home/artur/eclipseProjects/cyclingEfficiency/inc/CDma.hpp **** 	bool read() {}
  60:/home/artur/eclipseProjects/cyclingEfficiency/inc/CDma.hpp **** 
  61:/home/artur/eclipseProjects/cyclingEfficiency/inc/CDma.hpp **** 	/*
  62:/home/artur/eclipseProjects/cyclingEfficiency/inc/CDma.hpp **** 	 * write data from the class' output buffer to a peripheral's global output buffer
  63:/home/artur/eclipseProjects/cyclingEfficiency/inc/CDma.hpp **** 	 */
  64:/home/artur/eclipseProjects/cyclingEfficiency/inc/CDma.hpp **** 	bool write() {}
  65:/home/artur/eclipseProjects/cyclingEfficiency/inc/CDma.hpp **** 
  66:/home/artur/eclipseProjects/cyclingEfficiency/inc/CDma.hpp **** 	/*
  67:/home/artur/eclipseProjects/cyclingEfficiency/inc/CDma.hpp **** 	 * configure a peripheral's interrupts
  68:/home/artur/eclipseProjects/cyclingEfficiency/inc/CDma.hpp **** 	 */
  69:/home/artur/eclipseProjects/cyclingEfficiency/inc/CDma.hpp **** 	bool configInterrupts( NVIC_InitTypeDef* ) {}
 16527              		.loc 10 69 0
 16528              		.cfi_startproc
 16529              		@ args = 0, pretend = 0, frame = 0
 16530              		@ frame_needed = 0, uses_anonymous_args = 0
 16531              		@ link register save eliminated.
 16532              	.LVL8:
 16533              	.LVL9:
 16534              		.loc 10 69 0
 16535 0000 7047     		bx	lr
 16536              		.cfi_endproc
 16537              	.LFE96:
 16539              		.section	.text._ZN4CDmaIfE4readEv,"axG",%progbits,_ZN4CDmaIfE4readEv,comdat
 16540              		.align	1
 16541              		.weak	_ZN4CDmaIfE4readEv
 16542              		.thumb
 16543              		.thumb_func
 16545              	_ZN4CDmaIfE4readEv:
 16546              	.LFB97:
  59:/home/artur/eclipseProjects/cyclingEfficiency/inc/CDma.hpp **** 	bool read() {}
 16547              		.loc 10 59 0
 16548              		.cfi_startproc
 16549              		@ args = 0, pretend = 0, frame = 0
 16550              		@ frame_needed = 0, uses_anonymous_args = 0
 16551              		@ link register save eliminated.
 16552              	.LVL10:
 16553              	.LVL11:
  59:/home/artur/eclipseProjects/cyclingEfficiency/inc/CDma.hpp **** 	bool read() {}
 16554              		.loc 10 59 0
 16555 0000 7047     		bx	lr
 16556              		.cfi_endproc
 16557              	.LFE97:
 16559              		.section	.text._ZN4CDmaIfE5writeEv,"axG",%progbits,_ZN4CDmaIfE5writeEv,comdat
 16560              		.align	1
 16561              		.weak	_ZN4CDmaIfE5writeEv
 16562              		.thumb
 16563              		.thumb_func
 16565              	_ZN4CDmaIfE5writeEv:
 16566              	.LFB98:
  64:/home/artur/eclipseProjects/cyclingEfficiency/inc/CDma.hpp **** 	bool write() {}
 16567              		.loc 10 64 0
 16568              		.cfi_startproc
 16569              		@ args = 0, pretend = 0, frame = 0
 16570              		@ frame_needed = 0, uses_anonymous_args = 0
 16571              		@ link register save eliminated.
 16572              	.LVL12:
 16573              	.LVL13:
  64:/home/artur/eclipseProjects/cyclingEfficiency/inc/CDma.hpp **** 	bool write() {}
 16574              		.loc 10 64 0
 16575 0000 7047     		bx	lr
 16576              		.cfi_endproc
 16577              	.LFE98:
 16579              		.section	.text._ZN20CPeripheralInterfaceIfE4initEP13SPeriphConfig,"axG",%progbits,_ZN20CPeripheral
 16580              		.align	1
 16581              		.weak	_ZN20CPeripheralInterfaceIfE4initEP13SPeriphConfig
 16582              		.thumb
 16583              		.thumb_func
 16585              	_ZN20CPeripheralInterfaceIfE4initEP13SPeriphConfig:
 16586              	.LFB99:
  46:/home/artur/eclipseProjects/cyclingEfficiency/inc/CPeripheralInterface.hpp **** 	virtual bool init( SPeriphConfig* ) {}
 16587              		.loc 11 46 0
 16588              		.cfi_startproc
 16589              		@ args = 0, pretend = 0, frame = 0
 16590              		@ frame_needed = 0, uses_anonymous_args = 0
 16591              		@ link register save eliminated.
 16592              	.LVL14:
 16593              	.LVL15:
  46:/home/artur/eclipseProjects/cyclingEfficiency/inc/CPeripheralInterface.hpp **** 	virtual bool init( SPeriphConfig* ) {}
 16594              		.loc 11 46 0
 16595 0000 7047     		bx	lr
 16596              		.cfi_endproc
 16597              	.LFE99:
 16599              		.section	.text._ZN20CPeripheralInterfaceIfE16configInterruptsEP16NVIC_InitTypeDef,"axG",%progbits,
 16600              		.align	1
 16601              		.weak	_ZN20CPeripheralInterfaceIfE16configInterruptsEP16NVIC_InitTypeDef
 16602              		.thumb
 16603              		.thumb_func
 16605              	_ZN20CPeripheralInterfaceIfE16configInterruptsEP16NVIC_InitTypeDef:
 16606              	.LFB100:
  51:/home/artur/eclipseProjects/cyclingEfficiency/inc/CPeripheralInterface.hpp **** 	virtual bool configInterrupts( NVIC_InitTypeDef* ) {}
 16607              		.loc 11 51 0
 16608              		.cfi_startproc
 16609              		@ args = 0, pretend = 0, frame = 0
 16610              		@ frame_needed = 0, uses_anonymous_args = 0
 16611              		@ link register save eliminated.
 16612              	.LVL16:
 16613              	.LVL17:
  51:/home/artur/eclipseProjects/cyclingEfficiency/inc/CPeripheralInterface.hpp **** 	virtual bool configInterrupts( NVIC_InitTypeDef* ) {}
 16614              		.loc 11 51 0
 16615 0000 7047     		bx	lr
 16616              		.cfi_endproc
 16617              	.LFE100:
 16619              		.section	.text._ZN20CPeripheralInterfaceIfE4readEv,"axG",%progbits,_ZN20CPeripheralInterfaceIfE4re
 16620              		.align	1
 16621              		.weak	_ZN20CPeripheralInterfaceIfE4readEv
 16622              		.thumb
 16623              		.thumb_func
 16625              	_ZN20CPeripheralInterfaceIfE4readEv:
 16626              	.LFB101:
  56:/home/artur/eclipseProjects/cyclingEfficiency/inc/CPeripheralInterface.hpp **** 	virtual bool read() {}
 16627              		.loc 11 56 0
 16628              		.cfi_startproc
 16629              		@ args = 0, pretend = 0, frame = 0
 16630              		@ frame_needed = 0, uses_anonymous_args = 0
 16631              		@ link register save eliminated.
 16632              	.LVL18:
 16633              	.LVL19:
  56:/home/artur/eclipseProjects/cyclingEfficiency/inc/CPeripheralInterface.hpp **** 	virtual bool read() {}
 16634              		.loc 11 56 0
 16635 0000 7047     		bx	lr
 16636              		.cfi_endproc
 16637              	.LFE101:
 16639              		.section	.text._ZN20CPeripheralInterfaceIfE5writeEv,"axG",%progbits,_ZN20CPeripheralInterfaceIfE5w
 16640              		.align	1
 16641              		.weak	_ZN20CPeripheralInterfaceIfE5writeEv
 16642              		.thumb
 16643              		.thumb_func
 16645              	_ZN20CPeripheralInterfaceIfE5writeEv:
 16646              	.LFB102:
  61:/home/artur/eclipseProjects/cyclingEfficiency/inc/CPeripheralInterface.hpp **** 	virtual bool write() {}
 16647              		.loc 11 61 0
 16648              		.cfi_startproc
 16649              		@ args = 0, pretend = 0, frame = 0
 16650              		@ frame_needed = 0, uses_anonymous_args = 0
 16651              		@ link register save eliminated.
 16652              	.LVL20:
 16653              	.LVL21:
  61:/home/artur/eclipseProjects/cyclingEfficiency/inc/CPeripheralInterface.hpp **** 	virtual bool write() {}
 16654              		.loc 11 61 0
 16655 0000 7047     		bx	lr
 16656              		.cfi_endproc
 16657              	.LFE102:
 16659              		.section	.text._ZN4CDmaIiE4initEP13SPeriphConfig,"axG",%progbits,_ZN4CDmaIiE4initEP13SPeriphConfig
 16660              		.align	1
 16661              		.weak	_ZN4CDmaIiE4initEP13SPeriphConfig
 16662              		.thumb
 16663              		.thumb_func
 16665              	_ZN4CDmaIiE4initEP13SPeriphConfig:
 16666              	.LFB103:
  54:/home/artur/eclipseProjects/cyclingEfficiency/inc/CDma.hpp **** 	bool init( SPeriphConfig* ) {}
 16667              		.loc 10 54 0
 16668              		.cfi_startproc
 16669              		@ args = 0, pretend = 0, frame = 0
 16670              		@ frame_needed = 0, uses_anonymous_args = 0
 16671              		@ link register save eliminated.
 16672              	.LVL22:
 16673              	.LVL23:
  54:/home/artur/eclipseProjects/cyclingEfficiency/inc/CDma.hpp **** 	bool init( SPeriphConfig* ) {}
 16674              		.loc 10 54 0
 16675 0000 7047     		bx	lr
 16676              		.cfi_endproc
 16677              	.LFE103:
 16679              		.section	.text._ZN4CDmaIiE16configInterruptsEP16NVIC_InitTypeDef,"axG",%progbits,_ZN4CDmaIiE16conf
 16680              		.align	1
 16681              		.weak	_ZN4CDmaIiE16configInterruptsEP16NVIC_InitTypeDef
 16682              		.thumb
 16683              		.thumb_func
 16685              	_ZN4CDmaIiE16configInterruptsEP16NVIC_InitTypeDef:
 16686              	.LFB104:
 16687              		.loc 10 69 0
 16688              		.cfi_startproc
 16689              		@ args = 0, pretend = 0, frame = 0
 16690              		@ frame_needed = 0, uses_anonymous_args = 0
 16691              		@ link register save eliminated.
 16692              	.LVL24:
 16693              	.LVL25:
 16694              		.loc 10 69 0
 16695 0000 7047     		bx	lr
 16696              		.cfi_endproc
 16697              	.LFE104:
 16699              		.section	.text._ZN4CDmaIiE4readEv,"axG",%progbits,_ZN4CDmaIiE4readEv,comdat
 16700              		.align	1
 16701              		.weak	_ZN4CDmaIiE4readEv
 16702              		.thumb
 16703              		.thumb_func
 16705              	_ZN4CDmaIiE4readEv:
 16706              	.LFB105:
  59:/home/artur/eclipseProjects/cyclingEfficiency/inc/CDma.hpp **** 	bool read() {}
 16707              		.loc 10 59 0
 16708              		.cfi_startproc
 16709              		@ args = 0, pretend = 0, frame = 0
 16710              		@ frame_needed = 0, uses_anonymous_args = 0
 16711              		@ link register save eliminated.
 16712              	.LVL26:
 16713              	.LVL27:
  59:/home/artur/eclipseProjects/cyclingEfficiency/inc/CDma.hpp **** 	bool read() {}
 16714              		.loc 10 59 0
 16715 0000 7047     		bx	lr
 16716              		.cfi_endproc
 16717              	.LFE105:
 16719              		.section	.text._ZN4CDmaIiE5writeEv,"axG",%progbits,_ZN4CDmaIiE5writeEv,comdat
 16720              		.align	1
 16721              		.weak	_ZN4CDmaIiE5writeEv
 16722              		.thumb
 16723              		.thumb_func
 16725              	_ZN4CDmaIiE5writeEv:
 16726              	.LFB106:
  64:/home/artur/eclipseProjects/cyclingEfficiency/inc/CDma.hpp **** 	bool write() {}
 16727              		.loc 10 64 0
 16728              		.cfi_startproc
 16729              		@ args = 0, pretend = 0, frame = 0
 16730              		@ frame_needed = 0, uses_anonymous_args = 0
 16731              		@ link register save eliminated.
 16732              	.LVL28:
 16733              	.LVL29:
  64:/home/artur/eclipseProjects/cyclingEfficiency/inc/CDma.hpp **** 	bool write() {}
 16734              		.loc 10 64 0
 16735 0000 7047     		bx	lr
 16736              		.cfi_endproc
 16737              	.LFE106:
 16739              		.section	.text._ZN20CPeripheralInterfaceIiE4initEP13SPeriphConfig,"axG",%progbits,_ZN20CPeripheral
 16740              		.align	1
 16741              		.weak	_ZN20CPeripheralInterfaceIiE4initEP13SPeriphConfig
 16742              		.thumb
 16743              		.thumb_func
 16745              	_ZN20CPeripheralInterfaceIiE4initEP13SPeriphConfig:
 16746              	.LFB107:
  46:/home/artur/eclipseProjects/cyclingEfficiency/inc/CPeripheralInterface.hpp **** 	virtual bool init( SPeriphConfig* ) {}
 16747              		.loc 11 46 0
 16748              		.cfi_startproc
 16749              		@ args = 0, pretend = 0, frame = 0
 16750              		@ frame_needed = 0, uses_anonymous_args = 0
 16751              		@ link register save eliminated.
 16752              	.LVL30:
 16753              	.LVL31:
  46:/home/artur/eclipseProjects/cyclingEfficiency/inc/CPeripheralInterface.hpp **** 	virtual bool init( SPeriphConfig* ) {}
 16754              		.loc 11 46 0
 16755 0000 7047     		bx	lr
 16756              		.cfi_endproc
 16757              	.LFE107:
 16759              		.section	.text._ZN20CPeripheralInterfaceIiE16configInterruptsEP16NVIC_InitTypeDef,"axG",%progbits,
 16760              		.align	1
 16761              		.weak	_ZN20CPeripheralInterfaceIiE16configInterruptsEP16NVIC_InitTypeDef
 16762              		.thumb
 16763              		.thumb_func
 16765              	_ZN20CPeripheralInterfaceIiE16configInterruptsEP16NVIC_InitTypeDef:
 16766              	.LFB108:
  51:/home/artur/eclipseProjects/cyclingEfficiency/inc/CPeripheralInterface.hpp **** 	virtual bool configInterrupts( NVIC_InitTypeDef* ) {}
 16767              		.loc 11 51 0
 16768              		.cfi_startproc
 16769              		@ args = 0, pretend = 0, frame = 0
 16770              		@ frame_needed = 0, uses_anonymous_args = 0
 16771              		@ link register save eliminated.
 16772              	.LVL32:
 16773              	.LVL33:
  51:/home/artur/eclipseProjects/cyclingEfficiency/inc/CPeripheralInterface.hpp **** 	virtual bool configInterrupts( NVIC_InitTypeDef* ) {}
 16774              		.loc 11 51 0
 16775 0000 7047     		bx	lr
 16776              		.cfi_endproc
 16777              	.LFE108:
 16779              		.section	.text._ZN20CPeripheralInterfaceIiE4readEv,"axG",%progbits,_ZN20CPeripheralInterfaceIiE4re
 16780              		.align	1
 16781              		.weak	_ZN20CPeripheralInterfaceIiE4readEv
 16782              		.thumb
 16783              		.thumb_func
 16785              	_ZN20CPeripheralInterfaceIiE4readEv:
 16786              	.LFB109:
  56:/home/artur/eclipseProjects/cyclingEfficiency/inc/CPeripheralInterface.hpp **** 	virtual bool read() {}
 16787              		.loc 11 56 0
 16788              		.cfi_startproc
 16789              		@ args = 0, pretend = 0, frame = 0
 16790              		@ frame_needed = 0, uses_anonymous_args = 0
 16791              		@ link register save eliminated.
 16792              	.LVL34:
 16793              	.LVL35:
  56:/home/artur/eclipseProjects/cyclingEfficiency/inc/CPeripheralInterface.hpp **** 	virtual bool read() {}
 16794              		.loc 11 56 0
 16795 0000 7047     		bx	lr
 16796              		.cfi_endproc
 16797              	.LFE109:
 16799              		.section	.text._ZN20CPeripheralInterfaceIiE5writeEv,"axG",%progbits,_ZN20CPeripheralInterfaceIiE5w
 16800              		.align	1
 16801              		.weak	_ZN20CPeripheralInterfaceIiE5writeEv
 16802              		.thumb
 16803              		.thumb_func
 16805              	_ZN20CPeripheralInterfaceIiE5writeEv:
 16806              	.LFB110:
  61:/home/artur/eclipseProjects/cyclingEfficiency/inc/CPeripheralInterface.hpp **** 	virtual bool write() {}
 16807              		.loc 11 61 0
 16808              		.cfi_startproc
 16809              		@ args = 0, pretend = 0, frame = 0
 16810              		@ frame_needed = 0, uses_anonymous_args = 0
 16811              		@ link register save eliminated.
 16812              	.LVL36:
 16813              	.LVL37:
  61:/home/artur/eclipseProjects/cyclingEfficiency/inc/CPeripheralInterface.hpp **** 	virtual bool write() {}
 16814              		.loc 11 61 0
 16815 0000 7047     		bx	lr
 16816              		.cfi_endproc
 16817              	.LFE110:
 16819              		.section	.text._ZN20CPeripheralInterfaceIiED0Ev,"axG",%progbits,_ZN20CPeripheralInterfaceIiED5Ev,c
 16820              		.align	1
 16821              		.weak	_ZN20CPeripheralInterfaceIiED0Ev
 16822              		.thumb
 16823              		.thumb_func
 16825              	_ZN20CPeripheralInterfaceIiED0Ev:
 16826              	.LFB82:
  73:/home/artur/eclipseProjects/cyclingEfficiency/inc/CPeripheralInterface.hpp **** 	virtual ~CPeripheralInterface()
 16827              		.loc 11 73 0
 16828              		.cfi_startproc
 16829              		@ args = 0, pretend = 0, frame = 0
 16830              		@ frame_needed = 0, uses_anonymous_args = 0
 16831              	.LVL38:
 16832 0000 10B5     		push	{r4, lr}
 16833              	.LCFI2:
 16834              		.cfi_def_cfa_offset 8
  73:/home/artur/eclipseProjects/cyclingEfficiency/inc/CPeripheralInterface.hpp **** 	virtual ~CPeripheralInterface()
 16835              		.loc 11 73 0
 16836 0002 0446     		mov	r4, r0
 16837              		.cfi_offset 14, -4
 16838              		.cfi_offset 4, -8
 16839              		.loc 11 76 0
 16840 0004 FFF7FEFF 		bl	_ZN20CPeripheralInterfaceIiED1Ev
 16841              	.LVL39:
 16842 0008 2046     		mov	r0, r4
 16843 000a FFF7FEFF 		bl	_ZdlPv
 16844 000e 2046     		mov	r0, r4
 16845 0010 10BD     		pop	{r4, pc}
 16846              		.cfi_endproc
 16847              	.LFE82:
 16849              		.section	.text._ZN4CDmaIfED0Ev,"axG",%progbits,_ZN4CDmaIfED5Ev,comdat
 16850              		.align	1
 16851              		.weak	_ZN4CDmaIfED0Ev
 16852              		.thumb
 16853              		.thumb_func
 16855              	_ZN4CDmaIfED0Ev:
 16856              	.LFB94:
  40:/home/artur/eclipseProjects/cyclingEfficiency/inc/CDma.hpp **** 	~CDma() {}
 16857              		.loc 10 40 0
 16858              		.cfi_startproc
 16859              		@ args = 0, pretend = 0, frame = 0
 16860              		@ frame_needed = 0, uses_anonymous_args = 0
 16861              	.LVL40:
 16862 0000 10B5     		push	{r4, lr}
 16863              	.LCFI3:
 16864              		.cfi_def_cfa_offset 8
  40:/home/artur/eclipseProjects/cyclingEfficiency/inc/CDma.hpp **** 	~CDma() {}
 16865              		.loc 10 40 0
 16866 0002 0446     		mov	r4, r0
 16867              		.cfi_offset 14, -4
 16868              		.cfi_offset 4, -8
 16869 0004 FFF7FEFF 		bl	_ZN4CDmaIfED1Ev
 16870              	.LVL41:
 16871 0008 2046     		mov	r0, r4
 16872 000a FFF7FEFF 		bl	_ZdlPv
 16873 000e 2046     		mov	r0, r4
 16874 0010 10BD     		pop	{r4, pc}
 16875              		.cfi_endproc
 16876              	.LFE94:
 16878              		.section	.text._ZN20CPeripheralInterfaceIfED0Ev,"axG",%progbits,_ZN20CPeripheralInterfaceIfED5Ev,c
 16879              		.align	1
 16880              		.weak	_ZN20CPeripheralInterfaceIfED0Ev
 16881              		.thumb
 16882              		.thumb_func
 16884              	_ZN20CPeripheralInterfaceIfED0Ev:
 16885              	.LFB89:
  73:/home/artur/eclipseProjects/cyclingEfficiency/inc/CPeripheralInterface.hpp **** 	virtual ~CPeripheralInterface()
 16886              		.loc 11 73 0
 16887              		.cfi_startproc
 16888              		@ args = 0, pretend = 0, frame = 0
 16889              		@ frame_needed = 0, uses_anonymous_args = 0
 16890              	.LVL42:
 16891 0000 10B5     		push	{r4, lr}
 16892              	.LCFI4:
 16893              		.cfi_def_cfa_offset 8
  73:/home/artur/eclipseProjects/cyclingEfficiency/inc/CPeripheralInterface.hpp **** 	virtual ~CPeripheralInterface()
 16894              		.loc 11 73 0
 16895 0002 0446     		mov	r4, r0
 16896              		.cfi_offset 14, -4
 16897              		.cfi_offset 4, -8
 16898              		.loc 11 76 0
 16899 0004 FFF7FEFF 		bl	_ZN20CPeripheralInterfaceIfED1Ev
 16900              	.LVL43:
 16901 0008 2046     		mov	r0, r4
 16902 000a FFF7FEFF 		bl	_ZdlPv
 16903 000e 2046     		mov	r0, r4
 16904 0010 10BD     		pop	{r4, pc}
 16905              		.cfi_endproc
 16906              	.LFE89:
 16908              		.section	.text._ZN4CDmaIiED0Ev,"axG",%progbits,_ZN4CDmaIiED5Ev,comdat
 16909              		.align	1
 16910              		.weak	_ZN4CDmaIiED0Ev
 16911              		.thumb
 16912              		.thumb_func
 16914              	_ZN4CDmaIiED0Ev:
 16915              	.LFB64:
  40:/home/artur/eclipseProjects/cyclingEfficiency/inc/CDma.hpp **** 	~CDma() {}
 16916              		.loc 10 40 0
 16917              		.cfi_startproc
 16918              		@ args = 0, pretend = 0, frame = 0
 16919              		@ frame_needed = 0, uses_anonymous_args = 0
 16920              	.LVL44:
 16921 0000 10B5     		push	{r4, lr}
 16922              	.LCFI5:
 16923              		.cfi_def_cfa_offset 8
  40:/home/artur/eclipseProjects/cyclingEfficiency/inc/CDma.hpp **** 	~CDma() {}
 16924              		.loc 10 40 0
 16925 0002 0446     		mov	r4, r0
 16926              		.cfi_offset 14, -4
 16927              		.cfi_offset 4, -8
 16928 0004 FFF7FEFF 		bl	_ZN4CDmaIiED1Ev
 16929              	.LVL45:
 16930 0008 2046     		mov	r0, r4
 16931 000a FFF7FEFF 		bl	_ZdlPv
 16932 000e 2046     		mov	r0, r4
 16933 0010 10BD     		pop	{r4, pc}
 16934              		.cfi_endproc
 16935              	.LFE64:
 16937              		.section	.text._ZN10shared_ptrI4CDmaIfEEC2EPS1_,"axG",%progbits,_ZN10shared_ptrI4CDmaIfEEC5EPS1_,c
 16938              		.align	1
 16939              		.weak	_ZN10shared_ptrI4CDmaIfEEC2EPS1_
 16940              		.thumb
 16941              		.thumb_func
 16943              	_ZN10shared_ptrI4CDmaIfEEC2EPS1_:
 16944              	.LFB70:
   1:/home/artur/eclipseProjects/cyclingEfficiency/interface/shared_ptr.hpp **** /*
   2:/home/artur/eclipseProjects/cyclingEfficiency/interface/shared_ptr.hpp ****  * shared_ptr.hpp
   3:/home/artur/eclipseProjects/cyclingEfficiency/interface/shared_ptr.hpp ****  *
   4:/home/artur/eclipseProjects/cyclingEfficiency/interface/shared_ptr.hpp ****  *  Created on: Jan 29, 2012
   5:/home/artur/eclipseProjects/cyclingEfficiency/interface/shared_ptr.hpp ****  *      Author: artur
   6:/home/artur/eclipseProjects/cyclingEfficiency/interface/shared_ptr.hpp ****  */
   7:/home/artur/eclipseProjects/cyclingEfficiency/interface/shared_ptr.hpp **** 
   8:/home/artur/eclipseProjects/cyclingEfficiency/interface/shared_ptr.hpp **** #ifndef SHARED_PTR_HPP_
   9:/home/artur/eclipseProjects/cyclingEfficiency/interface/shared_ptr.hpp **** #define SHARED_PTR_HPP_
  10:/home/artur/eclipseProjects/cyclingEfficiency/interface/shared_ptr.hpp **** 
  11:/home/artur/eclipseProjects/cyclingEfficiency/interface/shared_ptr.hpp **** #include <cassert>
  12:/home/artur/eclipseProjects/cyclingEfficiency/interface/shared_ptr.hpp **** 
  13:/home/artur/eclipseProjects/cyclingEfficiency/interface/shared_ptr.hpp **** template < typename T >
  14:/home/artur/eclipseProjects/cyclingEfficiency/interface/shared_ptr.hpp **** class shared_ptr
  15:/home/artur/eclipseProjects/cyclingEfficiency/interface/shared_ptr.hpp **** {
  16:/home/artur/eclipseProjects/cyclingEfficiency/interface/shared_ptr.hpp **** public:
  17:/home/artur/eclipseProjects/cyclingEfficiency/interface/shared_ptr.hpp **** 	// creates shared_ptr without pointing to any object
  18:/home/artur/eclipseProjects/cyclingEfficiency/interface/shared_ptr.hpp **** 	shared_ptr() : m_obj( 0 ) { m_referencesCounter = new unsigned int; *m_referencesCounter = 0; }
  19:/home/artur/eclipseProjects/cyclingEfficiency/interface/shared_ptr.hpp **** 
  20:/home/artur/eclipseProjects/cyclingEfficiency/interface/shared_ptr.hpp **** 	// creates shared_ptr with object to point to
  21:/home/artur/eclipseProjects/cyclingEfficiency/interface/shared_ptr.hpp **** 	shared_ptr( T* obj ) : m_obj( obj )
 16945              		.loc 2 21 0
 16946              		.cfi_startproc
 16947              		@ args = 0, pretend = 0, frame = 0
 16948              		@ frame_needed = 0, uses_anonymous_args = 0
 16949              	.LVL46:
 16950              	.LBB8:
 16951 0000 064B     		ldr	r3, .L43
 16952              	.LBE8:
 16953 0002 10B5     		push	{r4, lr}
 16954              	.LCFI6:
 16955              		.cfi_def_cfa_offset 8
 16956              		.loc 2 21 0
 16957 0004 0446     		mov	r4, r0
 16958              		.cfi_offset 14, -4
 16959              		.cfi_offset 4, -8
 16960              	.LBB9:
 16961 0006 0360     		str	r3, [r0, #0]
 16962 0008 4160     		str	r1, [r0, #4]
  22:/home/artur/eclipseProjects/cyclingEfficiency/interface/shared_ptr.hpp **** 	{
  23:/home/artur/eclipseProjects/cyclingEfficiency/interface/shared_ptr.hpp **** 		m_referencesCounter = new unsigned int;
 16963              		.loc 2 23 0
 16964 000a 0420     		movs	r0, #4
 16965              	.LVL47:
 16966 000c FFF7FEFF 		bl	_Znwj
 16967              	.LVL48:
  24:/home/artur/eclipseProjects/cyclingEfficiency/interface/shared_ptr.hpp **** 		*m_referencesCounter = ( unsigned int ) 1;
 16968              		.loc 2 24 0
 16969 0010 0123     		movs	r3, #1
  23:/home/artur/eclipseProjects/cyclingEfficiency/interface/shared_ptr.hpp **** 		m_referencesCounter = new unsigned int;
 16970              		.loc 2 23 0
 16971 0012 A060     		str	r0, [r4, #8]
 16972              		.loc 2 24 0
 16973 0014 0360     		str	r3, [r0, #0]
 16974              	.LBE9:
  25:/home/artur/eclipseProjects/cyclingEfficiency/interface/shared_ptr.hpp **** 	}
 16975              		.loc 2 25 0
 16976 0016 2046     		mov	r0, r4
 16977 0018 10BD     		pop	{r4, pc}
 16978              	.L44:
 16979 001a 00BF     		.align	2
 16980              	.L43:
 16981 001c 08000000 		.word	_ZTV10shared_ptrI4CDmaIfEE+8
 16982              		.cfi_endproc
 16983              	.LFE70:
 16985              		.weak	_ZN10shared_ptrI4CDmaIfEEC1EPS1_
 16986              		.thumb_set _ZN10shared_ptrI4CDmaIfEEC1EPS1_,_ZN10shared_ptrI4CDmaIfEEC2EPS1_
 16987              		.section	.text._ZN20CPeripheralInterfaceIiEC2Ev,"axG",%progbits,_ZN20CPeripheralInterfaceIiEC5Ev,c
 16988              		.align	1
 16989              		.weak	_ZN20CPeripheralInterfaceIiEC2Ev
 16990              		.thumb
 16991              		.thumb_func
 16993              	_ZN20CPeripheralInterfaceIiEC2Ev:
 16994              	.LFB77:
  26:/home/artur/eclipseProjects/cyclingEfficiency/inc/CPeripheralInterface.hpp **** 	CPeripheralInterface() {}
 16995              		.loc 11 26 0
 16996              		.cfi_startproc
 16997              		@ args = 0, pretend = 0, frame = 0
 16998              		@ frame_needed = 0, uses_anonymous_args = 0
 16999              		@ link register save eliminated.
 17000              	.LVL49:
 17001              	.LBB10:
  26:/home/artur/eclipseProjects/cyclingEfficiency/inc/CPeripheralInterface.hpp **** 	CPeripheralInterface() {}
 17002              		.loc 11 26 0
 17003 0000 014B     		ldr	r3, .L47
 17004 0002 0360     		str	r3, [r0, #0]
 17005              	.LBE10:
 17006 0004 7047     		bx	lr
 17007              	.L48:
 17008 0006 00BF     		.align	2
 17009              	.L47:
 17010 0008 08000000 		.word	_ZTV20CPeripheralInterfaceIiE+8
 17011              		.cfi_endproc
 17012              	.LFE77:
 17014              		.weak	_ZN20CPeripheralInterfaceIiEC1Ev
 17015              		.thumb_set _ZN20CPeripheralInterfaceIiEC1Ev,_ZN20CPeripheralInterfaceIiEC2Ev
 17016              		.section	.text._ZN4CDmaIiEC2Ev,"axG",%progbits,_ZN4CDmaIiEC5Ev,comdat
 17017              		.align	1
 17018              		.weak	_ZN4CDmaIiEC2Ev
 17019              		.thumb
 17020              		.thumb_func
 17022              	_ZN4CDmaIiEC2Ev:
 17023              	.LFB59:
  16:/home/artur/eclipseProjects/cyclingEfficiency/inc/CDma.hpp **** 	CDma()
 17024              		.loc 10 16 0
 17025              		.cfi_startproc
 17026              		@ args = 0, pretend = 0, frame = 0
 17027              		@ frame_needed = 0, uses_anonymous_args = 0
 17028              	.LVL50:
 17029 0000 10B5     		push	{r4, lr}
 17030              	.LCFI7:
 17031              		.cfi_def_cfa_offset 8
  16:/home/artur/eclipseProjects/cyclingEfficiency/inc/CDma.hpp **** 	CDma()
 17032              		.loc 10 16 0
 17033 0002 0446     		mov	r4, r0
 17034              		.cfi_offset 14, -4
 17035              		.cfi_offset 4, -8
 17036              	.LBB11:
  17:/home/artur/eclipseProjects/cyclingEfficiency/inc/CDma.hpp **** 	{
 17037              		.loc 10 17 0
 17038 0004 FFF7FEFF 		bl	_ZN20CPeripheralInterfaceIiEC2Ev
 17039              	.LVL51:
 17040 0008 014B     		ldr	r3, .L51
 17041              	.LBE11:
  18:/home/artur/eclipseProjects/cyclingEfficiency/inc/CDma.hpp **** 	}
 17042              		.loc 10 18 0
 17043 000a 2046     		mov	r0, r4
 17044              	.LBB12:
  17:/home/artur/eclipseProjects/cyclingEfficiency/inc/CDma.hpp **** 	{
 17045              		.loc 10 17 0
 17046 000c 2360     		str	r3, [r4, #0]
 17047              	.LBE12:
  18:/home/artur/eclipseProjects/cyclingEfficiency/inc/CDma.hpp **** 	}
 17048              		.loc 10 18 0
 17049 000e 10BD     		pop	{r4, pc}
 17050              	.L52:
 17051              		.align	2
 17052              	.L51:
 17053 0010 08000000 		.word	_ZTV4CDmaIiE+8
 17054              		.cfi_endproc
 17055              	.LFE59:
 17057              		.weak	_ZN4CDmaIiEC1Ev
 17058              		.thumb_set _ZN4CDmaIiEC1Ev,_ZN4CDmaIiEC2Ev
 17059              		.section	.text._ZN20CPeripheralInterfaceIfEC2Ev,"axG",%progbits,_ZN20CPeripheralInterfaceIfEC5Ev,c
 17060              		.align	1
 17061              		.weak	_ZN20CPeripheralInterfaceIfEC2Ev
 17062              		.thumb
 17063              		.thumb_func
 17065              	_ZN20CPeripheralInterfaceIfEC2Ev:
 17066              	.LFB84:
  26:/home/artur/eclipseProjects/cyclingEfficiency/inc/CPeripheralInterface.hpp **** 	CPeripheralInterface() {}
 17067              		.loc 11 26 0
 17068              		.cfi_startproc
 17069              		@ args = 0, pretend = 0, frame = 0
 17070              		@ frame_needed = 0, uses_anonymous_args = 0
 17071              		@ link register save eliminated.
 17072              	.LVL52:
 17073              	.LBB13:
  26:/home/artur/eclipseProjects/cyclingEfficiency/inc/CPeripheralInterface.hpp **** 	CPeripheralInterface() {}
 17074              		.loc 11 26 0
 17075 0000 014B     		ldr	r3, .L55
 17076 0002 0360     		str	r3, [r0, #0]
 17077              	.LBE13:
 17078 0004 7047     		bx	lr
 17079              	.L56:
 17080 0006 00BF     		.align	2
 17081              	.L55:
 17082 0008 08000000 		.word	_ZTV20CPeripheralInterfaceIfE+8
 17083              		.cfi_endproc
 17084              	.LFE84:
 17086              		.weak	_ZN20CPeripheralInterfaceIfEC1Ev
 17087              		.thumb_set _ZN20CPeripheralInterfaceIfEC1Ev,_ZN20CPeripheralInterfaceIfEC2Ev
 17088              		.section	.text._ZN4CDmaIfEC2Ev,"axG",%progbits,_ZN4CDmaIfEC5Ev,comdat
 17089              		.align	1
 17090              		.weak	_ZN4CDmaIfEC2Ev
 17091              		.thumb
 17092              		.thumb_func
 17094              	_ZN4CDmaIfEC2Ev:
 17095              	.LFB67:
  16:/home/artur/eclipseProjects/cyclingEfficiency/inc/CDma.hpp **** 	CDma()
 17096              		.loc 10 16 0
 17097              		.cfi_startproc
 17098              		@ args = 0, pretend = 0, frame = 0
 17099              		@ frame_needed = 0, uses_anonymous_args = 0
 17100              	.LVL53:
 17101 0000 10B5     		push	{r4, lr}
 17102              	.LCFI8:
 17103              		.cfi_def_cfa_offset 8
  16:/home/artur/eclipseProjects/cyclingEfficiency/inc/CDma.hpp **** 	CDma()
 17104              		.loc 10 16 0
 17105 0002 0446     		mov	r4, r0
 17106              		.cfi_offset 14, -4
 17107              		.cfi_offset 4, -8
 17108              	.LBB14:
  17:/home/artur/eclipseProjects/cyclingEfficiency/inc/CDma.hpp **** 	{
 17109              		.loc 10 17 0
 17110 0004 FFF7FEFF 		bl	_ZN20CPeripheralInterfaceIfEC2Ev
 17111              	.LVL54:
 17112 0008 014B     		ldr	r3, .L59
 17113              	.LBE14:
  18:/home/artur/eclipseProjects/cyclingEfficiency/inc/CDma.hpp **** 	}
 17114              		.loc 10 18 0
 17115 000a 2046     		mov	r0, r4
 17116              	.LBB15:
  17:/home/artur/eclipseProjects/cyclingEfficiency/inc/CDma.hpp **** 	{
 17117              		.loc 10 17 0
 17118 000c 2360     		str	r3, [r4, #0]
 17119              	.LBE15:
  18:/home/artur/eclipseProjects/cyclingEfficiency/inc/CDma.hpp **** 	}
 17120              		.loc 10 18 0
 17121 000e 10BD     		pop	{r4, pc}
 17122              	.L60:
 17123              		.align	2
 17124              	.L59:
 17125 0010 08000000 		.word	_ZTV4CDmaIfE+8
 17126              		.cfi_endproc
 17127              	.LFE67:
 17129              		.weak	_ZN4CDmaIfEC1Ev
 17130              		.thumb_set _ZN4CDmaIfEC1Ev,_ZN4CDmaIfEC2Ev
 17131              		.section	.text._ZN10shared_ptrI4CDmaIfEE6unwrapEv,"axG",%progbits,_ZN10shared_ptrI4CDmaIfEE6unwrap
 17132              		.align	1
 17133              		.weak	_ZN10shared_ptrI4CDmaIfEE6unwrapEv
 17134              		.thumb
 17135              		.thumb_func
 17137              	_ZN10shared_ptrI4CDmaIfEE6unwrapEv:
 17138              	.LFB90:
  26:/home/artur/eclipseProjects/cyclingEfficiency/interface/shared_ptr.hpp **** 
  27:/home/artur/eclipseProjects/cyclingEfficiency/interface/shared_ptr.hpp **** 	// copy constructor
  28:/home/artur/eclipseProjects/cyclingEfficiency/interface/shared_ptr.hpp **** 	shared_ptr( shared_ptr< T >& sharedPtrObj );
  29:/home/artur/eclipseProjects/cyclingEfficiency/interface/shared_ptr.hpp **** 
  30:/home/artur/eclipseProjects/cyclingEfficiency/interface/shared_ptr.hpp **** 	// dereference will point to the wrapped object
  31:/home/artur/eclipseProjects/cyclingEfficiency/interface/shared_ptr.hpp **** 	// shared_ptr->foo() will call m_obj->foo()
  32:/home/artur/eclipseProjects/cyclingEfficiency/interface/shared_ptr.hpp **** 	T* operator->() { assert( m_obj != 0 ); return m_obj; }
  33:/home/artur/eclipseProjects/cyclingEfficiency/interface/shared_ptr.hpp **** 
  34:/home/artur/eclipseProjects/cyclingEfficiency/interface/shared_ptr.hpp **** 	// current object is "unwrapped", its reference value is decreased
  35:/home/artur/eclipseProjects/cyclingEfficiency/interface/shared_ptr.hpp **** 	// wraps object wrapped by the argument, gets its references counter and increases it
  36:/home/artur/eclipseProjects/cyclingEfficiency/interface/shared_ptr.hpp **** 	shared_ptr< T >& operator=(const shared_ptr< T >& );
  37:/home/artur/eclipseProjects/cyclingEfficiency/interface/shared_ptr.hpp **** 
  38:/home/artur/eclipseProjects/cyclingEfficiency/interface/shared_ptr.hpp **** 	// current object is "unwrapped", its reference value is decreased
  39:/home/artur/eclipseProjects/cyclingEfficiency/interface/shared_ptr.hpp **** 	// wraps the argument object, increases references counter
  40:/home/artur/eclipseProjects/cyclingEfficiency/interface/shared_ptr.hpp **** 	shared_ptr< T >& operator=( const T* );
  41:/home/artur/eclipseProjects/cyclingEfficiency/interface/shared_ptr.hpp **** 
  42:/home/artur/eclipseProjects/cyclingEfficiency/interface/shared_ptr.hpp **** 	virtual ~shared_ptr();
  43:/home/artur/eclipseProjects/cyclingEfficiency/interface/shared_ptr.hpp **** 
  44:/home/artur/eclipseProjects/cyclingEfficiency/interface/shared_ptr.hpp **** private:
  45:/home/artur/eclipseProjects/cyclingEfficiency/interface/shared_ptr.hpp **** 
  46:/home/artur/eclipseProjects/cyclingEfficiency/interface/shared_ptr.hpp **** 	// returns pointer to the wrapped object
  47:/home/artur/eclipseProjects/cyclingEfficiency/interface/shared_ptr.hpp **** 	T* getObj() { return m_obj; }
  48:/home/artur/eclipseProjects/cyclingEfficiency/interface/shared_ptr.hpp **** 
  49:/home/artur/eclipseProjects/cyclingEfficiency/interface/shared_ptr.hpp **** 	// shares references counter so that it may be changed by another shared_ptr
  50:/home/artur/eclipseProjects/cyclingEfficiency/interface/shared_ptr.hpp **** 	unsigned int* shareRefCounter() { return m_referencesCounter; }
  51:/home/artur/eclipseProjects/cyclingEfficiency/interface/shared_ptr.hpp **** 
  52:/home/artur/eclipseProjects/cyclingEfficiency/interface/shared_ptr.hpp **** 	// unwraps currently wrapped object
  53:/home/artur/eclipseProjects/cyclingEfficiency/interface/shared_ptr.hpp **** 	// returns the value of the references count after unwrapping
  54:/home/artur/eclipseProjects/cyclingEfficiency/interface/shared_ptr.hpp **** 	void unwrap();
  55:/home/artur/eclipseProjects/cyclingEfficiency/interface/shared_ptr.hpp **** 
  56:/home/artur/eclipseProjects/cyclingEfficiency/interface/shared_ptr.hpp **** 	T*				m_obj;
  57:/home/artur/eclipseProjects/cyclingEfficiency/interface/shared_ptr.hpp **** 	unsigned int*	m_referencesCounter;
  58:/home/artur/eclipseProjects/cyclingEfficiency/interface/shared_ptr.hpp **** };
  59:/home/artur/eclipseProjects/cyclingEfficiency/interface/shared_ptr.hpp **** 
  60:/home/artur/eclipseProjects/cyclingEfficiency/interface/shared_ptr.hpp **** template < typename T >
  61:/home/artur/eclipseProjects/cyclingEfficiency/interface/shared_ptr.hpp **** shared_ptr< T >::shared_ptr( shared_ptr< T >& sharedPtrObj )
  62:/home/artur/eclipseProjects/cyclingEfficiency/interface/shared_ptr.hpp **** {
  63:/home/artur/eclipseProjects/cyclingEfficiency/interface/shared_ptr.hpp **** 	( *this ).m_obj = sharedPtrObj.getObj();
  64:/home/artur/eclipseProjects/cyclingEfficiency/interface/shared_ptr.hpp **** 	( *this ).m_referencesCounter = sharedPtrObj.shareRefCounter();
  65:/home/artur/eclipseProjects/cyclingEfficiency/interface/shared_ptr.hpp **** }
  66:/home/artur/eclipseProjects/cyclingEfficiency/interface/shared_ptr.hpp **** 
  67:/home/artur/eclipseProjects/cyclingEfficiency/interface/shared_ptr.hpp **** template < typename T >
  68:/home/artur/eclipseProjects/cyclingEfficiency/interface/shared_ptr.hpp **** shared_ptr< T >& shared_ptr< T >::operator=( const shared_ptr< T >& sharedPtrObj )
  69:/home/artur/eclipseProjects/cyclingEfficiency/interface/shared_ptr.hpp **** {
  70:/home/artur/eclipseProjects/cyclingEfficiency/interface/shared_ptr.hpp **** 	// unwrap the currently wrapped object
  71:/home/artur/eclipseProjects/cyclingEfficiency/interface/shared_ptr.hpp **** 	( *this ).unwrap();
  72:/home/artur/eclipseProjects/cyclingEfficiency/interface/shared_ptr.hpp **** 
  73:/home/artur/eclipseProjects/cyclingEfficiency/interface/shared_ptr.hpp **** 	( *this ).m_obj = sharedPtrObj.getObj();
  74:/home/artur/eclipseProjects/cyclingEfficiency/interface/shared_ptr.hpp **** 	( *this ).m_referencesCounter = sharedPtrObj.shareRefCounter();
  75:/home/artur/eclipseProjects/cyclingEfficiency/interface/shared_ptr.hpp **** 
  76:/home/artur/eclipseProjects/cyclingEfficiency/interface/shared_ptr.hpp **** 	return *this;
  77:/home/artur/eclipseProjects/cyclingEfficiency/interface/shared_ptr.hpp **** 
  78:/home/artur/eclipseProjects/cyclingEfficiency/interface/shared_ptr.hpp **** }
  79:/home/artur/eclipseProjects/cyclingEfficiency/interface/shared_ptr.hpp **** 
  80:/home/artur/eclipseProjects/cyclingEfficiency/interface/shared_ptr.hpp **** template < typename T >
  81:/home/artur/eclipseProjects/cyclingEfficiency/interface/shared_ptr.hpp **** shared_ptr< T >& shared_ptr< T >::operator=( const T* obj )
  82:/home/artur/eclipseProjects/cyclingEfficiency/interface/shared_ptr.hpp **** {
  83:/home/artur/eclipseProjects/cyclingEfficiency/interface/shared_ptr.hpp **** 	// unwrap the currently wrapped object
  84:/home/artur/eclipseProjects/cyclingEfficiency/interface/shared_ptr.hpp **** 	( *this ).unwrap();
  85:/home/artur/eclipseProjects/cyclingEfficiency/interface/shared_ptr.hpp **** 
  86:/home/artur/eclipseProjects/cyclingEfficiency/interface/shared_ptr.hpp **** 	m_obj = obj;
  87:/home/artur/eclipseProjects/cyclingEfficiency/interface/shared_ptr.hpp **** 	*m_referencesCounter = 1;
  88:/home/artur/eclipseProjects/cyclingEfficiency/interface/shared_ptr.hpp **** 
  89:/home/artur/eclipseProjects/cyclingEfficiency/interface/shared_ptr.hpp **** 	return *this;
  90:/home/artur/eclipseProjects/cyclingEfficiency/interface/shared_ptr.hpp **** }
  91:/home/artur/eclipseProjects/cyclingEfficiency/interface/shared_ptr.hpp **** 
  92:/home/artur/eclipseProjects/cyclingEfficiency/interface/shared_ptr.hpp **** template < typename T >
  93:/home/artur/eclipseProjects/cyclingEfficiency/interface/shared_ptr.hpp **** void shared_ptr< T >::unwrap()
 17139              		.loc 2 93 0
 17140              		.cfi_startproc
 17141              		@ args = 0, pretend = 0, frame = 0
 17142              		@ frame_needed = 0, uses_anonymous_args = 0
 17143              	.LVL55:
  94:/home/artur/eclipseProjects/cyclingEfficiency/interface/shared_ptr.hpp **** {
  95:/home/artur/eclipseProjects/cyclingEfficiency/interface/shared_ptr.hpp **** 	if ( --( *m_referencesCounter ) == 0 )
 17144              		.loc 2 95 0
 17145 0000 8268     		ldr	r2, [r0, #8]
  93:/home/artur/eclipseProjects/cyclingEfficiency/interface/shared_ptr.hpp **** void shared_ptr< T >::unwrap()
 17146              		.loc 2 93 0
 17147 0002 08B5     		push	{r3, lr}
 17148              	.LCFI9:
 17149              		.cfi_def_cfa_offset 8
 17150              		.loc 2 95 0
 17151 0004 1368     		ldr	r3, [r2, #0]
 17152              		.cfi_offset 14, -4
 17153              		.cfi_offset 3, -8
 17154 0006 013B     		subs	r3, r3, #1
 17155 0008 1360     		str	r3, [r2, #0]
 17156 000a 23B9     		cbnz	r3, .L61
  96:/home/artur/eclipseProjects/cyclingEfficiency/interface/shared_ptr.hpp **** 	{
  97:/home/artur/eclipseProjects/cyclingEfficiency/interface/shared_ptr.hpp **** 		if ( m_obj != 0 )
 17157              		.loc 2 97 0
 17158 000c 4068     		ldr	r0, [r0, #4]
 17159              	.LVL56:
 17160 000e 10B1     		cbz	r0, .L61
  98:/home/artur/eclipseProjects/cyclingEfficiency/interface/shared_ptr.hpp **** 		{
  99:/home/artur/eclipseProjects/cyclingEfficiency/interface/shared_ptr.hpp **** 			delete m_obj;
 17161              		.loc 2 99 0 discriminator 1
 17162 0010 0368     		ldr	r3, [r0, #0]
 17163 0012 5B69     		ldr	r3, [r3, #20]
 17164 0014 9847     		blx	r3
 17165              	.L61:
 17166 0016 08BD     		pop	{r3, pc}
 17167              		.cfi_endproc
 17168              	.LFE90:
 17170              		.section	.text._ZN10shared_ptrI4CDmaIfEED2Ev,"axG",%progbits,_ZN10shared_ptrI4CDmaIfEED5Ev,comdat
 17171              		.align	1
 17172              		.weak	_ZN10shared_ptrI4CDmaIfEED2Ev
 17173              		.thumb
 17174              		.thumb_func
 17176              	_ZN10shared_ptrI4CDmaIfEED2Ev:
 17177              	.LFB73:
 100:/home/artur/eclipseProjects/cyclingEfficiency/interface/shared_ptr.hpp **** 		}
 101:/home/artur/eclipseProjects/cyclingEfficiency/interface/shared_ptr.hpp **** 	}
 102:/home/artur/eclipseProjects/cyclingEfficiency/interface/shared_ptr.hpp **** }
 103:/home/artur/eclipseProjects/cyclingEfficiency/interface/shared_ptr.hpp **** 
 104:/home/artur/eclipseProjects/cyclingEfficiency/interface/shared_ptr.hpp **** template < typename T >
 105:/home/artur/eclipseProjects/cyclingEfficiency/interface/shared_ptr.hpp **** shared_ptr< T >::~shared_ptr()
 17178              		.loc 2 105 0
 17179              		.cfi_startproc
 17180              		@ args = 0, pretend = 0, frame = 0
 17181              		@ frame_needed = 0, uses_anonymous_args = 0
 17182              	.LVL57:
 17183              	.LBB16:
 106:/home/artur/eclipseProjects/cyclingEfficiency/interface/shared_ptr.hpp **** {
 107:/home/artur/eclipseProjects/cyclingEfficiency/interface/shared_ptr.hpp **** 	unwrap();
 108:/home/artur/eclipseProjects/cyclingEfficiency/interface/shared_ptr.hpp **** }
 17184              		.loc 2 108 0
 17185 0000 034B     		ldr	r3, .L65
 17186              	.LBE16:
 105:/home/artur/eclipseProjects/cyclingEfficiency/interface/shared_ptr.hpp **** shared_ptr< T >::~shared_ptr()
 17187              		.loc 2 105 0
 17188 0002 10B5     		push	{r4, lr}
 17189              	.LCFI10:
 17190              		.cfi_def_cfa_offset 8
 105:/home/artur/eclipseProjects/cyclingEfficiency/interface/shared_ptr.hpp **** shared_ptr< T >::~shared_ptr()
 17191              		.loc 2 105 0
 17192 0004 0446     		mov	r4, r0
 17193              		.cfi_offset 14, -4
 17194              		.cfi_offset 4, -8
 17195              	.LBB17:
 17196              		.loc 2 108 0
 17197 0006 0360     		str	r3, [r0, #0]
 107:/home/artur/eclipseProjects/cyclingEfficiency/interface/shared_ptr.hpp **** 	unwrap();
 17198              		.loc 2 107 0
 17199 0008 FFF7FEFF 		bl	_ZN10shared_ptrI4CDmaIfEE6unwrapEv
 17200              	.LVL58:
 17201              	.LBE17:
 17202              		.loc 2 108 0
 17203 000c 2046     		mov	r0, r4
 17204 000e 10BD     		pop	{r4, pc}
 17205              	.L66:
 17206              		.align	2
 17207              	.L65:
 17208 0010 08000000 		.word	_ZTV10shared_ptrI4CDmaIfEE+8
 17209              		.cfi_endproc
 17210              	.LFE73:
 17212              		.weak	_ZN10shared_ptrI4CDmaIfEED1Ev
 17213              		.thumb_set _ZN10shared_ptrI4CDmaIfEED1Ev,_ZN10shared_ptrI4CDmaIfEED2Ev
 17214              		.section	.text.main,"ax",%progbits
 17215              		.align	1
 17216              		.global	main
 17217              		.thumb
 17218              		.thumb_func
 17220              	main:
 17221              	.LFB57:
   1:../src/main.cpp **** /*
   2:../src/main.cpp ****  * main.cpp
   3:../src/main.cpp ****  *
   4:../src/main.cpp ****  *  Created on: Jan 21, 2012
   5:../src/main.cpp ****  *      Author: artur
   6:../src/main.cpp ****  */
   7:../src/main.cpp **** 
   8:../src/main.cpp **** #include <shared_ptr.hpp>
   9:../src/main.cpp **** #include <CDma.hpp>
  10:../src/main.cpp **** 
  11:../src/main.cpp **** int main()
  12:../src/main.cpp **** {
 17222              		.loc 1 12 0
 17223              		.cfi_startproc
 17224              		@ args = 0, pretend = 0, frame = 40
 17225              		@ frame_needed = 0, uses_anonymous_args = 0
 17226 0000 10B5     		push	{r4, lr}
 17227              	.LCFI11:
 17228              		.cfi_def_cfa_offset 8
 17229 0002 8AB0     		sub	sp, sp, #40
 17230              	.LCFI12:
 17231              		.cfi_def_cfa_offset 48
 17232              	.LBB18:
  13:../src/main.cpp **** 	CDma<int> dma;
 17233              		.loc 1 13 0
 17234 0004 6846     		mov	r0, sp
 17235              		.cfi_offset 14, -4
 17236              		.cfi_offset 4, -8
 17237 0006 FFF7FEFF 		bl	_ZN4CDmaIiEC1Ev
  14:../src/main.cpp **** 	dma.test( 9 );
  15:../src/main.cpp **** 	shared_ptr< CDma<float> > dmaSharedPtr( new CDma<float> );
 17238              		.loc 1 15 0
 17239 000a 1C20     		movs	r0, #28
 17240 000c FFF7FEFF 		bl	_Znwj
 17241 0010 0446     		mov	r4, r0
 17242 0012 FFF7FEFF 		bl	_ZN4CDmaIfEC1Ev
 17243 0016 2146     		mov	r1, r4
 17244 0018 07A8     		add	r0, sp, #28
 17245 001a FFF7FEFF 		bl	_ZN10shared_ptrI4CDmaIfEEC1EPS1_
  16:../src/main.cpp **** 
  17:../src/main.cpp **** 	return 0;
 17246              		.loc 1 17 0
 17247 001e 07A8     		add	r0, sp, #28
 17248 0020 FFF7FEFF 		bl	_ZN10shared_ptrI4CDmaIfEED1Ev
 17249 0024 6846     		mov	r0, sp
 17250 0026 FFF7FEFF 		bl	_ZN4CDmaIiED1Ev
 17251              	.LBE18:
  18:../src/main.cpp **** }
 17252              		.loc 1 18 0
 17253 002a 0020     		movs	r0, #0
 17254 002c 0AB0     		add	sp, sp, #40
 17255 002e 10BD     		pop	{r4, pc}
 17256              		.cfi_endproc
 17257              	.LFE57:
 17259              		.section	.text._ZN10shared_ptrI4CDmaIfEED0Ev,"axG",%progbits,_ZN10shared_ptrI4CDmaIfEED5Ev,comdat
 17260              		.align	1
 17261              		.weak	_ZN10shared_ptrI4CDmaIfEED0Ev
 17262              		.thumb
 17263              		.thumb_func
 17265              	_ZN10shared_ptrI4CDmaIfEED0Ev:
 17266              	.LFB75:
 105:/home/artur/eclipseProjects/cyclingEfficiency/interface/shared_ptr.hpp **** shared_ptr< T >::~shared_ptr()
 17267              		.loc 2 105 0
 17268              		.cfi_startproc
 17269              		@ args = 0, pretend = 0, frame = 0
 17270              		@ frame_needed = 0, uses_anonymous_args = 0
 17271              	.LVL59:
 17272 0000 10B5     		push	{r4, lr}
 17273              	.LCFI13:
 17274              		.cfi_def_cfa_offset 8
 105:/home/artur/eclipseProjects/cyclingEfficiency/interface/shared_ptr.hpp **** shared_ptr< T >::~shared_ptr()
 17275              		.loc 2 105 0
 17276 0002 0446     		mov	r4, r0
 17277              		.cfi_offset 14, -4
 17278              		.cfi_offset 4, -8
 17279              		.loc 2 108 0
 17280 0004 FFF7FEFF 		bl	_ZN10shared_ptrI4CDmaIfEED1Ev
 17281              	.LVL60:
 17282 0008 2046     		mov	r0, r4
 17283 000a FFF7FEFF 		bl	_ZdlPv
 17284 000e 2046     		mov	r0, r4
 17285 0010 10BD     		pop	{r4, pc}
 17286              		.cfi_endproc
 17287              	.LFE75:
 17289              		.weak	_ZTV4CDmaIiE
 17290              		.section	.rodata._ZTV4CDmaIiE,"aG",%progbits,_ZTV4CDmaIiE,comdat
 17291              		.align	3
 17294              	_ZTV4CDmaIiE:
 17295 0000 00000000 		.word	0
 17296 0004 00000000 		.word	0
 17297 0008 00000000 		.word	_ZN4CDmaIiE4initEP13SPeriphConfig
 17298 000c 00000000 		.word	_ZN4CDmaIiE16configInterruptsEP16NVIC_InitTypeDef
 17299 0010 00000000 		.word	_ZN4CDmaIiE4readEv
 17300 0014 00000000 		.word	_ZN4CDmaIiE5writeEv
 17301 0018 00000000 		.word	_ZN4CDmaIiED1Ev
 17302 001c 00000000 		.word	_ZN4CDmaIiED0Ev
 17303              		.weak	_ZTV20CPeripheralInterfaceIiE
 17304              		.section	.rodata._ZTV20CPeripheralInterfaceIiE,"aG",%progbits,_ZTV20CPeripheralInterfaceIiE,comdat
 17305              		.align	3
 17308              	_ZTV20CPeripheralInterfaceIiE:
 17309 0000 00000000 		.word	0
 17310 0004 00000000 		.word	0
 17311 0008 00000000 		.word	_ZN20CPeripheralInterfaceIiE4initEP13SPeriphConfig
 17312 000c 00000000 		.word	_ZN20CPeripheralInterfaceIiE16configInterruptsEP16NVIC_InitTypeDef
 17313 0010 00000000 		.word	_ZN20CPeripheralInterfaceIiE4readEv
 17314 0014 00000000 		.word	_ZN20CPeripheralInterfaceIiE5writeEv
 17315 0018 00000000 		.word	_ZN20CPeripheralInterfaceIiED1Ev
 17316 001c 00000000 		.word	_ZN20CPeripheralInterfaceIiED0Ev
 17317              		.weak	_ZTV4CDmaIfE
 17318              		.section	.rodata._ZTV4CDmaIfE,"aG",%progbits,_ZTV4CDmaIfE,comdat
 17319              		.align	3
 17322              	_ZTV4CDmaIfE:
 17323 0000 00000000 		.word	0
 17324 0004 00000000 		.word	0
 17325 0008 00000000 		.word	_ZN4CDmaIfE4initEP13SPeriphConfig
 17326 000c 00000000 		.word	_ZN4CDmaIfE16configInterruptsEP16NVIC_InitTypeDef
 17327 0010 00000000 		.word	_ZN4CDmaIfE4readEv
 17328 0014 00000000 		.word	_ZN4CDmaIfE5writeEv
 17329 0018 00000000 		.word	_ZN4CDmaIfED1Ev
 17330 001c 00000000 		.word	_ZN4CDmaIfED0Ev
 17331              		.weak	_ZTV20CPeripheralInterfaceIfE
 17332              		.section	.rodata._ZTV20CPeripheralInterfaceIfE,"aG",%progbits,_ZTV20CPeripheralInterfaceIfE,comdat
 17333              		.align	3
 17336              	_ZTV20CPeripheralInterfaceIfE:
 17337 0000 00000000 		.word	0
 17338 0004 00000000 		.word	0
 17339 0008 00000000 		.word	_ZN20CPeripheralInterfaceIfE4initEP13SPeriphConfig
 17340 000c 00000000 		.word	_ZN20CPeripheralInterfaceIfE16configInterruptsEP16NVIC_InitTypeDef
 17341 0010 00000000 		.word	_ZN20CPeripheralInterfaceIfE4readEv
 17342 0014 00000000 		.word	_ZN20CPeripheralInterfaceIfE5writeEv
 17343 0018 00000000 		.word	_ZN20CPeripheralInterfaceIfED1Ev
 17344 001c 00000000 		.word	_ZN20CPeripheralInterfaceIfED0Ev
 17345              		.weak	_ZTV10shared_ptrI4CDmaIfEE
 17346              		.section	.rodata._ZTV10shared_ptrI4CDmaIfEE,"aG",%progbits,_ZTV10shared_ptrI4CDmaIfEE,comdat
 17347              		.align	3
 17350              	_ZTV10shared_ptrI4CDmaIfEE:
 17351 0000 00000000 		.word	0
 17352 0004 00000000 		.word	0
 17353 0008 00000000 		.word	_ZN10shared_ptrI4CDmaIfEED1Ev
 17354 000c 00000000 		.word	_ZN10shared_ptrI4CDmaIfEED0Ev
 17355              		.text
 17356              	.Letext0: