   1              		.syntax unified
   2              		.cpu cortex-m3
   3              		.fpu softvfp
   4              		.eabi_attribute 20, 1
   5              		.eabi_attribute 21, 1
   6              		.eabi_attribute 23, 3
   7              		.eabi_attribute 24, 1
   8              		.eabi_attribute 25, 1
   9              		.eabi_attribute 26, 1
  10              		.eabi_attribute 30, 4
  11              		.eabi_attribute 18, 4
  12              		.thumb
  13              		.file	"stm32f10x_it.c"
  23              	.Ltext0:
  24              		.file 1 "../src/stm32f10x_it.c"
 18382              		.align	1
 18383              		.global	NMI_Handler
 18384              		.thumb
 18385              		.thumb_func
 18387              	NMI_Handler:
 18388              	.LFB29:
   1:../src/stm32f10x_it.c **** /**
   2:../src/stm32f10x_it.c ****   ******************************************************************************
   3:../src/stm32f10x_it.c ****   * @file    Project/STM32F10x_StdPeriph_Template/stm32f10x_it.c 
   4:../src/stm32f10x_it.c ****   * @author  MCD Application Team
   5:../src/stm32f10x_it.c ****   * @version V3.5.0
   6:../src/stm32f10x_it.c ****   * @date    08-April-2011
   7:../src/stm32f10x_it.c ****   * @brief   Main Interrupt Service Routines.
   8:../src/stm32f10x_it.c ****   *          This file provides template for all exceptions handler and 
   9:../src/stm32f10x_it.c ****   *          peripherals interrupt service routine.
  10:../src/stm32f10x_it.c ****   ******************************************************************************
  11:../src/stm32f10x_it.c ****   * @attention
  12:../src/stm32f10x_it.c ****   *
  13:../src/stm32f10x_it.c ****   * THE PRESENT FIRMWARE WHICH IS FOR GUIDANCE ONLY AIMS AT PROVIDING CUSTOMERS
  14:../src/stm32f10x_it.c ****   * WITH CODING INFORMATION REGARDING THEIR PRODUCTS IN ORDER FOR THEM TO SAVE
  15:../src/stm32f10x_it.c ****   * TIME. AS A RESULT, STMICROELECTRONICS SHALL NOT BE HELD LIABLE FOR ANY
  16:../src/stm32f10x_it.c ****   * DIRECT, INDIRECT OR CONSEQUENTIAL DAMAGES WITH RESPECT TO ANY CLAIMS ARISING
  17:../src/stm32f10x_it.c ****   * FROM THE CONTENT OF SUCH FIRMWARE AND/OR THE USE MADE BY CUSTOMERS OF THE
  18:../src/stm32f10x_it.c ****   * CODING INFORMATION CONTAINED HEREIN IN CONNECTION WITH THEIR PRODUCTS.
  19:../src/stm32f10x_it.c ****   *
  20:../src/stm32f10x_it.c ****   * <h2><center>&copy; COPYRIGHT 2011 STMicroelectronics</center></h2>
  21:../src/stm32f10x_it.c ****   ******************************************************************************
  22:../src/stm32f10x_it.c ****   */
  23:../src/stm32f10x_it.c **** 
  24:../src/stm32f10x_it.c **** /* Includes ------------------------------------------------------------------*/
  25:../src/stm32f10x_it.c **** #include "stm32f10x_it.h"
  26:../src/stm32f10x_it.c **** 
  27:../src/stm32f10x_it.c **** /** @addtogroup STM32F10x_StdPeriph_Template
  28:../src/stm32f10x_it.c ****   * @{
  29:../src/stm32f10x_it.c ****   */
  30:../src/stm32f10x_it.c **** 
  31:../src/stm32f10x_it.c **** /* Private typedef -----------------------------------------------------------*/
  32:../src/stm32f10x_it.c **** /* Private define ------------------------------------------------------------*/
  33:../src/stm32f10x_it.c **** /* Private macro -------------------------------------------------------------*/
  34:../src/stm32f10x_it.c **** /* Private variables ---------------------------------------------------------*/
  35:../src/stm32f10x_it.c **** /* Private function prototypes -----------------------------------------------*/
  36:../src/stm32f10x_it.c **** /* Private functions ---------------------------------------------------------*/
  37:../src/stm32f10x_it.c **** 
  38:../src/stm32f10x_it.c **** /******************************************************************************/
  39:../src/stm32f10x_it.c **** /*            Cortex-M3 Processor Exceptions Handlers                         */
  40:../src/stm32f10x_it.c **** /******************************************************************************/
  41:../src/stm32f10x_it.c **** 
  42:../src/stm32f10x_it.c **** /**
  43:../src/stm32f10x_it.c ****   * @brief  This function handles NMI exception.
  44:../src/stm32f10x_it.c ****   * @param  None
  45:../src/stm32f10x_it.c ****   * @retval None
  46:../src/stm32f10x_it.c ****   */
  47:../src/stm32f10x_it.c **** void NMI_Handler(void)
  48:../src/stm32f10x_it.c **** {
 18389              		.loc 1 48 0
 18390              		.cfi_startproc
 18391              		@ args = 0, pretend = 0, frame = 0
 18392              		@ frame_needed = 0, uses_anonymous_args = 0
 18393              		@ link register save eliminated.
  49:../src/stm32f10x_it.c **** }
 18394              		.loc 1 49 0
 18395 0000 7047     		bx	lr
 18396              		.cfi_endproc
 18397              	.LFE29:
 18399              		.section	.text.HardFault_Handler,"ax",%progbits
 18400              		.align	1
 18401              		.global	HardFault_Handler
 18402              		.thumb
 18403              		.thumb_func
 18405              	HardFault_Handler:
 18406              	.LFB30:
  50:../src/stm32f10x_it.c **** 
  51:../src/stm32f10x_it.c **** /**
  52:../src/stm32f10x_it.c ****   * @brief  This function handles Hard Fault exception.
  53:../src/stm32f10x_it.c ****   * @param  None
  54:../src/stm32f10x_it.c ****   * @retval None
  55:../src/stm32f10x_it.c ****   */
  56:../src/stm32f10x_it.c **** void HardFault_Handler(void)
  57:../src/stm32f10x_it.c **** {
 18407              		.loc 1 57 0
 18408              		.cfi_startproc
 18409              		@ args = 0, pretend = 0, frame = 0
 18410              		@ frame_needed = 0, uses_anonymous_args = 0
 18411              		@ link register save eliminated.
 18412              	.L3:
 18413 0000 FEE7     		b	.L3
 18414              		.cfi_endproc
 18415              	.LFE30:
 18417              		.section	.text.MemManage_Handler,"ax",%progbits
 18418              		.align	1
 18419              		.global	MemManage_Handler
 18420              		.thumb
 18421              		.thumb_func
 18423              	MemManage_Handler:
 18424              	.LFB31:
  58:../src/stm32f10x_it.c ****   /* Go to infinite loop when Hard Fault exception occurs */
  59:../src/stm32f10x_it.c ****   while (1)
  60:../src/stm32f10x_it.c ****   {
  61:../src/stm32f10x_it.c ****   }
  62:../src/stm32f10x_it.c **** }
  63:../src/stm32f10x_it.c **** 
  64:../src/stm32f10x_it.c **** /**
  65:../src/stm32f10x_it.c ****   * @brief  This function handles Memory Manage exception.
  66:../src/stm32f10x_it.c ****   * @param  None
  67:../src/stm32f10x_it.c ****   * @retval None
  68:../src/stm32f10x_it.c ****   */
  69:../src/stm32f10x_it.c **** void MemManage_Handler(void)
  70:../src/stm32f10x_it.c **** {
 18425              		.loc 1 70 0
 18426              		.cfi_startproc
 18427              		@ args = 0, pretend = 0, frame = 0
 18428              		@ frame_needed = 0, uses_anonymous_args = 0
 18429              		@ link register save eliminated.
 18430              	.L5:
 18431 0000 FEE7     		b	.L5
 18432              		.cfi_endproc
 18433              	.LFE31:
 18435              		.section	.text.BusFault_Handler,"ax",%progbits
 18436              		.align	1
 18437              		.global	BusFault_Handler
 18438              		.thumb
 18439              		.thumb_func
 18441              	BusFault_Handler:
 18442              	.LFB32:
  71:../src/stm32f10x_it.c ****   /* Go to infinite loop when Memory Manage exception occurs */
  72:../src/stm32f10x_it.c ****   while (1)
  73:../src/stm32f10x_it.c ****   {
  74:../src/stm32f10x_it.c ****   }
  75:../src/stm32f10x_it.c **** }
  76:../src/stm32f10x_it.c **** 
  77:../src/stm32f10x_it.c **** /**
  78:../src/stm32f10x_it.c ****   * @brief  This function handles Bus Fault exception.
  79:../src/stm32f10x_it.c ****   * @param  None
  80:../src/stm32f10x_it.c ****   * @retval None
  81:../src/stm32f10x_it.c ****   */
  82:../src/stm32f10x_it.c **** void BusFault_Handler(void)
  83:../src/stm32f10x_it.c **** {
 18443              		.loc 1 83 0
 18444              		.cfi_startproc
 18445              		@ args = 0, pretend = 0, frame = 0
 18446              		@ frame_needed = 0, uses_anonymous_args = 0
 18447              		@ link register save eliminated.
 18448              	.L7:
 18449 0000 FEE7     		b	.L7
 18450              		.cfi_endproc
 18451              	.LFE32:
 18453              		.section	.text.UsageFault_Handler,"ax",%progbits
 18454              		.align	1
 18455              		.global	UsageFault_Handler
 18456              		.thumb
 18457              		.thumb_func
 18459              	UsageFault_Handler:
 18460              	.LFB33:
  84:../src/stm32f10x_it.c ****   /* Go to infinite loop when Bus Fault exception occurs */
  85:../src/stm32f10x_it.c ****   while (1)
  86:../src/stm32f10x_it.c ****   {
  87:../src/stm32f10x_it.c ****   }
  88:../src/stm32f10x_it.c **** }
  89:../src/stm32f10x_it.c **** 
  90:../src/stm32f10x_it.c **** /**
  91:../src/stm32f10x_it.c ****   * @brief  This function handles Usage Fault exception.
  92:../src/stm32f10x_it.c ****   * @param  None
  93:../src/stm32f10x_it.c ****   * @retval None
  94:../src/stm32f10x_it.c ****   */
  95:../src/stm32f10x_it.c **** void UsageFault_Handler(void)
  96:../src/stm32f10x_it.c **** {
 18461              		.loc 1 96 0
 18462              		.cfi_startproc
 18463              		@ args = 0, pretend = 0, frame = 0
 18464              		@ frame_needed = 0, uses_anonymous_args = 0
 18465              		@ link register save eliminated.
 18466              	.L9:
 18467 0000 FEE7     		b	.L9
 18468              		.cfi_endproc
 18469              	.LFE33:
 18471              		.section	.text.SVC_Handler,"ax",%progbits
 18472              		.align	1
 18473              		.global	SVC_Handler
 18474              		.thumb
 18475              		.thumb_func
 18477              	SVC_Handler:
 18478              	.LFB34:
  97:../src/stm32f10x_it.c ****   /* Go to infinite loop when Usage Fault exception occurs */
  98:../src/stm32f10x_it.c ****   while (1)
  99:../src/stm32f10x_it.c ****   {
 100:../src/stm32f10x_it.c ****   }
 101:../src/stm32f10x_it.c **** }
 102:../src/stm32f10x_it.c **** 
 103:../src/stm32f10x_it.c **** /**
 104:../src/stm32f10x_it.c ****   * @brief  This function handles SVCall exception.
 105:../src/stm32f10x_it.c ****   * @param  None
 106:../src/stm32f10x_it.c ****   * @retval None
 107:../src/stm32f10x_it.c ****   */
 108:../src/stm32f10x_it.c **** void SVC_Handler(void)
 109:../src/stm32f10x_it.c **** {
 18479              		.loc 1 109 0
 18480              		.cfi_startproc
 18481              		@ args = 0, pretend = 0, frame = 0
 18482              		@ frame_needed = 0, uses_anonymous_args = 0
 18483              		@ link register save eliminated.
 110:../src/stm32f10x_it.c **** }
 18484              		.loc 1 110 0
 18485 0000 7047     		bx	lr
 18486              		.cfi_endproc
 18487              	.LFE34:
 18489              		.section	.text.DebugMon_Handler,"ax",%progbits
 18490              		.align	1
 18491              		.global	DebugMon_Handler
 18492              		.thumb
 18493              		.thumb_func
 18495              	DebugMon_Handler:
 18496              	.LFB35:
 111:../src/stm32f10x_it.c **** 
 112:../src/stm32f10x_it.c **** /**
 113:../src/stm32f10x_it.c ****   * @brief  This function handles Debug Monitor exception.
 114:../src/stm32f10x_it.c ****   * @param  None
 115:../src/stm32f10x_it.c ****   * @retval None
 116:../src/stm32f10x_it.c ****   */
 117:../src/stm32f10x_it.c **** void DebugMon_Handler(void)
 118:../src/stm32f10x_it.c **** {
 18497              		.loc 1 118 0
 18498              		.cfi_startproc
 18499              		@ args = 0, pretend = 0, frame = 0
 18500              		@ frame_needed = 0, uses_anonymous_args = 0
 18501              		@ link register save eliminated.
 119:../src/stm32f10x_it.c **** }
 18502              		.loc 1 119 0
 18503 0000 7047     		bx	lr
 18504              		.cfi_endproc
 18505              	.LFE35:
 18507              		.section	.text.PendSV_Handler,"ax",%progbits
 18508              		.align	1
 18509              		.global	PendSV_Handler
 18510              		.thumb
 18511              		.thumb_func
 18513              	PendSV_Handler:
 18514              	.LFB36:
 120:../src/stm32f10x_it.c **** 
 121:../src/stm32f10x_it.c **** /**
 122:../src/stm32f10x_it.c ****   * @brief  This function handles PendSVC exception.
 123:../src/stm32f10x_it.c ****   * @param  None
 124:../src/stm32f10x_it.c ****   * @retval None
 125:../src/stm32f10x_it.c ****   */
 126:../src/stm32f10x_it.c **** void PendSV_Handler(void)
 127:../src/stm32f10x_it.c **** {
 18515              		.loc 1 127 0
 18516              		.cfi_startproc
 18517              		@ args = 0, pretend = 0, frame = 0
 18518              		@ frame_needed = 0, uses_anonymous_args = 0
 18519              		@ link register save eliminated.
 128:../src/stm32f10x_it.c **** }
 18520              		.loc 1 128 0
 18521 0000 7047     		bx	lr
 18522              		.cfi_endproc
 18523              	.LFE36:
 18525              		.section	.text.SysTick_Handler,"ax",%progbits
 18526              		.align	1
 18527              		.global	SysTick_Handler
 18528              		.thumb
 18529              		.thumb_func
 18531              	SysTick_Handler:
 18532              	.LFB37:
 129:../src/stm32f10x_it.c **** 
 130:../src/stm32f10x_it.c **** /**
 131:../src/stm32f10x_it.c ****   * @brief  This function handles SysTick Handler.
 132:../src/stm32f10x_it.c ****   * @param  None
 133:../src/stm32f10x_it.c ****   * @retval None
 134:../src/stm32f10x_it.c ****   */
 135:../src/stm32f10x_it.c **** int i,j,del_count=700000, SysTickCnt = 0;
 136:../src/stm32f10x_it.c **** void SysTick_Handler(void)
 137:../src/stm32f10x_it.c **** {
 18533              		.loc 1 137 0
 18534              		.cfi_startproc
 18535              		@ args = 0, pretend = 0, frame = 0
 18536              		@ frame_needed = 0, uses_anonymous_args = 0
 18537              		@ link register save eliminated.
 138:../src/stm32f10x_it.c **** }
 18538              		.loc 1 138 0
 18539 0000 7047     		bx	lr
 18540              		.cfi_endproc
 18541              	.LFE37:
 18543              		.section	.text.TIM2_IRQHandler,"ax",%progbits
 18544              		.align	1
 18545              		.global	TIM2_IRQHandler
 18546              		.thumb
 18547              		.thumb_func
 18549              	TIM2_IRQHandler:
 18550              	.LFB38:
 139:../src/stm32f10x_it.c **** 
 140:../src/stm32f10x_it.c **** /******************************************************************************/
 141:../src/stm32f10x_it.c **** /*                 STM32F10x Peripherals Interrupt Handlers                   */
 142:../src/stm32f10x_it.c **** /*  Add here the Interrupt Handler for the used peripheral(s) (PPP), for the  */
 143:../src/stm32f10x_it.c **** /*  available peripheral interrupt handler's name please refer to the startup */
 144:../src/stm32f10x_it.c **** /*  file (startup_stm32f10x_xx.s).                                            */
 145:../src/stm32f10x_it.c **** /******************************************************************************/
 146:../src/stm32f10x_it.c **** 
 147:../src/stm32f10x_it.c **** /**
 148:../src/stm32f10x_it.c ****   * @brief  This function handles TIM2 interrupt request.
 149:../src/stm32f10x_it.c ****   * @param  None
 150:../src/stm32f10x_it.c ****   * @retval None
 151:../src/stm32f10x_it.c ****   */
 152:../src/stm32f10x_it.c **** int Tim2Cnt = 0;
 153:../src/stm32f10x_it.c **** void TIM2_IRQHandler(void)
 154:../src/stm32f10x_it.c **** {
 18551              		.loc 1 154 0
 18552              		.cfi_startproc
 18553              		@ args = 0, pretend = 0, frame = 0
 18554              		@ frame_needed = 0, uses_anonymous_args = 0
 18555              		@ link register save eliminated.
 155:../src/stm32f10x_it.c **** }
 18556              		.loc 1 155 0
 18557 0000 7047     		bx	lr
 18558              		.cfi_endproc
 18559              	.LFE38:
 18561              		.section	.text.USART2_IRQHandler,"ax",%progbits
 18562              		.align	1
 18563              		.global	USART2_IRQHandler
 18564              		.thumb
 18565              		.thumb_func
 18567              	USART2_IRQHandler:
 18568              	.LFB39:
 156:../src/stm32f10x_it.c **** 
 157:../src/stm32f10x_it.c **** void USART2_IRQHandler(void)
 158:../src/stm32f10x_it.c **** {
 18569              		.loc 1 158 0
 18570              		.cfi_startproc
 18571              		@ args = 0, pretend = 0, frame = 0
 18572              		@ frame_needed = 0, uses_anonymous_args = 0
 18573              		@ link register save eliminated.
 159:../src/stm32f10x_it.c **** }
 18574              		.loc 1 159 0
 18575 0000 7047     		bx	lr
 18576              		.cfi_endproc
 18577              	.LFE39:
 18579              		.global	del_count
 18580              		.global	SysTickCnt
 18581              		.global	Tim2Cnt
 18582              		.comm	i,4,4
 18583              		.comm	j,4,4
 18584              		.section	.data.del_count,"aw",%progbits
 18585              		.align	2
 18588              	del_count:
 18589 0000 60AE0A00 		.word	700000
 18590              		.section	.bss.Tim2Cnt,"aw",%nobits
 18591              		.align	2
 18594              	Tim2Cnt:
 18595 0000 00000000 		.space	4
 18596              		.section	.bss.SysTickCnt,"aw",%nobits
 18597              		.align	2
 18600              	SysTickCnt:
 18601 0000 00000000 		.space	4
 18602              		.text
 18603              	.Letext0: